	.file	"display.c"
__SP_H__ = 0x3e
__SP_L__ = 0x3d
__SREG__ = 0x3f
__RAMPZ__ = 0x3b
__tmp_reg__ = 0
__zero_reg__ = 1
	.text
.Ltext0:
	.cfi_sections	.debug_frame
	.section	.text.calcSpaces,"ax",@progbits
.global	calcSpaces
	.type	calcSpaces, @function
calcSpaces:
.LFB1:
	.file 1 ".././display.c"
	.loc 1 45 0
	.cfi_startproc
.LVL0:
/* prologue: function */
/* frame size = 0 */
/* stack size = 0 */
.L__stack_usage = 0
	.loc 1 47 0
	sts textLen,__zero_reg__
.LVL1:
	.loc 1 48 0
	ldi r30,lo8(sectionBuffer)
	ldi r31,hi8(sectionBuffer)
	.loc 1 46 0
	ldi r25,0
	.loc 1 49 0
	rjmp .L2
.LVL2:
.L4:
	.loc 1 50 0
	lds r24,textLen
	subi r24,lo8(-(1))
	sts textLen,r24
	.loc 1 51 0
	adiw r30,1
.LVL3:
	.loc 1 52 0
	subi r25,lo8(-(1))
.LVL4:
.L2:
	.loc 1 49 0
	cpi r25,lo8(32)
	brsh .L1
	.loc 1 49 0 is_stmt 0 discriminator 1
	ld r24,Z
	cpse r24,__zero_reg__
	rjmp .L4
.L1:
	ret
	.cfi_endproc
.LFE1:
	.size	calcSpaces, .-calcSpaces
	.section	.text.disp_clear,"ax",@progbits
.global	disp_clear
	.type	disp_clear, @function
disp_clear:
.LFB3:
	.loc 1 72 0 is_stmt 1
	.cfi_startproc
/* prologue: function */
/* frame size = 0 */
/* stack size = 0 */
.L__stack_usage = 0
	.loc 1 74 0
	call lcd_clrscr
.LVL5:
.LBB2:
	.loc 1 75 0
	ldi r24,0
	rjmp .L6
.LVL6:
.L7:
	.loc 1 76 0 discriminator 3
	mov r30,r24
	ldi r31,0
	subi r30,lo8(-(displayBuffer))
	sbci r31,hi8(-(displayBuffer))
	ldi r25,lo8(32)
	st Z,r25
	.loc 1 75 0 discriminator 3
	subi r24,lo8(-(1))
.LVL7:
.L6:
	.loc 1 75 0 is_stmt 0 discriminator 1
	tst r24
	brge .L7
/* epilogue start */
.LBE2:
	.loc 1 78 0 is_stmt 1
	ret
	.cfi_endproc
.LFE3:
	.size	disp_clear, .-disp_clear
	.section	.text.init_disp,"ax",@progbits
.global	init_disp
	.type	init_disp, @function
init_disp:
.LFB2:
	.loc 1 63 0
	.cfi_startproc
/* prologue: function */
/* frame size = 0 */
/* stack size = 0 */
.L__stack_usage = 0
.LVL8:
.LBB3:
	.loc 1 64 0
	ldi r24,0
	rjmp .L9
.LVL9:
.L10:
	.loc 1 65 0 discriminator 3
	mov r30,r24
	ldi r31,0
	movw r18,r30
	lsl r18
	rol r19
	add r30,r18
	adc r31,r19
	subi r30,lo8(-(sectionStatus))
	sbci r31,hi8(-(sectionStatus))
	ldi r25,lo8(-1)
	st Z,r25
	.loc 1 66 0 discriminator 3
	std Z+2,__zero_reg__
	.loc 1 67 0 discriminator 3
	std Z+1,__zero_reg__
	.loc 1 64 0 discriminator 3
	subi r24,lo8(-(1))
.LVL10:
.L9:
	.loc 1 64 0 is_stmt 0 discriminator 1
	cpi r24,lo8(20)
	brlo .L10
.LBE3:
	.loc 1 69 0 is_stmt 1
	call disp_clear
.LVL11:
	ret
	.cfi_endproc
.LFE2:
	.size	init_disp, .-init_disp
	.section	.text.disp_redraw,"ax",@progbits
.global	disp_redraw
	.type	disp_redraw, @function
disp_redraw:
.LFB4:
	.loc 1 80 0
	.cfi_startproc
	push r28
.LCFI0:
	.cfi_def_cfa_offset 4
	.cfi_offset 28, -3
/* prologue: function */
/* frame size = 0 */
/* stack size = 1 */
.L__stack_usage = 1
	.loc 1 82 0
	ldi r24,0
	call lcd_goto
.LVL12:
.LBB4:
	.loc 1 83 0
	ldi r28,0
	rjmp .L12
.LVL13:
.L13:
	.loc 1 84 0 discriminator 3
	mov r30,r28
	ldi r31,0
	subi r30,lo8(-(displayBuffer))
	sbci r31,hi8(-(displayBuffer))
	ld r24,Z
	call lcd_putc
.LVL14:
	.loc 1 83 0 discriminator 3
	subi r28,lo8(-(1))
.LVL15:
.L12:
	.loc 1 83 0 is_stmt 0 discriminator 1
	cpi r28,lo8(104)
	brlo .L13
/* epilogue start */
.LBE4:
	.loc 1 86 0 is_stmt 1
	pop r28
.LVL16:
	ret
	.cfi_endproc
.LFE4:
	.size	disp_redraw, .-disp_redraw
	.section	.text.disp_beginSectionUpdate,"ax",@progbits
.global	disp_beginSectionUpdate
	.type	disp_beginSectionUpdate, @function
disp_beginSectionUpdate:
.LFB5:
	.loc 1 91 0
	.cfi_startproc
.LVL17:
/* prologue: function */
/* frame size = 0 */
/* stack size = 0 */
.L__stack_usage = 0
	.loc 1 92 0
	ldi r25,0
	movw r30,r24
	lsl r30
	rol r31
	add r24,r30
	adc r25,r31
.LVL18:
	movw r30,r24
	subi r30,lo8(-(sectionStatus))
	sbci r31,hi8(-(sectionStatus))
	ldi r24,lo8(-1)
	std Z+1,r24
	ret
	.cfi_endproc
.LFE5:
	.size	disp_beginSectionUpdate, .-disp_beginSectionUpdate
	.section	.text.disp_endSectionUpdate,"ax",@progbits
.global	disp_endSectionUpdate
	.type	disp_endSectionUpdate, @function
disp_endSectionUpdate:
.LFB6:
	.loc 1 95 0
	.cfi_startproc
.LVL19:
	push r12
.LCFI1:
	.cfi_def_cfa_offset 4
	.cfi_offset 12, -3
	push r13
.LCFI2:
	.cfi_def_cfa_offset 5
	.cfi_offset 13, -4
	push r14
.LCFI3:
	.cfi_def_cfa_offset 6
	.cfi_offset 14, -5
	push r15
.LCFI4:
	.cfi_def_cfa_offset 7
	.cfi_offset 15, -6
	push r16
.LCFI5:
	.cfi_def_cfa_offset 8
	.cfi_offset 16, -7
	push r17
.LCFI6:
	.cfi_def_cfa_offset 9
	.cfi_offset 17, -8
	push r28
.LCFI7:
	.cfi_def_cfa_offset 10
	.cfi_offset 28, -9
	push r29
.LCFI8:
	.cfi_def_cfa_offset 11
	.cfi_offset 29, -10
/* prologue: function */
/* frame size = 0 */
/* stack size = 8 */
.L__stack_usage = 8
	.loc 1 96 0
	mov r14,r24
	mov r15,__zero_reg__
	movw r30,r14
	lsl r30
	rol r31
	add r30,r14
	adc r31,r15
	subi r30,lo8(-(sectionStatus))
	sbci r31,hi8(-(sectionStatus))
	std Z+1,__zero_reg__
	.loc 1 97 0
	ldd r24,Z+2
.LVL20:
	tst r24
	brne .+2
	rjmp .L15
	.loc 1 98 0
	movw r30,r14
	lsl r30
	rol r31
	add r30,r14
	adc r31,r15
	subi r30,lo8(-(sectionInfo))
	sbci r31,hi8(-(sectionInfo))
	lpm r28,Z
	cpi r28,lo8(-1)
	brne .L17
.LBB5:
	.loc 1 100 0
	movw r30,r14
	lsl r30
	rol r31
	add r30,r14
	adc r31,r15
	subi r30,lo8(-(sectionInfo))
	sbci r31,hi8(-(sectionInfo))
	movw r16,r30
	subi r16,-3
	sbci r17,-1
.LVL21:
	.loc 1 101 0
	adiw r30,2
	lpm r24,Z
.LVL22:
	.loc 1 102 0
	rjmp .L18
.LVL23:
.L21:
.LBB6:
	.loc 1 103 0
	movw r30,r16
	lpm r24,Z
	call lcd_goto
.LVL24:
	.loc 1 104 0
	movw r30,r16
	lpm r24,Z
	mov r30,r24
	ldi r31,0
	movw r26,r30
	subi r26,lo8(-(displayBuffer))
	sbci r27,hi8(-(displayBuffer))
.LVL25:
.LBB7:
	.loc 1 105 0
	ldi r28,0
	rjmp .L19
.LVL26:
.L20:
	.loc 1 106 0 discriminator 3
	movw r12,r26
	ldi r31,-1
	sub r12,r31
	sbc r13,r31
.LVL27:
	ld r24,X
	call lcd_putc
.LVL28:
	.loc 1 105 0 discriminator 3
	subi r28,lo8(-(1))
.LVL29:
	.loc 1 106 0 discriminator 3
	movw r26,r12
.LVL30:
.L19:
	.loc 1 105 0 discriminator 1
	movw r24,r16
	adiw r24,1
	movw r30,r24
	lpm r24,Z
	cp r28,r24
	brlo .L20
.LBE7:
	.loc 1 108 0
	subi r16,-3
	sbci r17,-1
.LVL31:
.LBE6:
	.loc 1 102 0
	mov r24,r29
.LVL32:
.L18:
	ldi r29,lo8(-1)
	add r29,r24
.LVL33:
	cpse r24,__zero_reg__
	rjmp .L21
	rjmp .L22
.LVL34:
.L17:
.LBE5:
.LBB8:
	.loc 1 112 0
	mov r24,r28
	call lcd_goto
.LVL35:
	.loc 1 113 0
	mov r26,r28
	ldi r27,0
	subi r26,lo8(-(displayBuffer))
	sbci r27,hi8(-(displayBuffer))
.LVL36:
.LBB9:
	.loc 1 114 0
	ldi r28,0
	rjmp .L23
.LVL37:
.L24:
	.loc 1 115 0 discriminator 3
	movw r16,r26
	subi r16,-1
	sbci r17,-1
.LVL38:
	ld r24,X
	call lcd_putc
.LVL39:
	.loc 1 114 0 discriminator 3
	subi r28,lo8(-(1))
.LVL40:
	.loc 1 115 0 discriminator 3
	movw r26,r16
.LVL41:
.L23:
	.loc 1 114 0 discriminator 1
	movw r30,r14
	lsl r30
	rol r31
	add r30,r14
	adc r31,r15
	subi r30,lo8(-(sectionInfo+1))
	sbci r31,hi8(-(sectionInfo+1))
	lpm r24,Z
	cp r28,r24
	brlo .L24
.LVL42:
.L22:
.LBE9:
.LBE8:
	.loc 1 118 0
	movw r30,r14
	lsl r30
	rol r31
	add r30,r14
	adc r31,r15
	subi r30,lo8(-(sectionStatus))
	sbci r31,hi8(-(sectionStatus))
	std Z+2,__zero_reg__
.L15:
/* epilogue start */
	.loc 1 120 0
	pop r29
	pop r28
	pop r17
	pop r16
	pop r15
	pop r14
.LVL43:
	pop r13
	pop r12
	ret
	.cfi_endproc
.LFE6:
	.size	disp_endSectionUpdate, .-disp_endSectionUpdate
	.section	.text.disp_sectionClearSub,"ax",@progbits
.global	disp_sectionClearSub
	.type	disp_sectionClearSub, @function
disp_sectionClearSub:
.LFB7:
	.loc 1 122 0
	.cfi_startproc
.LVL44:
	push r13
.LCFI9:
	.cfi_def_cfa_offset 4
	.cfi_offset 13, -3
	push r14
.LCFI10:
	.cfi_def_cfa_offset 5
	.cfi_offset 14, -4
	push r15
.LCFI11:
	.cfi_def_cfa_offset 6
	.cfi_offset 15, -5
	push r16
.LCFI12:
	.cfi_def_cfa_offset 7
	.cfi_offset 16, -6
	push r17
.LCFI13:
	.cfi_def_cfa_offset 8
	.cfi_offset 17, -7
	push r28
.LCFI14:
	.cfi_def_cfa_offset 9
	.cfi_offset 28, -8
	push r29
.LCFI15:
	.cfi_def_cfa_offset 10
	.cfi_offset 29, -9
/* prologue: function */
/* frame size = 0 */
/* stack size = 7 */
.L__stack_usage = 7
	.loc 1 123 0
	ldi r25,0
	movw r30,r24
	lsl r30
	rol r31
	add r30,r24
	adc r31,r25
	subi r30,lo8(-(sectionInfo))
	sbci r31,hi8(-(sectionInfo))
	lpm r18,Z
	cpi r18,lo8(-1)
	breq .+2
	rjmp .L25
.LBB10:
	.loc 1 125 0
	movw r30,r24
	lsl r30
	rol r31
	add r30,r24
	adc r31,r25
	subi r30,lo8(-(sectionStatus))
	sbci r31,hi8(-(sectionStatus))
	ldd r13,Z+1
.LVL45:
	.loc 1 126 0
	tst r13
	breq .L27
	.loc 1 127 0
	movw r30,r24
	lsl r30
	rol r31
	add r30,r24
	adc r31,r25
	subi r30,lo8(-(sectionStatus))
	sbci r31,hi8(-(sectionStatus))
	std Z+2,r18
.L27:
	.loc 1 129 0
	movw r30,r24
	lsl r30
	rol r31
	add r24,r30
	adc r25,r31
.LVL46:
	subi r24,lo8(-(sectionInfo))
	sbci r25,hi8(-(sectionInfo))
	ldi r23,0
	subi r22,-1
	sbci r23,-1
.LVL47:
	movw r30,r22
	lsl r30
	rol r31
	add r30,r22
	adc r31,r23
.LVL48:
	.loc 1 130 0
	add r30,r24
	adc r31,r25
.LVL49:
	lpm r24,Z+
.LVL50:
	.loc 1 131 0
	lpm r28,Z
.LVL51:
	.loc 1 132 0
	mov r16,r24
	ldi r17,0
	subi r16,lo8(-(displayBuffer))
	sbci r17,hi8(-(displayBuffer))
.LVL52:
	.loc 1 133 0
	cpse r13,__zero_reg__
	rjmp .L29
	.loc 1 135 0
	call lcd_goto
.LVL53:
	rjmp .L29
.LVL54:
.L31:
	.loc 1 138 0
	movw r14,r16
	ldi r24,-1
	sub r14,r24
	sbc r15,r24
.LVL55:
	ldi r24,lo8(32)
	movw r30,r16
	st Z,r24
	.loc 1 139 0
	cpse r13,__zero_reg__
	rjmp .L30
	.loc 1 140 0
	call lcd_putc
.LVL56:
.L30:
	mov r28,r29
.LBE10:
	.loc 1 122 0
	movw r16,r14
.LVL57:
.L29:
.LBB11:
	.loc 1 137 0
	ldi r29,lo8(-1)
	add r29,r28
.LVL58:
	cpse r28,__zero_reg__
	rjmp .L31
.LVL59:
.L25:
/* epilogue start */
.LBE11:
	.loc 1 144 0
	pop r29
	pop r28
	pop r17
	pop r16
	pop r15
	pop r14
	pop r13
	ret
	.cfi_endproc
.LFE7:
	.size	disp_sectionClearSub, .-disp_sectionClearSub
	.section	.bss.sectionStatus,"aw",@nobits
	.type	sectionStatus, @object
	.size	sectionStatus, 60
sectionStatus:
	.zero	60
.global	sectionInfo
	.section	.progmem.data.sectionInfo,"a",@progbits
	.type	sectionInfo, @object
	.size	sectionInfo, 60
sectionInfo:
	.byte	0
	.byte	5
	.byte	0
	.byte	15
	.byte	5
	.byte	0
	.byte	7
	.byte	5
	.byte	0
	.byte	12
	.byte	1
	.byte	0
	.byte	13
	.byte	1
	.byte	0
	.byte	64
	.byte	20
	.byte	0
	.byte	30
	.byte	10
	.byte	0
	.byte	20
	.byte	10
	.byte	0
	.byte	20
	.byte	20
	.byte	0
	.byte	64
	.byte	20
	.byte	0
	.byte	-1
	.byte	0
	.byte	4
	.byte	20
	.byte	7
	.byte	0
	.byte	20
	.byte	7
	.byte	0
	.byte	86
	.byte	7
	.byte	0
	.byte	32
	.byte	7
	.byte	0
	.byte	84
	.byte	20
	.byte	0
	.byte	84
	.byte	5
	.byte	0
	.byte	89
	.byte	5
	.byte	0
	.byte	94
	.byte	5
	.byte	0
	.byte	99
	.byte	5
	.byte	0
.global	displaySize
	.section	.rodata.displaySize,"a",@progbits
	.type	displaySize, @object
	.size	displaySize, 1
displaySize:
	.byte	104
	.section	.bss.textLen,"aw",@nobits
	.type	textLen, @object
	.size	textLen, 1
textLen:
	.zero	1
	.comm	sectionBuffer,32,1
	.section	.bss.displayBuffer,"aw",@nobits
	.type	displayBuffer, @object
	.size	displayBuffer, 128
displayBuffer:
	.zero	128
	.text
.Letext0:
	.file 2 ".././display.h"
	.file 3 "c:\\program files (x86)\\atmel\\studio\\7.0\\toolchain\\avr8\\avr8-gnu-toolchain\\avr\\include\\stdint.h"
	.file 4 ".././lcd_u.h"