	.file	"ee_prom.c"
__SP_H__ = 0x3e
__SP_L__ = 0x3d
__SREG__ = 0x3f
__RAMPZ__ = 0x3b
__tmp_reg__ = 0
__zero_reg__ = 1
	.text
.Ltext0:
	.cfi_sections	.debug_frame
	.section	.text.crc16_ram,"ax",@progbits
.global	crc16_ram
	.type	crc16_ram, @function
crc16_ram:
.LFB11:
	.file 1 ".././ee_prom.c"
	.loc 1 39 0
	.cfi_startproc
.LVL0:
/* prologue: function */
/* frame size = 0 */
/* stack size = 0 */
.L__stack_usage = 0
	.loc 1 41 0
	cp r22,__zero_reg__
	cpc r23,__zero_reg__
	breq .L4
	movw r30,r24
	add r22,r24
	adc r23,r25
.LVL1:
	ldi r24,lo8(-1)
	ldi r25,lo8(-1)
.LVL2:
.L3:
	.loc 1 42 0
	ld r18,Z+
.LVL3:
.LBB24:
.LBB25:
	.file 2 "c:\\program files (x86)\\atmel\\studio\\7.0\\toolchain\\avr8\\avr8-gnu-toolchain\\avr\\include\\util\\crc16.h"
	.loc 2 118 0
/* #APP */
 ;  118 "c:\program files (x86)\atmel\studio\7.0\toolchain\avr8\avr8-gnu-toolchain\avr\include\util\crc16.h" 1
	eor r24,r18
	mov r18,r24
	swap r18
	eor r18,r24
	mov __tmp_reg__,r18
	lsr r18
	lsr r18
	eor r18,__tmp_reg__
	mov __tmp_reg__,r18
	lsr r18
	eor r18,__tmp_reg__
	andi r18,0x07
	mov __tmp_reg__,r24
	mov r24,r25
	lsr r18
	ror __tmp_reg__
	ror r18
	mov r25,__tmp_reg__
	eor r24,r18
	lsr __tmp_reg__
	ror r18
	eor r25,__tmp_reg__
	eor r24,r18
 ;  0 "" 2
.LVL4:
/* #NOAPP */
.LBE25:
.LBE24:
	.loc 1 41 0
	cp r30,r22
	cpc r31,r23
	brne .L3
	ret
.LVL5:
.L4:
	.loc 1 40 0
	ldi r24,lo8(-1)
	ldi r25,lo8(-1)
.LVL6:
	.loc 1 45 0
	ret
	.cfi_endproc
.LFE11:
	.size	crc16_ram, .-crc16_ram
	.section	.text.crc16_eeprom,"ax",@progbits
.global	crc16_eeprom
	.type	crc16_eeprom, @function
crc16_eeprom:
.LFB12:
	.loc 1 47 0
	.cfi_startproc
.LVL7:
	push r14
.LCFI0:
	.cfi_def_cfa_offset 4
	.cfi_offset 14, -3
	push r15
.LCFI1:
	.cfi_def_cfa_offset 5
	.cfi_offset 15, -4
	push r16
.LCFI2:
	.cfi_def_cfa_offset 6
	.cfi_offset 16, -5
	push r17
.LCFI3:
	.cfi_def_cfa_offset 7
	.cfi_offset 17, -6
	push r28
.LCFI4:
	.cfi_def_cfa_offset 8
	.cfi_offset 28, -7
	push r29
.LCFI5:
	.cfi_def_cfa_offset 9
	.cfi_offset 29, -8
/* prologue: function */
/* frame size = 0 */
/* stack size = 6 */
.L__stack_usage = 6
.LVL8:
	.loc 1 49 0
	cp r22,__zero_reg__
	cpc r23,__zero_reg__
	brne .+2
	rjmp .L10
	movw r14,r24
	add r14,r22
	adc r15,r23
	ldi r28,lo8(-1)
	ldi r29,lo8(-1)
.LVL9:
.L9:
	.loc 1 50 0
	movw r16,r24
	subi r16,-1
	sbci r17,-1
.LVL10:
	call eeprom_read_byte
.LVL11:
.LBB28:
.LBB29:
	.loc 2 118 0
	movw r18,r28
/* #APP */
 ;  118 "c:\program files (x86)\atmel\studio\7.0\toolchain\avr8\avr8-gnu-toolchain\avr\include\util\crc16.h" 1
	eor r18,r24
	mov r24,r18
	swap r24
	eor r24,r18
	mov __tmp_reg__,r24
	lsr r24
	lsr r24
	eor r24,__tmp_reg__
	mov __tmp_reg__,r24
	lsr r24
	eor r24,__tmp_reg__
	andi r24,0x07
	mov __tmp_reg__,r18
	mov r18,r19
	lsr r24
	ror __tmp_reg__
	ror r24
	mov r19,__tmp_reg__
	eor r18,r24
	lsr __tmp_reg__
	ror r24
	eor r19,__tmp_reg__
	eor r18,r24
 ;  0 "" 2
.LVL12:
/* #NOAPP */
	movw r28,r18
.LVL13:
	movw r24,r16
.LBE29:
.LBE28:
	.loc 1 49 0
	cp r16,r14
	cpc r17,r15
	brne .L9
.LVL14:
.L8:
	.loc 1 53 0
	movw r24,r28
/* epilogue start */
	pop r29
	pop r28
	pop r17
	pop r16
	pop r15
	pop r14
	ret
.LVL15:
.L10:
	.loc 1 48 0
	ldi r28,lo8(-1)
	ldi r29,lo8(-1)
	rjmp .L8
	.cfi_endproc
.LFE12:
	.size	crc16_eeprom, .-crc16_eeprom
	.section	.text.crc16_ram_startVal,"ax",@progbits
.global	crc16_ram_startVal
	.type	crc16_ram_startVal, @function
crc16_ram_startVal:
.LFB13:
	.loc 1 55 0
	.cfi_startproc
.LVL16:
/* prologue: function */
/* frame size = 0 */
/* stack size = 0 */
.L__stack_usage = 0
	mov r19,r24
	mov r18,r25
	movw r24,r20
.LVL17:
	.loc 1 57 0
	cp r22,__zero_reg__
	cpc r23,__zero_reg__
	breq .L13
	mov r30,r19
	mov r31,r18
	add r22,r30
	adc r23,r31
.LVL18:
.L14:
	.loc 1 58 0
	ld r18,Z+
.LVL19:
.LBB32:
.LBB33:
	.loc 2 118 0
/* #APP */
 ;  118 "c:\program files (x86)\atmel\studio\7.0\toolchain\avr8\avr8-gnu-toolchain\avr\include\util\crc16.h" 1
	eor r24,r18
	mov r18,r24
	swap r18
	eor r18,r24
	mov __tmp_reg__,r18
	lsr r18
	lsr r18
	eor r18,__tmp_reg__
	mov __tmp_reg__,r18
	lsr r18
	eor r18,__tmp_reg__
	andi r18,0x07
	mov __tmp_reg__,r24
	mov r24,r25
	lsr r18
	ror __tmp_reg__
	ror r18
	mov r25,__tmp_reg__
	eor r24,r18
	lsr __tmp_reg__
	ror r18
	eor r25,__tmp_reg__
	eor r24,r18
 ;  0 "" 2
.LVL20:
/* #NOAPP */
.LBE33:
.LBE32:
	.loc 1 57 0
	cp r30,r22
	cpc r31,r23
	brne .L14
.LVL21:
.L13:
	.loc 1 61 0
	ret
	.cfi_endproc
.LFE13:
	.size	crc16_ram_startVal, .-crc16_ram_startVal
	.section	.text.crc16_eeprom_startVal,"ax",@progbits
.global	crc16_eeprom_startVal
	.type	crc16_eeprom_startVal, @function
crc16_eeprom_startVal:
.LFB14:
	.loc 1 63 0
	.cfi_startproc
.LVL22:
	push r14
.LCFI6:
	.cfi_def_cfa_offset 4
	.cfi_offset 14, -3
	push r15
.LCFI7:
	.cfi_def_cfa_offset 5
	.cfi_offset 15, -4
	push r16
.LCFI8:
	.cfi_def_cfa_offset 6
	.cfi_offset 16, -5
	push r17
.LCFI9:
	.cfi_def_cfa_offset 7
	.cfi_offset 17, -6
	push r28
.LCFI10:
	.cfi_def_cfa_offset 8
	.cfi_offset 28, -7
	push r29
.LCFI11:
	.cfi_def_cfa_offset 9
	.cfi_offset 29, -8
/* prologue: function */
/* frame size = 0 */
/* stack size = 6 */
.L__stack_usage = 6
	movw r28,r20
.LVL23:
	.loc 1 65 0
	cp r22,__zero_reg__
	cpc r23,__zero_reg__
	breq .L20
	movw r14,r24
	add r14,r22
	adc r15,r23
.LVL24:
.L21:
	.loc 1 66 0
	movw r16,r24
	subi r16,-1
	sbci r17,-1
.LVL25:
	call eeprom_read_byte
.LVL26:
.LBB36:
.LBB37:
	.loc 2 118 0
	movw r20,r28
/* #APP */
 ;  118 "c:\program files (x86)\atmel\studio\7.0\toolchain\avr8\avr8-gnu-toolchain\avr\include\util\crc16.h" 1
	eor r20,r24
	mov r24,r20
	swap r24
	eor r24,r20
	mov __tmp_reg__,r24
	lsr r24
	lsr r24
	eor r24,__tmp_reg__
	mov __tmp_reg__,r24
	lsr r24
	eor r24,__tmp_reg__
	andi r24,0x07
	mov __tmp_reg__,r20
	mov r20,r21
	lsr r24
	ror __tmp_reg__
	ror r24
	mov r21,__tmp_reg__
	eor r20,r24
	lsr __tmp_reg__
	ror r24
	eor r21,__tmp_reg__
	eor r20,r24
 ;  0 "" 2
.LVL27:
/* #NOAPP */
	movw r28,r20
.LVL28:
	movw r24,r16
.LBE37:
.LBE36:
	.loc 1 65 0
	cp r16,r14
	cpc r17,r15
	brne .L21
.LVL29:
.L20:
	.loc 1 69 0
	movw r24,r28
/* epilogue start */
	pop r29
	pop r28
	pop r17
	pop r16
	pop r15
	pop r14
	ret
	.cfi_endproc
.LFE14:
	.size	crc16_eeprom_startVal, .-crc16_eeprom_startVal
	.section	.text.eeprom_ReadManualMap,"ax",@progbits
.global	eeprom_ReadManualMap
	.type	eeprom_ReadManualMap, @function
eeprom_ReadManualMap:
.LFB15:
	.loc 1 72 0
	.cfi_startproc
	push r14
.LCFI12:
	.cfi_def_cfa_offset 4
	.cfi_offset 14, -3
	push r15
.LCFI13:
	.cfi_def_cfa_offset 5
	.cfi_offset 15, -4
	push r16
.LCFI14:
	.cfi_def_cfa_offset 6
	.cfi_offset 16, -5
	push r17
.LCFI15:
	.cfi_def_cfa_offset 7
	.cfi_offset 17, -6
	push r28
.LCFI16:
	.cfi_def_cfa_offset 8
	.cfi_offset 28, -7
	push r29
.LCFI17:
	.cfi_def_cfa_offset 9
	.cfi_offset 29, -8
/* prologue: function */
/* frame size = 0 */
/* stack size = 6 */
.L__stack_usage = 6
	.loc 1 73 0
	ldi r24,lo8(ee+50)
	ldi r25,hi8(ee+50)
	call eeprom_read_word
.LVL30:
	movw r14,r24
.LVL31:
.LBB42:
.LBB43:
	.loc 1 48 0
	ldi r28,lo8(-1)
	ldi r29,lo8(-1)
.LBE43:
.LBE42:
	.loc 1 73 0
	ldi r24,lo8(ee+2)
	ldi r25,hi8(ee+2)
.LVL32:
.L27:
.LBB47:
.LBB46:
	.loc 1 50 0
	movw r16,r24
	subi r16,-1
	sbci r17,-1
.LVL33:
	call eeprom_read_byte
.LVL34:
.LBB44:
.LBB45:
	.loc 2 118 0
	movw r18,r28
/* #APP */
 ;  118 "c:\program files (x86)\atmel\studio\7.0\toolchain\avr8\avr8-gnu-toolchain\avr\include\util\crc16.h" 1
	eor r18,r24
	mov r24,r18
	swap r24
	eor r24,r18
	mov __tmp_reg__,r24
	lsr r24
	lsr r24
	eor r24,__tmp_reg__
	mov __tmp_reg__,r24
	lsr r24
	eor r24,__tmp_reg__
	andi r24,0x07
	mov __tmp_reg__,r18
	mov r18,r19
	lsr r24
	ror __tmp_reg__
	ror r24
	mov r19,__tmp_reg__
	eor r18,r24
	lsr __tmp_reg__
	ror r24
	eor r19,__tmp_reg__
	eor r18,r24
 ;  0 "" 2
.LVL35:
/* #NOAPP */
	movw r28,r18
.LVL36:
	movw r24,r16
.LBE45:
.LBE44:
	.loc 1 49 0
	subi r16,lo8(ee+50)
	sbci r17,hi8(ee+50)
.LVL37:
	brne .L27
.LVL38:
.LBE46:
.LBE47:
	.loc 1 73 0
	cp r14,r28
	cpc r15,r29
	breq .L31
.L28:
	.loc 1 79 0
	lds r24,ee_initError
	ori r24,lo8(1)
	sts ee_initError,r24
	.loc 1 80 0
	ldi r24,lo8(-1)
.L29:
/* epilogue start */
	.loc 1 82 0
	pop r29
	pop r28
	pop r17
	pop r16
	pop r15
	pop r14
	ret
.L31:
	.loc 1 74 0
	ldi r24,lo8(ee+1)
	ldi r25,hi8(ee+1)
	call eeprom_read_byte
.LVL39:
	cpi r24,lo8(77)
	brne .L28
	.loc 1 76 0
	ldi r20,lo8(48)
	ldi r21,0
	ldi r22,lo8(ee+2)
	ldi r23,hi8(ee+2)
	ldi r24,lo8(manualMap)
	ldi r25,hi8(manualMap)
	call eeprom_read_block
.LVL40:
	.loc 1 77 0
	ldi r24,0
	rjmp .L29
	.cfi_endproc
.LFE15:
	.size	eeprom_ReadManualMap, .-eeprom_ReadManualMap
	.section	.text.eeprom_ReadMidiInMap,"ax",@progbits
.global	eeprom_ReadMidiInMap
	.type	eeprom_ReadMidiInMap, @function
eeprom_ReadMidiInMap:
.LFB16:
	.loc 1 84 0
	.cfi_startproc
	push r14
.LCFI18:
	.cfi_def_cfa_offset 4
	.cfi_offset 14, -3
	push r15
.LCFI19:
	.cfi_def_cfa_offset 5
	.cfi_offset 15, -4
	push r16
.LCFI20:
	.cfi_def_cfa_offset 6
	.cfi_offset 16, -5
	push r17
.LCFI21:
	.cfi_def_cfa_offset 7
	.cfi_offset 17, -6
	push r28
.LCFI22:
	.cfi_def_cfa_offset 8
	.cfi_offset 28, -7
	push r29
.LCFI23:
	.cfi_def_cfa_offset 9
	.cfi_offset 29, -8
/* prologue: function */
/* frame size = 0 */
/* stack size = 6 */
.L__stack_usage = 6
	.loc 1 85 0
	ldi r24,lo8(ee+309)
	ldi r25,hi8(ee+309)
	call eeprom_read_word
.LVL41:
	movw r14,r24
.LVL42:
.LBB52:
.LBB53:
	.loc 1 48 0
	ldi r28,lo8(-1)
	ldi r29,lo8(-1)
.LBE53:
.LBE52:
	.loc 1 85 0
	ldi r24,lo8(ee+53)
	ldi r25,hi8(ee+53)
.LVL43:
.L33:
.LBB57:
.LBB56:
	.loc 1 50 0
	movw r16,r24
	subi r16,-1
	sbci r17,-1
.LVL44:
	call eeprom_read_byte
.LVL45:
.LBB54:
.LBB55:
	.loc 2 118 0
	movw r18,r28
/* #APP */
 ;  118 "c:\program files (x86)\atmel\studio\7.0\toolchain\avr8\avr8-gnu-toolchain\avr\include\util\crc16.h" 1
	eor r18,r24
	mov r24,r18
	swap r24
	eor r24,r18
	mov __tmp_reg__,r24
	lsr r24
	lsr r24
	eor r24,__tmp_reg__
	mov __tmp_reg__,r24
	lsr r24
	eor r24,__tmp_reg__
	andi r24,0x07
	mov __tmp_reg__,r18
	mov r18,r19
	lsr r24
	ror __tmp_reg__
	ror r24
	mov r19,__tmp_reg__
	eor r18,r24
	lsr __tmp_reg__
	ror r24
	eor r19,__tmp_reg__
	eor r18,r24
 ;  0 "" 2
.LVL46:
/* #NOAPP */
	movw r28,r18
.LVL47:
	movw r24,r16
.LBE55:
.LBE54:
	.loc 1 49 0
	subi r16,lo8(ee+309)
	sbci r17,hi8(ee+309)
.LVL48:
	brne .L33
.LVL49:
.LBE56:
.LBE57:
	.loc 1 85 0
	cp r14,r28
	cpc r15,r29
	breq .L37
.L34:
	.loc 1 91 0
	lds r24,ee_initError
	ori r24,lo8(2)
	sts ee_initError,r24
	.loc 1 92 0
	ldi r24,lo8(-1)
.L35:
/* epilogue start */
	.loc 1 94 0
	pop r29
	pop r28
	pop r17
	pop r16
	pop r15
	pop r14
	ret
.L37:
	.loc 1 86 0
	ldi r24,lo8(ee+52)
	ldi r25,hi8(ee+52)
	call eeprom_read_byte
.LVL50:
	cpi r24,lo8(73)
	brne .L34
	.loc 1 88 0
	ldi r20,0
	ldi r21,lo8(1)
	ldi r22,lo8(ee+53)
	ldi r23,hi8(ee+53)
	ldi r24,lo8(midiInMap)
	ldi r25,hi8(midiInMap)
	call eeprom_read_block
.LVL51:
	.loc 1 89 0
	ldi r24,0
	rjmp .L35
	.cfi_endproc
.LFE16:
	.size	eeprom_ReadMidiInMap, .-eeprom_ReadMidiInMap
	.section	.text.eeprom_ReadMidiOutMap,"ax",@progbits
.global	eeprom_ReadMidiOutMap
	.type	eeprom_ReadMidiOutMap, @function
eeprom_ReadMidiOutMap:
.LFB17:
	.loc 1 96 0
	.cfi_startproc
	push r14
.LCFI24:
	.cfi_def_cfa_offset 4
	.cfi_offset 14, -3
	push r15
.LCFI25:
	.cfi_def_cfa_offset 5
	.cfi_offset 15, -4
	push r16
.LCFI26:
	.cfi_def_cfa_offset 6
	.cfi_offset 16, -5
	push r17
.LCFI27:
	.cfi_def_cfa_offset 7
	.cfi_offset 17, -6
	push r28
.LCFI28:
	.cfi_def_cfa_offset 8
	.cfi_offset 28, -7
	push r29
.LCFI29:
	.cfi_def_cfa_offset 9
	.cfi_offset 29, -8
/* prologue: function */
/* frame size = 0 */
/* stack size = 6 */
.L__stack_usage = 6
	.loc 1 97 0
	ldi r24,lo8(ee+317)
	ldi r25,hi8(ee+317)
	call eeprom_read_word
.LVL52:
	movw r14,r24
.LVL53:
.LBB62:
.LBB63:
	.loc 1 48 0
	ldi r28,lo8(-1)
	ldi r29,lo8(-1)
.LBE63:
.LBE62:
	.loc 1 97 0
	ldi r24,lo8(ee+312)
	ldi r25,hi8(ee+312)
.LVL54:
.L39:
.LBB67:
.LBB66:
	.loc 1 50 0
	movw r16,r24
	subi r16,-1
	sbci r17,-1
.LVL55:
	call eeprom_read_byte
.LVL56:
.LBB64:
.LBB65:
	.loc 2 118 0
	movw r18,r28
/* #APP */
 ;  118 "c:\program files (x86)\atmel\studio\7.0\toolchain\avr8\avr8-gnu-toolchain\avr\include\util\crc16.h" 1
	eor r18,r24
	mov r24,r18
	swap r24
	eor r24,r18
	mov __tmp_reg__,r24
	lsr r24
	lsr r24
	eor r24,__tmp_reg__
	mov __tmp_reg__,r24
	lsr r24
	eor r24,__tmp_reg__
	andi r24,0x07
	mov __tmp_reg__,r18
	mov r18,r19
	lsr r24
	ror __tmp_reg__
	ror r24
	mov r19,__tmp_reg__
	eor r18,r24
	lsr __tmp_reg__
	ror r24
	eor r19,__tmp_reg__
	eor r18,r24
 ;  0 "" 2
.LVL57:
/* #NOAPP */
	movw r28,r18
.LVL58:
	movw r24,r16
.LBE65:
.LBE64:
	.loc 1 49 0
	subi r16,lo8(ee+317)
	sbci r17,hi8(ee+317)
.LVL59:
	brne .L39
.LVL60:
.LBE66:
.LBE67:
	.loc 1 97 0
	cp r14,r28
	cpc r15,r29
	breq .L43
.L40:
	.loc 1 104 0
	lds r24,ee_initError
	ori r24,lo8(4)
	sts ee_initError,r24
	.loc 1 105 0
	ldi r24,lo8(-1)
.L41:
/* epilogue start */
	.loc 1 107 0
	pop r29
	pop r28
	pop r17
	pop r16
	pop r15
	pop r14
	ret
.L43:
	.loc 1 98 0
	ldi r24,lo8(ee+311)
	ldi r25,hi8(ee+311)
	call eeprom_read_byte
.LVL61:
	cpi r24,lo8(79)
	brne .L40
	.loc 1 100 0
	ldi r20,lo8(4)
	ldi r21,0
	ldi r22,lo8(ee+312)
	ldi r23,hi8(ee+312)
	ldi r24,lo8(midiOutMap)
	ldi r25,hi8(midiOutMap)
	call eeprom_read_block
.LVL62:
	.loc 1 101 0
	ldi r24,lo8(ee+316)
	ldi r25,hi8(ee+316)
	call eeprom_read_byte
.LVL63:
	sts midi_TxActivceSense,r24
	.loc 1 102 0
	ldi r24,0
	rjmp .L41
	.cfi_endproc
.LFE17:
	.size	eeprom_ReadMidiOutMap, .-eeprom_ReadMidiOutMap
	.section	.text.eeprom_ReadModules,"ax",@progbits
.global	eeprom_ReadModules
	.type	eeprom_ReadModules, @function
eeprom_ReadModules:
.LFB18:
	.loc 1 109 0
	.cfi_startproc
	push r16
.LCFI30:
	.cfi_def_cfa_offset 4
	.cfi_offset 16, -3
	push r17
.LCFI31:
	.cfi_def_cfa_offset 5
	.cfi_offset 17, -4
	push r28
.LCFI32:
	.cfi_def_cfa_offset 6
	.cfi_offset 28, -5
/* prologue: function */
/* frame size = 0 */
/* stack size = 3 */
.L__stack_usage = 3
	.loc 1 110 0
	ldi r24,lo8(ee+322)
	ldi r25,hi8(ee+322)
	call eeprom_read_word
.LVL64:
	movw r16,r24
.LVL65:
.LBB72:
.LBB73:
	.loc 1 50 0
	ldi r24,lo8(ee+320)
	ldi r25,hi8(ee+320)
	call eeprom_read_byte
.LVL66:
	mov r28,r24
.LVL67:
.LBB74:
.LBB75:
	.loc 2 118 0
	ldi r24,lo8(-1)
	ldi r25,lo8(-1)
.LVL68:
/* #APP */
 ;  118 "c:\program files (x86)\atmel\studio\7.0\toolchain\avr8\avr8-gnu-toolchain\avr\include\util\crc16.h" 1
	eor r24,r28
	mov r18,r24
	swap r18
	eor r18,r24
	mov __tmp_reg__,r18
	lsr r18
	lsr r18
	eor r18,__tmp_reg__
	mov __tmp_reg__,r18
	lsr r18
	eor r18,__tmp_reg__
	andi r18,0x07
	mov __tmp_reg__,r24
	mov r24,r25
	lsr r18
	ror __tmp_reg__
	ror r18
	mov r25,__tmp_reg__
	eor r24,r18
	lsr __tmp_reg__
	ror r18
	eor r25,__tmp_reg__
	eor r24,r18
 ;  0 "" 2
.LVL69:
/* #NOAPP */
.LBE75:
.LBE74:
.LBE73:
.LBE72:
	.loc 1 110 0
	cp r16,r24
	cpc r17,r25
	breq .L47
.L45:
	.loc 1 117 0
	lds r24,ee_initError
	ori r24,lo8(8)
	sts ee_initError,r24
	.loc 1 118 0
	ldi r24,lo8(-1)
.L46:
/* epilogue start */
	.loc 1 120 0
	pop r28
	pop r17
	pop r16
	ret
.L47:
	.loc 1 111 0
	ldi r24,lo8(ee+319)
	ldi r25,hi8(ee+319)
	call eeprom_read_byte
.LVL70:
	cpi r24,lo8(105)
	brne .L45
	.loc 1 113 0
	sts pipe_ModuleAssnRead,r28
	.loc 1 114 0
	ldi r24,lo8(ee+321)
	ldi r25,hi8(ee+321)
	call eeprom_read_byte
.LVL71:
	sts pipe_ModuleAssnWrite,r24
	.loc 1 115 0
	ldi r24,0
	rjmp .L46
	.cfi_endproc
.LFE18:
	.size	eeprom_ReadModules, .-eeprom_ReadModules
	.section	.text.eeprom_ReadUSB,"ax",@progbits
.global	eeprom_ReadUSB
	.type	eeprom_ReadUSB, @function
eeprom_ReadUSB:
.LFB19:
	.loc 1 122 0
	.cfi_startproc
	push r16
.LCFI33:
	.cfi_def_cfa_offset 4
	.cfi_offset 16, -3
	push r17
.LCFI34:
	.cfi_def_cfa_offset 5
	.cfi_offset 17, -4
	push r28
.LCFI35:
	.cfi_def_cfa_offset 6
	.cfi_offset 28, -5
/* prologue: function */
/* frame size = 0 */
/* stack size = 3 */
.L__stack_usage = 3
	.loc 1 123 0
	ldi r24,lo8(ee+326)
	ldi r25,hi8(ee+326)
	call eeprom_read_word
.LVL72:
	movw r16,r24
.LVL73:
.LBB80:
.LBB81:
	.loc 1 50 0
	ldi r24,lo8(ee+325)
	ldi r25,hi8(ee+325)
	call eeprom_read_byte
.LVL74:
	mov r28,r24
.LVL75:
.LBB82:
.LBB83:
	.loc 2 118 0
	ldi r24,lo8(-1)
	ldi r25,lo8(-1)
.LVL76:
/* #APP */
 ;  118 "c:\program files (x86)\atmel\studio\7.0\toolchain\avr8\avr8-gnu-toolchain\avr\include\util\crc16.h" 1
	eor r24,r28
	mov r18,r24
	swap r18
	eor r18,r24
	mov __tmp_reg__,r18
	lsr r18
	lsr r18
	eor r18,__tmp_reg__
	mov __tmp_reg__,r18
	lsr r18
	eor r18,__tmp_reg__
	andi r18,0x07
	mov __tmp_reg__,r24
	mov r24,r25
	lsr r18
	ror __tmp_reg__
	ror r18
	mov r25,__tmp_reg__
	eor r24,r18
	lsr __tmp_reg__
	ror r18
	eor r25,__tmp_reg__
	eor r24,r18
 ;  0 "" 2
.LVL77:
/* #NOAPP */
.LBE83:
.LBE82:
.LBE81:
.LBE80:
	.loc 1 123 0
	cp r16,r24
	cpc r17,r25
	breq .L51
.L49:
	.loc 1 129 0
	lds r24,ee_initError
	ori r24,lo8(8)
	sts ee_initError,r24
	.loc 1 130 0
	ldi r24,lo8(-1)
.L50:
/* epilogue start */
	.loc 1 132 0
	pop r28
	pop r17
	pop r16
	ret
.L51:
	.loc 1 124 0
	ldi r24,lo8(ee+324)
	ldi r25,hi8(ee+324)
	call eeprom_read_byte
.LVL78:
	cpi r24,lo8(85)
	brne .L49
	.loc 1 126 0
	sts serusb_Active,r28
	.loc 1 127 0
	ldi r24,0
	rjmp .L50
	.cfi_endproc
.LFE19:
	.size	eeprom_ReadUSB, .-eeprom_ReadUSB
	.section	.text.eeprom_ReadReg,"ax",@progbits
.global	eeprom_ReadReg
	.type	eeprom_ReadReg, @function
eeprom_ReadReg:
.LFB20:
	.loc 1 134 0
	.cfi_startproc
	push r13
.LCFI36:
	.cfi_def_cfa_offset 4
	.cfi_offset 13, -3
	push r14
.LCFI37:
	.cfi_def_cfa_offset 5
	.cfi_offset 14, -4
	push r15
.LCFI38:
	.cfi_def_cfa_offset 6
	.cfi_offset 15, -5
	push r16
.LCFI39:
	.cfi_def_cfa_offset 7
	.cfi_offset 16, -6
	push r17
.LCFI40:
	.cfi_def_cfa_offset 8
	.cfi_offset 17, -7
	push r28
.LCFI41:
	.cfi_def_cfa_offset 9
	.cfi_offset 28, -8
	push r29
.LCFI42:
	.cfi_def_cfa_offset 10
	.cfi_offset 29, -9
/* prologue: function */
/* frame size = 0 */
/* stack size = 7 */
.L__stack_usage = 7
.LVL79:
.LBB92:
.LBB93:
	.loc 1 50 0
	ldi r24,lo8(ee+329)
	ldi r25,hi8(ee+329)
	call eeprom_read_byte
.LVL80:
	mov r13,r24
.LVL81:
.LBB94:
.LBB95:
	.loc 2 118 0
	ldi r18,lo8(-1)
	ldi r19,lo8(-1)
/* #APP */
 ;  118 "c:\program files (x86)\atmel\studio\7.0\toolchain\avr8\avr8-gnu-toolchain\avr\include\util\crc16.h" 1
	eor r18,r13
	mov r24,r18
	swap r24
	eor r24,r18
	mov __tmp_reg__,r24
	lsr r24
	lsr r24
	eor r24,__tmp_reg__
	mov __tmp_reg__,r24
	lsr r24
	eor r24,__tmp_reg__
	andi r24,0x07
	mov __tmp_reg__,r18
	mov r18,r19
	lsr r24
	ror __tmp_reg__
	ror r24
	mov r19,__tmp_reg__
	eor r18,r24
	lsr __tmp_reg__
	ror r24
	eor r19,__tmp_reg__
	eor r18,r24
 ;  0 "" 2
/* #NOAPP */
	movw r28,r18
.LVL82:
.LBE95:
.LBE94:
.LBE93:
.LBE92:
	.loc 1 137 0
	ldi r24,lo8(ee+394)
	ldi r25,hi8(ee+394)
	call eeprom_read_word
.LVL83:
	movw r14,r24
.LVL84:
	ldi r24,lo8(ee+330)
	ldi r25,hi8(ee+330)
.LVL85:
.L53:
.LBB96:
.LBB97:
	.loc 1 66 0
	movw r16,r24
	subi r16,-1
	sbci r17,-1
.LVL86:
	call eeprom_read_byte
.LVL87:
.LBB98:
.LBB99:
	.loc 2 118 0
	movw r18,r28
/* #APP */
 ;  118 "c:\program files (x86)\atmel\studio\7.0\toolchain\avr8\avr8-gnu-toolchain\avr\include\util\crc16.h" 1
	eor r18,r24
	mov r24,r18
	swap r24
	eor r24,r18
	mov __tmp_reg__,r24
	lsr r24
	lsr r24
	eor r24,__tmp_reg__
	mov __tmp_reg__,r24
	lsr r24
	eor r24,__tmp_reg__
	andi r24,0x07
	mov __tmp_reg__,r18
	mov r18,r19
	lsr r24
	ror __tmp_reg__
	ror r24
	mov r19,__tmp_reg__
	eor r18,r24
	lsr __tmp_reg__
	ror r24
	eor r19,__tmp_reg__
	eor r18,r24
 ;  0 "" 2
.LVL88:
/* #NOAPP */
	movw r28,r18
.LVL89:
	movw r24,r16
.LBE99:
.LBE98:
	.loc 1 65 0
	subi r16,lo8(ee+394)
	sbci r17,hi8(ee+394)
.LVL90:
	brne .L53
.LVL91:
.LBE97:
.LBE96:
	.loc 1 137 0
	cp r14,r28
	cpc r15,r29
	breq .L57
	.loc 1 143 0
	lds r24,ee_initError
	ori r24,lo8(32)
	sts ee_initError,r24
	.loc 1 144 0
	ldi r24,lo8(-1)
.L55:
/* epilogue start */
	.loc 1 146 0
	pop r29
	pop r28
.LVL92:
	pop r17
	pop r16
	pop r15
	pop r14
	pop r13
	ret
.LVL93:
.L57:
	.loc 1 139 0
	sts registerCount,r13
	.loc 1 140 0
	ldi r20,lo8(64)
	ldi r21,0
	ldi r22,lo8(ee+330)
	ldi r23,hi8(ee+330)
	ldi r24,lo8(registerMap)
	ldi r25,hi8(registerMap)
	call eeprom_read_block
.LVL94:
	.loc 1 141 0
	ldi r24,0
	rjmp .L55
	.cfi_endproc
.LFE20:
	.size	eeprom_ReadReg, .-eeprom_ReadReg
	.section	.text.eeprom_ReadProg,"ax",@progbits
.global	eeprom_ReadProg
	.type	eeprom_ReadProg, @function
eeprom_ReadProg:
.LFB21:
	.loc 1 148 0
	.cfi_startproc
	push r14
.LCFI43:
	.cfi_def_cfa_offset 4
	.cfi_offset 14, -3
	push r15
.LCFI44:
	.cfi_def_cfa_offset 5
	.cfi_offset 15, -4
	push r16
.LCFI45:
	.cfi_def_cfa_offset 6
	.cfi_offset 16, -5
	push r17
.LCFI46:
	.cfi_def_cfa_offset 7
	.cfi_offset 17, -6
	push r28
.LCFI47:
	.cfi_def_cfa_offset 8
	.cfi_offset 28, -7
	push r29
.LCFI48:
	.cfi_def_cfa_offset 9
	.cfi_offset 29, -8
/* prologue: function */
/* frame size = 0 */
/* stack size = 6 */
.L__stack_usage = 6
	.loc 1 149 0
	ldi r24,lo8(ee+909)
	ldi r25,hi8(ee+909)
	call eeprom_read_word
.LVL95:
	movw r14,r24
.LVL96:
.LBB104:
.LBB105:
	.loc 1 48 0
	ldi r28,lo8(-1)
	ldi r29,lo8(-1)
.LBE105:
.LBE104:
	.loc 1 149 0
	ldi r24,lo8(ee+397)
	ldi r25,hi8(ee+397)
.LVL97:
.L59:
.LBB109:
.LBB108:
	.loc 1 50 0
	movw r16,r24
	subi r16,-1
	sbci r17,-1
.LVL98:
	call eeprom_read_byte
.LVL99:
.LBB106:
.LBB107:
	.loc 2 118 0
	movw r18,r28
/* #APP */
 ;  118 "c:\program files (x86)\atmel\studio\7.0\toolchain\avr8\avr8-gnu-toolchain\avr\include\util\crc16.h" 1
	eor r18,r24
	mov r24,r18
	swap r24
	eor r24,r18
	mov __tmp_reg__,r24
	lsr r24
	lsr r24
	eor r24,__tmp_reg__
	mov __tmp_reg__,r24
	lsr r24
	eor r24,__tmp_reg__
	andi r24,0x07
	mov __tmp_reg__,r18
	mov r18,r19
	lsr r24
	ror __tmp_reg__
	ror r24
	mov r19,__tmp_reg__
	eor r18,r24
	lsr __tmp_reg__
	ror r24
	eor r19,__tmp_reg__
	eor r18,r24
 ;  0 "" 2
.LVL100:
/* #NOAPP */
	movw r28,r18
.LVL101:
	movw r24,r16
.LBE107:
.LBE106:
	.loc 1 49 0
	subi r16,lo8(ee+909)
	sbci r17,hi8(ee+909)
.LVL102:
	brne .L59
.LVL103:
.LBE108:
.LBE109:
	.loc 1 149 0
	cp r14,r28
	cpc r15,r29
	breq .L63
	.loc 1 154 0
	lds r24,ee_initError
	ori r24,lo8(64)
	sts ee_initError,r24
	.loc 1 155 0
	ldi r24,lo8(-1)
.L61:
/* epilogue start */
	.loc 1 157 0
	pop r29
	pop r28
	pop r17
	pop r16
	pop r15
	pop r14
	ret
.L63:
	.loc 1 151 0
	ldi r20,0
	ldi r21,lo8(2)
	ldi r22,lo8(ee+397)
	ldi r23,hi8(ee+397)
	ldi r24,lo8(programMap)
	ldi r25,hi8(programMap)
	call eeprom_read_block
.LVL104:
	.loc 1 152 0
	ldi r24,0
	rjmp .L61
	.cfi_endproc
.LFE21:
	.size	eeprom_ReadProg, .-eeprom_ReadProg
	.section	.text.eeprom_ReadSoftkeys,"ax",@progbits
.global	eeprom_ReadSoftkeys
	.type	eeprom_ReadSoftkeys, @function
eeprom_ReadSoftkeys:
.LFB22:
	.loc 1 159 0
	.cfi_startproc
	push r14
.LCFI49:
	.cfi_def_cfa_offset 4
	.cfi_offset 14, -3
	push r15
.LCFI50:
	.cfi_def_cfa_offset 5
	.cfi_offset 15, -4
	push r16
.LCFI51:
	.cfi_def_cfa_offset 6
	.cfi_offset 16, -5
	push r17
.LCFI52:
	.cfi_def_cfa_offset 7
	.cfi_offset 17, -6
	push r28
.LCFI53:
	.cfi_def_cfa_offset 8
	.cfi_offset 28, -7
	push r29
.LCFI54:
	.cfi_def_cfa_offset 9
	.cfi_offset 29, -8
/* prologue: function */
/* frame size = 0 */
/* stack size = 6 */
.L__stack_usage = 6
	.loc 1 160 0
	ldi r24,lo8(ee+920)
	ldi r25,hi8(ee+920)
	call eeprom_read_word
.LVL105:
	movw r14,r24
.LVL106:
.LBB114:
.LBB115:
	.loc 1 48 0
	ldi r28,lo8(-1)
	ldi r29,lo8(-1)
.LBE115:
.LBE114:
	.loc 1 160 0
	ldi r24,lo8(ee+912)
	ldi r25,hi8(ee+912)
.LVL107:
.L65:
.LBB119:
.LBB118:
	.loc 1 50 0
	movw r16,r24
	subi r16,-1
	sbci r17,-1
.LVL108:
	call eeprom_read_byte
.LVL109:
.LBB116:
.LBB117:
	.loc 2 118 0
	movw r18,r28
/* #APP */
 ;  118 "c:\program files (x86)\atmel\studio\7.0\toolchain\avr8\avr8-gnu-toolchain\avr\include\util\crc16.h" 1
	eor r18,r24
	mov r24,r18
	swap r24
	eor r24,r18
	mov __tmp_reg__,r24
	lsr r24
	lsr r24
	eor r24,__tmp_reg__
	mov __tmp_reg__,r24
	lsr r24
	eor r24,__tmp_reg__
	andi r24,0x07
	mov __tmp_reg__,r18
	mov r18,r19
	lsr r24
	ror __tmp_reg__
	ror r24
	mov r19,__tmp_reg__
	eor r18,r24
	lsr __tmp_reg__
	ror r24
	eor r19,__tmp_reg__
	eor r18,r24
 ;  0 "" 2
.LVL110:
/* #NOAPP */
	movw r28,r18
.LVL111:
	movw r24,r16
.LBE117:
.LBE116:
	.loc 1 49 0
	subi r16,lo8(ee+920)
	sbci r17,hi8(ee+920)
.LVL112:
	brne .L65
.LVL113:
.LBE118:
.LBE119:
	.loc 1 160 0
	cp r14,r28
	cpc r15,r29
	breq .L69
	.loc 1 165 0
	lds r24,ee_initError
	ori r24,lo8(-128)
	sts ee_initError,r24
	.loc 1 166 0
	ldi r24,lo8(-1)
.L67:
/* epilogue start */
	.loc 1 168 0
	pop r29
	pop r28
	pop r17
	pop r16
	pop r15
	pop r14
	ret
.L69:
	.loc 1 162 0
	ldi r20,lo8(8)
	ldi r21,0
	ldi r22,lo8(ee+912)
	ldi r23,hi8(ee+912)
	ldi r24,lo8(soft_Key)
	ldi r25,hi8(soft_Key)
	call eeprom_read_block
.LVL114:
	.loc 1 163 0
	ldi r24,0
	rjmp .L67
	.cfi_endproc
.LFE22:
	.size	eeprom_ReadSoftkeys, .-eeprom_ReadSoftkeys
	.section	.text.eepromWriteSignature,"ax",@progbits
.global	eepromWriteSignature
	.type	eepromWriteSignature, @function
eepromWriteSignature:
.LFB23:
	.loc 1 170 0
	.cfi_startproc
/* prologue: function */
/* frame size = 0 */
/* stack size = 0 */
.L__stack_usage = 0
	.loc 1 171 0
	ldi r22,0
	ldi r24,lo8(ee)
	ldi r25,hi8(ee)
	call eeprom_update_byte
.LVL115:
	.loc 1 172 0
	ldi r22,lo8(101)
	ldi r24,lo8(ee+922)
	ldi r25,hi8(ee+922)
	jmp eeprom_update_byte
.LVL116:
	.cfi_endproc
.LFE23:
	.size	eepromWriteSignature, .-eepromWriteSignature
	.section	.text.eeprom_UpdateManualMap,"ax",@progbits
.global	eeprom_UpdateManualMap
	.type	eeprom_UpdateManualMap, @function
eeprom_UpdateManualMap:
.LFB24:
	.loc 1 175 0
	.cfi_startproc
	push r28
.LCFI55:
	.cfi_def_cfa_offset 4
	.cfi_offset 28, -3
	push r29
.LCFI56:
	.cfi_def_cfa_offset 5
	.cfi_offset 29, -4
/* prologue: function */
/* frame size = 0 */
/* stack size = 2 */
.L__stack_usage = 2
.LVL117:
	ldi r30,lo8(manualMap)
	ldi r31,hi8(manualMap)
	ldi r18,lo8(manualMap+48)
	ldi r19,hi8(manualMap+48)
.LBB126:
.LBB127:
	.loc 1 40 0
	ldi r28,lo8(-1)
	ldi r29,lo8(-1)
.LVL118:
.L72:
	.loc 1 42 0
	ld r24,Z+
.LVL119:
.LBB128:
.LBB129:
	.loc 2 118 0
	movw r22,r28
/* #APP */
 ;  118 "c:\program files (x86)\atmel\studio\7.0\toolchain\avr8\avr8-gnu-toolchain\avr\include\util\crc16.h" 1
	eor r22,r24
	mov r24,r22
	swap r24
	eor r24,r22
	mov __tmp_reg__,r24
	lsr r24
	lsr r24
	eor r24,__tmp_reg__
	mov __tmp_reg__,r24
	lsr r24
	eor r24,__tmp_reg__
	andi r24,0x07
	mov __tmp_reg__,r22
	mov r22,r23
	lsr r24
	ror __tmp_reg__
	ror r24
	mov r23,__tmp_reg__
	eor r22,r24
	lsr __tmp_reg__
	ror r24
	eor r23,__tmp_reg__
	eor r22,r24
 ;  0 "" 2
.LVL120:
/* #NOAPP */
	movw r28,r22
.LVL121:
.LBE129:
.LBE128:
	.loc 1 41 0
	cp r18,r30
	cpc r19,r31
	brne .L72
.LVL122:
.LBE127:
.LBE126:
	.loc 1 177 0
	call lcd_waitSymbolOn
.LVL123:
	.loc 1 178 0
	ldi r22,lo8(77)
	ldi r24,lo8(ee+1)
	ldi r25,hi8(ee+1)
	call eeprom_update_byte
.LVL124:
	.loc 1 179 0
	ldi r20,lo8(48)
	ldi r21,0
	ldi r22,lo8(ee+2)
	ldi r23,hi8(ee+2)
	ldi r24,lo8(manualMap)
	ldi r25,hi8(manualMap)
	call eeprom_update_block
.LVL125:
	.loc 1 180 0
	movw r22,r28
	ldi r24,lo8(ee+50)
	ldi r25,hi8(ee+50)
	call eeprom_update_word
.LVL126:
.LBB130:
.LBB131:
	.loc 1 171 0
	ldi r22,0
	ldi r24,lo8(ee)
	ldi r25,hi8(ee)
	call eeprom_update_byte
.LVL127:
	.loc 1 172 0
	ldi r22,lo8(101)
	ldi r24,lo8(ee+922)
	ldi r25,hi8(ee+922)
	call eeprom_update_byte
.LVL128:
/* epilogue start */
.LBE131:
.LBE130:
	.loc 1 183 0
	pop r29
	pop r28
	.loc 1 182 0
	jmp lcd_waitSymbolOff
.LVL129:
	.cfi_endproc
.LFE24:
	.size	eeprom_UpdateManualMap, .-eeprom_UpdateManualMap
	.section	.text.eeprom_UpdateMidiInMap,"ax",@progbits
.global	eeprom_UpdateMidiInMap
	.type	eeprom_UpdateMidiInMap, @function
eeprom_UpdateMidiInMap:
.LFB25:
	.loc 1 185 0
	.cfi_startproc
	push r28
.LCFI57:
	.cfi_def_cfa_offset 4
	.cfi_offset 28, -3
	push r29
.LCFI58:
	.cfi_def_cfa_offset 5
	.cfi_offset 29, -4
/* prologue: function */
/* frame size = 0 */
/* stack size = 2 */
.L__stack_usage = 2
.LVL130:
	ldi r30,lo8(midiInMap)
	ldi r31,hi8(midiInMap)
	ldi r18,lo8(midiInMap+256)
	ldi r19,hi8(midiInMap+256)
.LBB138:
.LBB139:
	.loc 1 40 0
	ldi r28,lo8(-1)
	ldi r29,lo8(-1)
.LVL131:
.L75:
	.loc 1 42 0
	ld r24,Z+
.LVL132:
.LBB140:
.LBB141:
	.loc 2 118 0
	movw r22,r28
/* #APP */
 ;  118 "c:\program files (x86)\atmel\studio\7.0\toolchain\avr8\avr8-gnu-toolchain\avr\include\util\crc16.h" 1
	eor r22,r24
	mov r24,r22
	swap r24
	eor r24,r22
	mov __tmp_reg__,r24
	lsr r24
	lsr r24
	eor r24,__tmp_reg__
	mov __tmp_reg__,r24
	lsr r24
	eor r24,__tmp_reg__
	andi r24,0x07
	mov __tmp_reg__,r22
	mov r22,r23
	lsr r24
	ror __tmp_reg__
	ror r24
	mov r23,__tmp_reg__
	eor r22,r24
	lsr __tmp_reg__
	ror r24
	eor r23,__tmp_reg__
	eor r22,r24
 ;  0 "" 2
.LVL133:
/* #NOAPP */
	movw r28,r22
.LVL134:
.LBE141:
.LBE140:
	.loc 1 41 0
	cp r18,r30
	cpc r19,r31
	brne .L75
.LVL135:
.LBE139:
.LBE138:
	.loc 1 187 0
	call lcd_waitSymbolOn
.LVL136:
	.loc 1 188 0
	ldi r22,lo8(73)
	ldi r24,lo8(ee+52)
	ldi r25,hi8(ee+52)
	call eeprom_update_byte
.LVL137:
	.loc 1 189 0
	ldi r20,0
	ldi r21,lo8(1)
	ldi r22,lo8(ee+53)
	ldi r23,hi8(ee+53)
	ldi r24,lo8(midiInMap)
	ldi r25,hi8(midiInMap)
	call eeprom_update_block
.LVL138:
	.loc 1 190 0
	movw r22,r28
	ldi r24,lo8(ee+309)
	ldi r25,hi8(ee+309)
	call eeprom_update_word
.LVL139:
.LBB142:
.LBB143:
	.loc 1 171 0
	ldi r22,0
	ldi r24,lo8(ee)
	ldi r25,hi8(ee)
	call eeprom_update_byte
.LVL140:
	.loc 1 172 0
	ldi r22,lo8(101)
	ldi r24,lo8(ee+922)
	ldi r25,hi8(ee+922)
	call eeprom_update_byte
.LVL141:
/* epilogue start */
.LBE143:
.LBE142:
	.loc 1 193 0
	pop r29
	pop r28
	.loc 1 192 0
	jmp lcd_waitSymbolOff
.LVL142:
	.cfi_endproc
.LFE25:
	.size	eeprom_UpdateMidiInMap, .-eeprom_UpdateMidiInMap
	.section	.text.eeprom_UpdateMidiOutMap,"ax",@progbits
.global	eeprom_UpdateMidiOutMap
	.type	eeprom_UpdateMidiOutMap, @function
eeprom_UpdateMidiOutMap:
.LFB26:
	.loc 1 195 0
	.cfi_startproc
	push r28
.LCFI59:
	.cfi_def_cfa_offset 4
	.cfi_offset 28, -3
	push r29
.LCFI60:
	.cfi_def_cfa_offset 5
	.cfi_offset 29, -4
/* prologue: function */
/* frame size = 0 */
/* stack size = 2 */
.L__stack_usage = 2
.LVL143:
.LBB154:
.LBB155:
	.loc 1 42 0
	ldi r30,lo8(midiOutMap)
	ldi r31,hi8(midiOutMap)
.LVL144:
.LBB156:
.LBB157:
	.loc 2 118 0
	ld r24,Z
	ldi r28,lo8(-1)
	ldi r29,lo8(-1)
/* #APP */
 ;  118 "c:\program files (x86)\atmel\studio\7.0\toolchain\avr8\avr8-gnu-toolchain\avr\include\util\crc16.h" 1
	eor r28,r24
	mov r24,r28
	swap r24
	eor r24,r28
	mov __tmp_reg__,r24
	lsr r24
	lsr r24
	eor r24,__tmp_reg__
	mov __tmp_reg__,r24
	lsr r24
	eor r24,__tmp_reg__
	andi r24,0x07
	mov __tmp_reg__,r28
	mov r28,r29
	lsr r24
	ror __tmp_reg__
	ror r24
	mov r29,__tmp_reg__
	eor r28,r24
	lsr __tmp_reg__
	ror r24
	eor r29,__tmp_reg__
	eor r28,r24
 ;  0 "" 2
.LVL145:
/* #NOAPP */
	ldd r24,Z+1
/* #APP */
 ;  118 "c:\program files (x86)\atmel\studio\7.0\toolchain\avr8\avr8-gnu-toolchain\avr\include\util\crc16.h" 1
	eor r28,r24
	mov r24,r28
	swap r24
	eor r24,r28
	mov __tmp_reg__,r24
	lsr r24
	lsr r24
	eor r24,__tmp_reg__
	mov __tmp_reg__,r24
	lsr r24
	eor r24,__tmp_reg__
	andi r24,0x07
	mov __tmp_reg__,r28
	mov r28,r29
	lsr r24
	ror __tmp_reg__
	ror r24
	mov r29,__tmp_reg__
	eor r28,r24
	lsr __tmp_reg__
	ror r24
	eor r29,__tmp_reg__
	eor r28,r24
 ;  0 "" 2
.LVL146:
/* #NOAPP */
	ldd r24,Z+2
/* #APP */
 ;  118 "c:\program files (x86)\atmel\studio\7.0\toolchain\avr8\avr8-gnu-toolchain\avr\include\util\crc16.h" 1
	eor r28,r24
	mov r24,r28
	swap r24
	eor r24,r28
	mov __tmp_reg__,r24
	lsr r24
	lsr r24
	eor r24,__tmp_reg__
	mov __tmp_reg__,r24
	lsr r24
	eor r24,__tmp_reg__
	andi r24,0x07
	mov __tmp_reg__,r28
	mov r28,r29
	lsr r24
	ror __tmp_reg__
	ror r24
	mov r29,__tmp_reg__
	eor r28,r24
	lsr __tmp_reg__
	ror r24
	eor r29,__tmp_reg__
	eor r28,r24
 ;  0 "" 2
.LVL147:
/* #NOAPP */
	ldd r24,Z+3
/* #APP */
 ;  118 "c:\program files (x86)\atmel\studio\7.0\toolchain\avr8\avr8-gnu-toolchain\avr\include\util\crc16.h" 1
	eor r28,r24
	mov r24,r28
	swap r24
	eor r24,r28
	mov __tmp_reg__,r24
	lsr r24
	lsr r24
	eor r24,__tmp_reg__
	mov __tmp_reg__,r24
	lsr r24
	eor r24,__tmp_reg__
	andi r24,0x07
	mov __tmp_reg__,r28
	mov r28,r29
	lsr r24
	ror __tmp_reg__
	ror r24
	mov r29,__tmp_reg__
	eor r28,r24
	lsr __tmp_reg__
	ror r24
	eor r29,__tmp_reg__
	eor r28,r24
 ;  0 "" 2
.LVL148:
/* #NOAPP */
.LBE157:
.LBE156:
.LBE155:
.LBE154:
.LBB158:
.LBB159:
.LBB160:
.LBB161:
	lds r24,midi_TxActivceSense
/* #APP */
 ;  118 "c:\program files (x86)\atmel\studio\7.0\toolchain\avr8\avr8-gnu-toolchain\avr\include\util\crc16.h" 1
	eor r28,r24
	mov r24,r28
	swap r24
	eor r24,r28
	mov __tmp_reg__,r24
	lsr r24
	lsr r24
	eor r24,__tmp_reg__
	mov __tmp_reg__,r24
	lsr r24
	eor r24,__tmp_reg__
	andi r24,0x07
	mov __tmp_reg__,r28
	mov r28,r29
	lsr r24
	ror __tmp_reg__
	ror r24
	mov r29,__tmp_reg__
	eor r28,r24
	lsr __tmp_reg__
	ror r24
	eor r29,__tmp_reg__
	eor r28,r24
 ;  0 "" 2
.LVL149:
/* #NOAPP */
.LBE161:
.LBE160:
.LBE159:
.LBE158:
	.loc 1 198 0
	call lcd_waitSymbolOn
.LVL150:
	.loc 1 199 0
	ldi r22,lo8(79)
	ldi r24,lo8(ee+311)
	ldi r25,hi8(ee+311)
	call eeprom_update_byte
.LVL151:
	.loc 1 200 0
	ldi r20,lo8(4)
	ldi r21,0
	ldi r22,lo8(ee+312)
	ldi r23,hi8(ee+312)
	ldi r24,lo8(midiOutMap)
	ldi r25,hi8(midiOutMap)
	call eeprom_update_block
.LVL152:
	.loc 1 201 0
	lds r22,midi_TxActivceSense
	ldi r24,lo8(ee+316)
	ldi r25,hi8(ee+316)
	call eeprom_update_byte
.LVL153:
	.loc 1 202 0
	movw r22,r28
	ldi r24,lo8(ee+317)
	ldi r25,hi8(ee+317)
	call eeprom_update_word
.LVL154:
.LBB162:
.LBB163:
	.loc 1 171 0
	ldi r22,0
	ldi r24,lo8(ee)
	ldi r25,hi8(ee)
	call eeprom_update_byte
.LVL155:
	.loc 1 172 0
	ldi r22,lo8(101)
	ldi r24,lo8(ee+922)
	ldi r25,hi8(ee+922)
	call eeprom_update_byte
.LVL156:
/* epilogue start */
.LBE163:
.LBE162:
	.loc 1 205 0
	pop r29
	pop r28
.LVL157:
	.loc 1 204 0
	jmp lcd_waitSymbolOff
.LVL158:
	.cfi_endproc
.LFE26:
	.size	eeprom_UpdateMidiOutMap, .-eeprom_UpdateMidiOutMap
	.section	.text.eeprom_UpdateModules,"ax",@progbits
.global	eeprom_UpdateModules
	.type	eeprom_UpdateModules, @function
eeprom_UpdateModules:
.LFB27:
	.loc 1 207 0
	.cfi_startproc
	push r28
.LCFI61:
	.cfi_def_cfa_offset 4
	.cfi_offset 28, -3
	push r29
.LCFI62:
	.cfi_def_cfa_offset 5
	.cfi_offset 29, -4
/* prologue: function */
/* frame size = 0 */
/* stack size = 2 */
.L__stack_usage = 2
.LVL159:
.LBB172:
.LBB173:
.LBB174:
.LBB175:
	.loc 2 118 0
	lds r24,pipe_ModuleAssnRead
	ldi r28,lo8(-1)
	ldi r29,lo8(-1)
/* #APP */
 ;  118 "c:\program files (x86)\atmel\studio\7.0\toolchain\avr8\avr8-gnu-toolchain\avr\include\util\crc16.h" 1
	eor r28,r24
	mov r24,r28
	swap r24
	eor r24,r28
	mov __tmp_reg__,r24
	lsr r24
	lsr r24
	eor r24,__tmp_reg__
	mov __tmp_reg__,r24
	lsr r24
	eor r24,__tmp_reg__
	andi r24,0x07
	mov __tmp_reg__,r28
	mov r28,r29
	lsr r24
	ror __tmp_reg__
	ror r24
	mov r29,__tmp_reg__
	eor r28,r24
	lsr __tmp_reg__
	ror r24
	eor r29,__tmp_reg__
	eor r28,r24
 ;  0 "" 2
.LVL160:
/* #NOAPP */
.LBE175:
.LBE174:
.LBE173:
.LBE172:
	.loc 1 209 0
	call lcd_waitSymbolOn
.LVL161:
	.loc 1 210 0
	ldi r22,lo8(105)
	ldi r24,lo8(ee+319)
	ldi r25,hi8(ee+319)
	call eeprom_update_byte
.LVL162:
	.loc 1 211 0
	lds r22,pipe_ModuleAssnRead
	ldi r24,lo8(ee+320)
	ldi r25,hi8(ee+320)
	call eeprom_update_byte
.LVL163:
	.loc 1 212 0
	lds r22,pipe_ModuleAssnWrite
	ldi r24,lo8(ee+321)
	ldi r25,hi8(ee+321)
	call eeprom_update_byte
.LVL164:
	.loc 1 213 0
	movw r22,r28
	ldi r24,lo8(ee+322)
	ldi r25,hi8(ee+322)
	call eeprom_update_word
.LVL165:
.LBB176:
.LBB177:
	.loc 1 171 0
	ldi r22,0
	ldi r24,lo8(ee)
	ldi r25,hi8(ee)
	call eeprom_update_byte
.LVL166:
	.loc 1 172 0
	ldi r22,lo8(101)
	ldi r24,lo8(ee+922)
	ldi r25,hi8(ee+922)
	call eeprom_update_byte
.LVL167:
/* epilogue start */
.LBE177:
.LBE176:
	.loc 1 216 0
	pop r29
	pop r28
	.loc 1 215 0
	jmp lcd_waitSymbolOff
.LVL168:
	.cfi_endproc
.LFE27:
	.size	eeprom_UpdateModules, .-eeprom_UpdateModules
	.section	.text.eeprom_UpdateUSB,"ax",@progbits
.global	eeprom_UpdateUSB
	.type	eeprom_UpdateUSB, @function
eeprom_UpdateUSB:
.LFB28:
	.loc 1 218 0
	.cfi_startproc
	push r28
.LCFI63:
	.cfi_def_cfa_offset 4
	.cfi_offset 28, -3
	push r29
.LCFI64:
	.cfi_def_cfa_offset 5
	.cfi_offset 29, -4
/* prologue: function */
/* frame size = 0 */
/* stack size = 2 */
.L__stack_usage = 2
.LVL169:
.LBB186:
.LBB187:
.LBB188:
.LBB189:
	.loc 2 118 0
	lds r24,serusb_Active
	ldi r28,lo8(-1)
	ldi r29,lo8(-1)
/* #APP */
 ;  118 "c:\program files (x86)\atmel\studio\7.0\toolchain\avr8\avr8-gnu-toolchain\avr\include\util\crc16.h" 1
	eor r28,r24
	mov r24,r28
	swap r24
	eor r24,r28
	mov __tmp_reg__,r24
	lsr r24
	lsr r24
	eor r24,__tmp_reg__
	mov __tmp_reg__,r24
	lsr r24
	eor r24,__tmp_reg__
	andi r24,0x07
	mov __tmp_reg__,r28
	mov r28,r29
	lsr r24
	ror __tmp_reg__
	ror r24
	mov r29,__tmp_reg__
	eor r28,r24
	lsr __tmp_reg__
	ror r24
	eor r29,__tmp_reg__
	eor r28,r24
 ;  0 "" 2
.LVL170:
/* #NOAPP */
.LBE189:
.LBE188:
.LBE187:
.LBE186:
	.loc 1 220 0
	call lcd_waitSymbolOn
.LVL171:
	.loc 1 221 0
	ldi r22,lo8(85)
	ldi r24,lo8(ee+324)
	ldi r25,hi8(ee+324)
	call eeprom_update_byte
.LVL172:
	.loc 1 222 0
	lds r22,serusb_Active
	ldi r24,lo8(ee+325)
	ldi r25,hi8(ee+325)
	call eeprom_update_byte
.LVL173:
	.loc 1 223 0
	movw r22,r28
	ldi r24,lo8(ee+326)
	ldi r25,hi8(ee+326)
	call eeprom_update_word
.LVL174:
.LBB190:
.LBB191:
	.loc 1 171 0
	ldi r22,0
	ldi r24,lo8(ee)
	ldi r25,hi8(ee)
	call eeprom_update_byte
.LVL175:
	.loc 1 172 0
	ldi r22,lo8(101)
	ldi r24,lo8(ee+922)
	ldi r25,hi8(ee+922)
	call eeprom_update_byte
.LVL176:
/* epilogue start */
.LBE191:
.LBE190:
	.loc 1 226 0
	pop r29
	pop r28
	.loc 1 225 0
	jmp lcd_waitSymbolOff
.LVL177:
	.cfi_endproc
.LFE28:
	.size	eeprom_UpdateUSB, .-eeprom_UpdateUSB
	.section	.text.eeprom_UpdateReg,"ax",@progbits
.global	eeprom_UpdateReg
	.type	eeprom_UpdateReg, @function
eeprom_UpdateReg:
.LFB29:
	.loc 1 228 0
	.cfi_startproc
	push r28
.LCFI65:
	.cfi_def_cfa_offset 4
	.cfi_offset 28, -3
	push r29
.LCFI66:
	.cfi_def_cfa_offset 5
	.cfi_offset 29, -4
/* prologue: function */
/* frame size = 0 */
/* stack size = 2 */
.L__stack_usage = 2
.LVL178:
.LBB202:
.LBB203:
.LBB204:
.LBB205:
	.loc 2 118 0
	lds r24,registerCount
	ldi r22,lo8(-1)
	ldi r23,lo8(-1)
/* #APP */
 ;  118 "c:\program files (x86)\atmel\studio\7.0\toolchain\avr8\avr8-gnu-toolchain\avr\include\util\crc16.h" 1
	eor r22,r24
	mov r24,r22
	swap r24
	eor r24,r22
	mov __tmp_reg__,r24
	lsr r24
	lsr r24
	eor r24,__tmp_reg__
	mov __tmp_reg__,r24
	lsr r24
	eor r24,__tmp_reg__
	andi r24,0x07
	mov __tmp_reg__,r22
	mov r22,r23
	lsr r24
	ror __tmp_reg__
	ror r24
	mov r23,__tmp_reg__
	eor r22,r24
	lsr __tmp_reg__
	ror r24
	eor r23,__tmp_reg__
	eor r22,r24
 ;  0 "" 2
/* #NOAPP */
	movw r28,r22
.LVL179:
	ldi r30,lo8(registerMap)
	ldi r31,hi8(registerMap)
	ldi r18,lo8(registerMap+64)
	ldi r19,hi8(registerMap+64)
.LVL180:
.L81:
.LBE205:
.LBE204:
.LBE203:
.LBE202:
.LBB206:
.LBB207:
	.loc 1 58 0
	ld r24,Z+
.LVL181:
.LBB208:
.LBB209:
	.loc 2 118 0
	movw r22,r28
/* #APP */
 ;  118 "c:\program files (x86)\atmel\studio\7.0\toolchain\avr8\avr8-gnu-toolchain\avr\include\util\crc16.h" 1
	eor r22,r24
	mov r24,r22
	swap r24
	eor r24,r22
	mov __tmp_reg__,r24
	lsr r24
	lsr r24
	eor r24,__tmp_reg__
	mov __tmp_reg__,r24
	lsr r24
	eor r24,__tmp_reg__
	andi r24,0x07
	mov __tmp_reg__,r22
	mov r22,r23
	lsr r24
	ror __tmp_reg__
	ror r24
	mov r23,__tmp_reg__
	eor r22,r24
	lsr __tmp_reg__
	ror r24
	eor r23,__tmp_reg__
	eor r22,r24
 ;  0 "" 2
.LVL182:
/* #NOAPP */
	movw r28,r22
.LVL183:
.LBE209:
.LBE208:
	.loc 1 57 0
	cp r18,r30
	cpc r19,r31
	brne .L81
.LVL184:
.LBE207:
.LBE206:
	.loc 1 231 0
	call lcd_waitSymbolOn
.LVL185:
	.loc 1 232 0
	ldi r22,lo8(82)
	ldi r24,lo8(ee+328)
	ldi r25,hi8(ee+328)
	call eeprom_update_byte
.LVL186:
	.loc 1 233 0
	lds r22,registerCount
	ldi r24,lo8(ee+329)
	ldi r25,hi8(ee+329)
	call eeprom_update_byte
.LVL187:
	.loc 1 234 0
	ldi r20,lo8(64)
	ldi r21,0
	ldi r22,lo8(ee+330)
	ldi r23,hi8(ee+330)
	ldi r24,lo8(registerMap)
	ldi r25,hi8(registerMap)
	call eeprom_update_block
.LVL188:
	.loc 1 235 0
	movw r22,r28
	ldi r24,lo8(ee+394)
	ldi r25,hi8(ee+394)
	call eeprom_update_word
.LVL189:
.LBB210:
.LBB211:
	.loc 1 171 0
	ldi r22,0
	ldi r24,lo8(ee)
	ldi r25,hi8(ee)
	call eeprom_update_byte
.LVL190:
	.loc 1 172 0
	ldi r22,lo8(101)
	ldi r24,lo8(ee+922)
	ldi r25,hi8(ee+922)
	call eeprom_update_byte
.LVL191:
/* epilogue start */
.LBE211:
.LBE210:
	.loc 1 238 0
	pop r29
	pop r28
.LVL192:
	.loc 1 237 0
	jmp lcd_waitSymbolOff
.LVL193:
	.cfi_endproc
.LFE29:
	.size	eeprom_UpdateReg, .-eeprom_UpdateReg
	.section	.text.eeprom_UpdateProg,"ax",@progbits
.global	eeprom_UpdateProg
	.type	eeprom_UpdateProg, @function
eeprom_UpdateProg:
.LFB30:
	.loc 1 240 0
	.cfi_startproc
	push r28
.LCFI67:
	.cfi_def_cfa_offset 4
	.cfi_offset 28, -3
	push r29
.LCFI68:
	.cfi_def_cfa_offset 5
	.cfi_offset 29, -4
/* prologue: function */
/* frame size = 0 */
/* stack size = 2 */
.L__stack_usage = 2
.LVL194:
	ldi r30,lo8(programMap)
	ldi r31,hi8(programMap)
	ldi r18,lo8(programMap+512)
	ldi r19,hi8(programMap+512)
.LBB218:
.LBB219:
	.loc 1 40 0
	ldi r28,lo8(-1)
	ldi r29,lo8(-1)
.LVL195:
.L84:
	.loc 1 42 0
	ld r24,Z+
.LVL196:
.LBB220:
.LBB221:
	.loc 2 118 0
	movw r22,r28
/* #APP */
 ;  118 "c:\program files (x86)\atmel\studio\7.0\toolchain\avr8\avr8-gnu-toolchain\avr\include\util\crc16.h" 1
	eor r22,r24
	mov r24,r22
	swap r24
	eor r24,r22
	mov __tmp_reg__,r24
	lsr r24
	lsr r24
	eor r24,__tmp_reg__
	mov __tmp_reg__,r24
	lsr r24
	eor r24,__tmp_reg__
	andi r24,0x07
	mov __tmp_reg__,r22
	mov r22,r23
	lsr r24
	ror __tmp_reg__
	ror r24
	mov r23,__tmp_reg__
	eor r22,r24
	lsr __tmp_reg__
	ror r24
	eor r23,__tmp_reg__
	eor r22,r24
 ;  0 "" 2
.LVL197:
/* #NOAPP */
	movw r28,r22
.LVL198:
.LBE221:
.LBE220:
	.loc 1 41 0
	cp r18,r30
	cpc r19,r31
	brne .L84
.LVL199:
.LBE219:
.LBE218:
	.loc 1 242 0
	call lcd_waitSymbolOn
.LVL200:
	.loc 1 243 0
	ldi r22,lo8(80)
	ldi r24,lo8(ee+396)
	ldi r25,hi8(ee+396)
	call eeprom_update_byte
.LVL201:
	.loc 1 244 0
	ldi r20,0
	ldi r21,lo8(2)
	ldi r22,lo8(ee+397)
	ldi r23,hi8(ee+397)
	ldi r24,lo8(programMap)
	ldi r25,hi8(programMap)
	call eeprom_update_block
.LVL202:
	.loc 1 245 0
	movw r22,r28
	ldi r24,lo8(ee+909)
	ldi r25,hi8(ee+909)
	call eeprom_update_word
.LVL203:
.LBB222:
.LBB223:
	.loc 1 171 0
	ldi r22,0
	ldi r24,lo8(ee)
	ldi r25,hi8(ee)
	call eeprom_update_byte
.LVL204:
	.loc 1 172 0
	ldi r22,lo8(101)
	ldi r24,lo8(ee+922)
	ldi r25,hi8(ee+922)
	call eeprom_update_byte
.LVL205:
/* epilogue start */
.LBE223:
.LBE222:
	.loc 1 248 0
	pop r29
	pop r28
	.loc 1 247 0
	jmp lcd_waitSymbolOff
.LVL206:
	.cfi_endproc
.LFE30:
	.size	eeprom_UpdateProg, .-eeprom_UpdateProg
	.section	.text.eeprom_UpdateSoftkeys,"ax",@progbits
.global	eeprom_UpdateSoftkeys
	.type	eeprom_UpdateSoftkeys, @function
eeprom_UpdateSoftkeys:
.LFB31:
	.loc 1 250 0
	.cfi_startproc
	push r28
.LCFI69:
	.cfi_def_cfa_offset 4
	.cfi_offset 28, -3
	push r29
.LCFI70:
	.cfi_def_cfa_offset 5
	.cfi_offset 29, -4
/* prologue: function */
/* frame size = 0 */
/* stack size = 2 */
.L__stack_usage = 2
.LVL207:
.LBB232:
.LBB233:
	.loc 1 42 0
	ldi r30,lo8(soft_Key)
	ldi r31,hi8(soft_Key)
.LVL208:
.LBB234:
.LBB235:
	.loc 2 118 0
	ld r24,Z
	ldi r28,lo8(-1)
	ldi r29,lo8(-1)
/* #APP */
 ;  118 "c:\program files (x86)\atmel\studio\7.0\toolchain\avr8\avr8-gnu-toolchain\avr\include\util\crc16.h" 1
	eor r28,r24
	mov r24,r28
	swap r24
	eor r24,r28
	mov __tmp_reg__,r24
	lsr r24
	lsr r24
	eor r24,__tmp_reg__
	mov __tmp_reg__,r24
	lsr r24
	eor r24,__tmp_reg__
	andi r24,0x07
	mov __tmp_reg__,r28
	mov r28,r29
	lsr r24
	ror __tmp_reg__
	ror r24
	mov r29,__tmp_reg__
	eor r28,r24
	lsr __tmp_reg__
	ror r24
	eor r29,__tmp_reg__
	eor r28,r24
 ;  0 "" 2
.LVL209:
/* #NOAPP */
	ldd r24,Z+1
/* #APP */
 ;  118 "c:\program files (x86)\atmel\studio\7.0\toolchain\avr8\avr8-gnu-toolchain\avr\include\util\crc16.h" 1
	eor r28,r24
	mov r24,r28
	swap r24
	eor r24,r28
	mov __tmp_reg__,r24
	lsr r24
	lsr r24
	eor r24,__tmp_reg__
	mov __tmp_reg__,r24
	lsr r24
	eor r24,__tmp_reg__
	andi r24,0x07
	mov __tmp_reg__,r28
	mov r28,r29
	lsr r24
	ror __tmp_reg__
	ror r24
	mov r29,__tmp_reg__
	eor r28,r24
	lsr __tmp_reg__
	ror r24
	eor r29,__tmp_reg__
	eor r28,r24
 ;  0 "" 2
.LVL210:
/* #NOAPP */
	ldd r24,Z+2
/* #APP */
 ;  118 "c:\program files (x86)\atmel\studio\7.0\toolchain\avr8\avr8-gnu-toolchain\avr\include\util\crc16.h" 1
	eor r28,r24
	mov r24,r28
	swap r24
	eor r24,r28
	mov __tmp_reg__,r24
	lsr r24
	lsr r24
	eor r24,__tmp_reg__
	mov __tmp_reg__,r24
	lsr r24
	eor r24,__tmp_reg__
	andi r24,0x07
	mov __tmp_reg__,r28
	mov r28,r29
	lsr r24
	ror __tmp_reg__
	ror r24
	mov r29,__tmp_reg__
	eor r28,r24
	lsr __tmp_reg__
	ror r24
	eor r29,__tmp_reg__
	eor r28,r24
 ;  0 "" 2
.LVL211:
/* #NOAPP */
	ldd r24,Z+3
/* #APP */
 ;  118 "c:\program files (x86)\atmel\studio\7.0\toolchain\avr8\avr8-gnu-toolchain\avr\include\util\crc16.h" 1
	eor r28,r24
	mov r24,r28
	swap r24
	eor r24,r28
	mov __tmp_reg__,r24
	lsr r24
	lsr r24
	eor r24,__tmp_reg__
	mov __tmp_reg__,r24
	lsr r24
	eor r24,__tmp_reg__
	andi r24,0x07
	mov __tmp_reg__,r28
	mov r28,r29
	lsr r24
	ror __tmp_reg__
	ror r24
	mov r29,__tmp_reg__
	eor r28,r24
	lsr __tmp_reg__
	ror r24
	eor r29,__tmp_reg__
	eor r28,r24
 ;  0 "" 2
.LVL212:
/* #NOAPP */
	ldd r24,Z+4
/* #APP */
 ;  118 "c:\program files (x86)\atmel\studio\7.0\toolchain\avr8\avr8-gnu-toolchain\avr\include\util\crc16.h" 1
	eor r28,r24
	mov r24,r28
	swap r24
	eor r24,r28
	mov __tmp_reg__,r24
	lsr r24
	lsr r24
	eor r24,__tmp_reg__
	mov __tmp_reg__,r24
	lsr r24
	eor r24,__tmp_reg__
	andi r24,0x07
	mov __tmp_reg__,r28
	mov r28,r29
	lsr r24
	ror __tmp_reg__
	ror r24
	mov r29,__tmp_reg__
	eor r28,r24
	lsr __tmp_reg__
	ror r24
	eor r29,__tmp_reg__
	eor r28,r24
 ;  0 "" 2
.LVL213:
/* #NOAPP */
	ldd r24,Z+5
/* #APP */
 ;  118 "c:\program files (x86)\atmel\studio\7.0\toolchain\avr8\avr8-gnu-toolchain\avr\include\util\crc16.h" 1
	eor r28,r24
	mov r24,r28
	swap r24
	eor r24,r28
	mov __tmp_reg__,r24
	lsr r24
	lsr r24
	eor r24,__tmp_reg__
	mov __tmp_reg__,r24
	lsr r24
	eor r24,__tmp_reg__
	andi r24,0x07
	mov __tmp_reg__,r28
	mov r28,r29
	lsr r24
	ror __tmp_reg__
	ror r24
	mov r29,__tmp_reg__
	eor r28,r24
	lsr __tmp_reg__
	ror r24
	eor r29,__tmp_reg__
	eor r28,r24
 ;  0 "" 2
.LVL214:
/* #NOAPP */
	ldd r24,Z+6
/* #APP */
 ;  118 "c:\program files (x86)\atmel\studio\7.0\toolchain\avr8\avr8-gnu-toolchain\avr\include\util\crc16.h" 1
	eor r28,r24
	mov r24,r28
	swap r24
	eor r24,r28
	mov __tmp_reg__,r24
	lsr r24
	lsr r24
	eor r24,__tmp_reg__
	mov __tmp_reg__,r24
	lsr r24
	eor r24,__tmp_reg__
	andi r24,0x07
	mov __tmp_reg__,r28
	mov r28,r29
	lsr r24
	ror __tmp_reg__
	ror r24
	mov r29,__tmp_reg__
	eor r28,r24
	lsr __tmp_reg__
	ror r24
	eor r29,__tmp_reg__
	eor r28,r24
 ;  0 "" 2
.LVL215:
/* #NOAPP */
	ldd r24,Z+7
/* #APP */
 ;  118 "c:\program files (x86)\atmel\studio\7.0\toolchain\avr8\avr8-gnu-toolchain\avr\include\util\crc16.h" 1
	eor r28,r24
	mov r24,r28
	swap r24
	eor r24,r28
	mov __tmp_reg__,r24
	lsr r24
	lsr r24
	eor r24,__tmp_reg__
	mov __tmp_reg__,r24
	lsr r24
	eor r24,__tmp_reg__
	andi r24,0x07
	mov __tmp_reg__,r28
	mov r28,r29
	lsr r24
	ror __tmp_reg__
	ror r24
	mov r29,__tmp_reg__
	eor r28,r24
	lsr __tmp_reg__
	ror r24
	eor r29,__tmp_reg__
	eor r28,r24
 ;  0 "" 2
.LVL216:
/* #NOAPP */
.LBE235:
.LBE234:
.LBE233:
.LBE232:
	.loc 1 252 0
	call lcd_waitSymbolOn
.LVL217:
	.loc 1 253 0
	ldi r22,lo8(75)
	ldi r24,lo8(ee+911)
	ldi r25,hi8(ee+911)
	call eeprom_update_byte
.LVL218:
	.loc 1 254 0
	ldi r20,lo8(8)
	ldi r21,0
	ldi r22,lo8(ee+912)
	ldi r23,hi8(ee+912)
	ldi r24,lo8(soft_Key)
	ldi r25,hi8(soft_Key)
	call eeprom_update_block
.LVL219:
	.loc 1 255 0
	movw r22,r28
	ldi r24,lo8(ee+920)
	ldi r25,hi8(ee+920)
	call eeprom_update_word
.LVL220:
.LBB236:
.LBB237:
	.loc 1 171 0
	ldi r22,0
	ldi r24,lo8(ee)
	ldi r25,hi8(ee)
	call eeprom_update_byte
.LVL221:
	.loc 1 172 0
	ldi r22,lo8(101)
	ldi r24,lo8(ee+922)
	ldi r25,hi8(ee+922)
	call eeprom_update_byte
.LVL222:
/* epilogue start */
.LBE237:
.LBE236:
	.loc 1 258 0
	pop r29
	pop r28
	.loc 1 257 0
	jmp lcd_waitSymbolOff
.LVL223:
	.cfi_endproc
.LFE31:
	.size	eeprom_UpdateSoftkeys, .-eeprom_UpdateSoftkeys
	.section	.text.eeprom_UpdateALL,"ax",@progbits
.global	eeprom_UpdateALL
	.type	eeprom_UpdateALL, @function
eeprom_UpdateALL:
.LFB32:
	.loc 1 260 0
	.cfi_startproc
	push r16
.LCFI71:
	.cfi_def_cfa_offset 4
	.cfi_offset 16, -3
	push r17
.LCFI72:
	.cfi_def_cfa_offset 5
	.cfi_offset 17, -4
	push r28
.LCFI73:
	.cfi_def_cfa_offset 6
	.cfi_offset 28, -5
	push r29
.LCFI74:
	.cfi_def_cfa_offset 7
	.cfi_offset 29, -6
/* prologue: function */
/* frame size = 0 */
/* stack size = 4 */
.L__stack_usage = 4
	.loc 1 261 0
	call eeprom_UpdateManualMap
.LVL224:
	.loc 1 262 0
	call eeprom_UpdateMidiInMap
.LVL225:
	.loc 1 263 0
	call eeprom_UpdateMidiOutMap
.LVL226:
.LBB262:
.LBB263:
.LBB264:
.LBB265:
.LBB266:
.LBB267:
	.loc 2 118 0
	lds r24,pipe_ModuleAssnRead
	ldi r28,lo8(-1)
	ldi r29,lo8(-1)
	movw r16,r28
/* #APP */
 ;  118 "c:\program files (x86)\atmel\studio\7.0\toolchain\avr8\avr8-gnu-toolchain\avr\include\util\crc16.h" 1
	eor r16,r24
	mov r24,r16
	swap r24
	eor r24,r16
	mov __tmp_reg__,r24
	lsr r24
	lsr r24
	eor r24,__tmp_reg__
	mov __tmp_reg__,r24
	lsr r24
	eor r24,__tmp_reg__
	andi r24,0x07
	mov __tmp_reg__,r16
	mov r16,r17
	lsr r24
	ror __tmp_reg__
	ror r24
	mov r17,__tmp_reg__
	eor r16,r24
	lsr __tmp_reg__
	ror r24
	eor r17,__tmp_reg__
	eor r16,r24
 ;  0 "" 2
.LVL227:
/* #NOAPP */
.LBE267:
.LBE266:
.LBE265:
.LBE264:
	.loc 1 209 0
	call lcd_waitSymbolOn
.LVL228:
	.loc 1 210 0
	ldi r22,lo8(105)
	ldi r24,lo8(ee+319)
	ldi r25,hi8(ee+319)
	call eeprom_update_byte
.LVL229:
	.loc 1 211 0
	lds r22,pipe_ModuleAssnRead
	ldi r24,lo8(ee+320)
	ldi r25,hi8(ee+320)
	call eeprom_update_byte
.LVL230:
	.loc 1 212 0
	lds r22,pipe_ModuleAssnWrite
	ldi r24,lo8(ee+321)
	ldi r25,hi8(ee+321)
	call eeprom_update_byte
.LVL231:
	.loc 1 213 0
	movw r22,r16
	ldi r24,lo8(ee+322)
	ldi r25,hi8(ee+322)
	call eeprom_update_word
.LVL232:
.LBB268:
.LBB269:
	.loc 1 171 0
	ldi r22,0
	ldi r24,lo8(ee)
	ldi r25,hi8(ee)
	call eeprom_update_byte
.LVL233:
	.loc 1 172 0
	ldi r22,lo8(101)
	ldi r24,lo8(ee+922)
	ldi r25,hi8(ee+922)
	call eeprom_update_byte
.LVL234:
.LBE269:
.LBE268:
	.loc 1 215 0
	call lcd_waitSymbolOff
.LVL235:
.LBE263:
.LBE262:
.LBB270:
.LBB271:
.LBB272:
.LBB273:
.LBB274:
.LBB275:
	.loc 2 118 0
	lds r24,serusb_Active
	movw r16,r28
/* #APP */
 ;  118 "c:\program files (x86)\atmel\studio\7.0\toolchain\avr8\avr8-gnu-toolchain\avr\include\util\crc16.h" 1
	eor r16,r24
	mov r24,r16
	swap r24
	eor r24,r16
	mov __tmp_reg__,r24
	lsr r24
	lsr r24
	eor r24,__tmp_reg__
	mov __tmp_reg__,r24
	lsr r24
	eor r24,__tmp_reg__
	andi r24,0x07
	mov __tmp_reg__,r16
	mov r16,r17
	lsr r24
	ror __tmp_reg__
	ror r24
	mov r17,__tmp_reg__
	eor r16,r24
	lsr __tmp_reg__
	ror r24
	eor r17,__tmp_reg__
	eor r16,r24
 ;  0 "" 2
.LVL236:
/* #NOAPP */
.LBE275:
.LBE274:
.LBE273:
.LBE272:
	.loc 1 220 0
	call lcd_waitSymbolOn
.LVL237:
	.loc 1 221 0
	ldi r22,lo8(85)
	ldi r24,lo8(ee+324)
	ldi r25,hi8(ee+324)
	call eeprom_update_byte
.LVL238:
	.loc 1 222 0
	lds r22,serusb_Active
	ldi r24,lo8(ee+325)
	ldi r25,hi8(ee+325)
	call eeprom_update_byte
.LVL239:
	.loc 1 223 0
	movw r22,r16
	ldi r24,lo8(ee+326)
	ldi r25,hi8(ee+326)
	call eeprom_update_word
.LVL240:
.LBB276:
.LBB277:
	.loc 1 171 0
	ldi r22,0
	ldi r24,lo8(ee)
	ldi r25,hi8(ee)
	call eeprom_update_byte
.LVL241:
	.loc 1 172 0
	ldi r22,lo8(101)
	ldi r24,lo8(ee+922)
	ldi r25,hi8(ee+922)
	call eeprom_update_byte
.LVL242:
.LBE277:
.LBE276:
	.loc 1 225 0
	call lcd_waitSymbolOff
.LVL243:
.LBE271:
.LBE270:
	.loc 1 266 0
	call eeprom_UpdateReg
.LVL244:
	.loc 1 267 0
	call eeprom_UpdateProg
.LVL245:
.LBB278:
.LBB279:
.LBB280:
.LBB281:
	.loc 1 42 0
	ldi r30,lo8(soft_Key)
	ldi r31,hi8(soft_Key)
.LVL246:
.LBB282:
.LBB283:
	.loc 2 118 0
	ld r24,Z
/* #APP */
 ;  118 "c:\program files (x86)\atmel\studio\7.0\toolchain\avr8\avr8-gnu-toolchain\avr\include\util\crc16.h" 1
	eor r28,r24
	mov r24,r28
	swap r24
	eor r24,r28
	mov __tmp_reg__,r24
	lsr r24
	lsr r24
	eor r24,__tmp_reg__
	mov __tmp_reg__,r24
	lsr r24
	eor r24,__tmp_reg__
	andi r24,0x07
	mov __tmp_reg__,r28
	mov r28,r29
	lsr r24
	ror __tmp_reg__
	ror r24
	mov r29,__tmp_reg__
	eor r28,r24
	lsr __tmp_reg__
	ror r24
	eor r29,__tmp_reg__
	eor r28,r24
 ;  0 "" 2
.LVL247:
/* #NOAPP */
	ldd r24,Z+1
/* #APP */
 ;  118 "c:\program files (x86)\atmel\studio\7.0\toolchain\avr8\avr8-gnu-toolchain\avr\include\util\crc16.h" 1
	eor r28,r24
	mov r24,r28
	swap r24
	eor r24,r28
	mov __tmp_reg__,r24
	lsr r24
	lsr r24
	eor r24,__tmp_reg__
	mov __tmp_reg__,r24
	lsr r24
	eor r24,__tmp_reg__
	andi r24,0x07
	mov __tmp_reg__,r28
	mov r28,r29
	lsr r24
	ror __tmp_reg__
	ror r24
	mov r29,__tmp_reg__
	eor r28,r24
	lsr __tmp_reg__
	ror r24
	eor r29,__tmp_reg__
	eor r28,r24
 ;  0 "" 2
.LVL248:
/* #NOAPP */
	ldd r24,Z+2
/* #APP */
 ;  118 "c:\program files (x86)\atmel\studio\7.0\toolchain\avr8\avr8-gnu-toolchain\avr\include\util\crc16.h" 1
	eor r28,r24
	mov r24,r28
	swap r24
	eor r24,r28
	mov __tmp_reg__,r24
	lsr r24
	lsr r24
	eor r24,__tmp_reg__
	mov __tmp_reg__,r24
	lsr r24
	eor r24,__tmp_reg__
	andi r24,0x07
	mov __tmp_reg__,r28
	mov r28,r29
	lsr r24
	ror __tmp_reg__
	ror r24
	mov r29,__tmp_reg__
	eor r28,r24
	lsr __tmp_reg__
	ror r24
	eor r29,__tmp_reg__
	eor r28,r24
 ;  0 "" 2
.LVL249:
/* #NOAPP */
	ldd r24,Z+3
/* #APP */
 ;  118 "c:\program files (x86)\atmel\studio\7.0\toolchain\avr8\avr8-gnu-toolchain\avr\include\util\crc16.h" 1
	eor r28,r24
	mov r24,r28
	swap r24
	eor r24,r28
	mov __tmp_reg__,r24
	lsr r24
	lsr r24
	eor r24,__tmp_reg__
	mov __tmp_reg__,r24
	lsr r24
	eor r24,__tmp_reg__
	andi r24,0x07
	mov __tmp_reg__,r28
	mov r28,r29
	lsr r24
	ror __tmp_reg__
	ror r24
	mov r29,__tmp_reg__
	eor r28,r24
	lsr __tmp_reg__
	ror r24
	eor r29,__tmp_reg__
	eor r28,r24
 ;  0 "" 2
.LVL250:
/* #NOAPP */
	ldd r24,Z+4
/* #APP */
 ;  118 "c:\program files (x86)\atmel\studio\7.0\toolchain\avr8\avr8-gnu-toolchain\avr\include\util\crc16.h" 1
	eor r28,r24
	mov r24,r28
	swap r24
	eor r24,r28
	mov __tmp_reg__,r24
	lsr r24
	lsr r24
	eor r24,__tmp_reg__
	mov __tmp_reg__,r24
	lsr r24
	eor r24,__tmp_reg__
	andi r24,0x07
	mov __tmp_reg__,r28
	mov r28,r29
	lsr r24
	ror __tmp_reg__
	ror r24
	mov r29,__tmp_reg__
	eor r28,r24
	lsr __tmp_reg__
	ror r24
	eor r29,__tmp_reg__
	eor r28,r24
 ;  0 "" 2
.LVL251:
/* #NOAPP */
	ldd r24,Z+5
/* #APP */
 ;  118 "c:\program files (x86)\atmel\studio\7.0\toolchain\avr8\avr8-gnu-toolchain\avr\include\util\crc16.h" 1
	eor r28,r24
	mov r24,r28
	swap r24
	eor r24,r28
	mov __tmp_reg__,r24
	lsr r24
	lsr r24
	eor r24,__tmp_reg__
	mov __tmp_reg__,r24
	lsr r24
	eor r24,__tmp_reg__
	andi r24,0x07
	mov __tmp_reg__,r28
	mov r28,r29
	lsr r24
	ror __tmp_reg__
	ror r24
	mov r29,__tmp_reg__
	eor r28,r24
	lsr __tmp_reg__
	ror r24
	eor r29,__tmp_reg__
	eor r28,r24
 ;  0 "" 2
.LVL252:
/* #NOAPP */
	ldd r24,Z+6
/* #APP */
 ;  118 "c:\program files (x86)\atmel\studio\7.0\toolchain\avr8\avr8-gnu-toolchain\avr\include\util\crc16.h" 1
	eor r28,r24
	mov r24,r28
	swap r24
	eor r24,r28
	mov __tmp_reg__,r24
	lsr r24
	lsr r24
	eor r24,__tmp_reg__
	mov __tmp_reg__,r24
	lsr r24
	eor r24,__tmp_reg__
	andi r24,0x07
	mov __tmp_reg__,r28
	mov r28,r29
	lsr r24
	ror __tmp_reg__
	ror r24
	mov r29,__tmp_reg__
	eor r28,r24
	lsr __tmp_reg__
	ror r24
	eor r29,__tmp_reg__
	eor r28,r24
 ;  0 "" 2
.LVL253:
/* #NOAPP */
	ldd r24,Z+7
/* #APP */
 ;  118 "c:\program files (x86)\atmel\studio\7.0\toolchain\avr8\avr8-gnu-toolchain\avr\include\util\crc16.h" 1
	eor r28,r24
	mov r24,r28
	swap r24
	eor r24,r28
	mov __tmp_reg__,r24
	lsr r24
	lsr r24
	eor r24,__tmp_reg__
	mov __tmp_reg__,r24
	lsr r24
	eor r24,__tmp_reg__
	andi r24,0x07
	mov __tmp_reg__,r28
	mov r28,r29
	lsr r24
	ror __tmp_reg__
	ror r24
	mov r29,__tmp_reg__
	eor r28,r24
	lsr __tmp_reg__
	ror r24
	eor r29,__tmp_reg__
	eor r28,r24
 ;  0 "" 2
.LVL254:
/* #NOAPP */
.LBE283:
.LBE282:
.LBE281:
.LBE280:
	.loc 1 252 0
	call lcd_waitSymbolOn
.LVL255:
	.loc 1 253 0
	ldi r22,lo8(75)
	ldi r24,lo8(ee+911)
	ldi r25,hi8(ee+911)
	call eeprom_update_byte
.LVL256:
	.loc 1 254 0
	ldi r20,lo8(8)
	ldi r21,0
	ldi r22,lo8(ee+912)
	ldi r23,hi8(ee+912)
	ldi r24,lo8(soft_Key)
	ldi r25,hi8(soft_Key)
	call eeprom_update_block
.LVL257:
	.loc 1 255 0
	movw r22,r28
	ldi r24,lo8(ee+920)
	ldi r25,hi8(ee+920)
	call eeprom_update_word
.LVL258:
.LBB284:
.LBB285:
	.loc 1 171 0
	ldi r22,0
	ldi r24,lo8(ee)
	ldi r25,hi8(ee)
	call eeprom_update_byte
.LVL259:
	.loc 1 172 0
	ldi r22,lo8(101)
	ldi r24,lo8(ee+922)
	ldi r25,hi8(ee+922)
	call eeprom_update_byte
.LVL260:
/* epilogue start */
.LBE285:
.LBE284:
.LBE279:
.LBE278:
	.loc 1 269 0
	pop r29
	pop r28
	pop r17
	pop r16
.LBB287:
.LBB286:
	.loc 1 257 0
	jmp lcd_waitSymbolOff
.LVL261:
.LBE286:
.LBE287:
	.cfi_endproc
.LFE32:
	.size	eeprom_UpdateALL, .-eeprom_UpdateALL
	.section	.text.eepromCopy,"ax",@progbits
.global	eepromCopy
	.type	eepromCopy, @function
eepromCopy:
.LFB33:
	.loc 1 272 0
	.cfi_startproc
.LVL262:
	push r12
.LCFI75:
	.cfi_def_cfa_offset 4
	.cfi_offset 12, -3
	push r13
.LCFI76:
	.cfi_def_cfa_offset 5
	.cfi_offset 13, -4
	push r14
.LCFI77:
	.cfi_def_cfa_offset 6
	.cfi_offset 14, -5
	push r15
.LCFI78:
	.cfi_def_cfa_offset 7
	.cfi_offset 15, -6
	push r16
.LCFI79:
	.cfi_def_cfa_offset 8
	.cfi_offset 16, -7
	push r17
.LCFI80:
	.cfi_def_cfa_offset 9
	.cfi_offset 17, -8
	push r28
.LCFI81:
	.cfi_def_cfa_offset 10
	.cfi_offset 28, -9
	push r29
.LCFI82:
	.cfi_def_cfa_offset 11
	.cfi_offset 29, -10
/* prologue: function */
/* frame size = 0 */
/* stack size = 8 */
.L__stack_usage = 8
	movw r16,r22
.LVL263:
	.loc 1 273 0
	cp r20,__zero_reg__
	cpc r21,__zero_reg__
	breq .L88
	movw r28,r20
.LVL264:
.L90:
	.loc 1 274 0
	movw r12,r24
	ldi r18,-1
	sub r12,r18
	sbc r13,r18
.LVL265:
	call eeprom_read_byte
.LVL266:
	movw r14,r16
	ldi r25,-1
	sub r14,r25
	sbc r15,r25
.LVL267:
	mov r22,r24
	movw r24,r16
	call eeprom_update_byte
.LVL268:
	sbiw r28,1
.LVL269:
	movw r24,r12
	movw r16,r14
	.loc 1 273 0
	brne .L90
.LVL270:
.L88:
/* epilogue start */
	.loc 1 276 0
	pop r29
	pop r28
	pop r17
	pop r16
.LVL271:
	pop r15
	pop r14
	pop r13
	pop r12
	ret
	.cfi_endproc
.LFE33:
	.size	eepromCopy, .-eepromCopy
	.section	.text.eeprom_Backup,"ax",@progbits
.global	eeprom_Backup
	.type	eeprom_Backup, @function
eeprom_Backup:
.LFB34:
	.loc 1 278 0
	.cfi_startproc
	push r16
.LCFI83:
	.cfi_def_cfa_offset 4
	.cfi_offset 16, -3
	push r17
.LCFI84:
	.cfi_def_cfa_offset 5
	.cfi_offset 17, -4
	push r28
.LCFI85:
	.cfi_def_cfa_offset 6
	.cfi_offset 28, -5
	push r29
.LCFI86:
	.cfi_def_cfa_offset 7
	.cfi_offset 29, -6
/* prologue: function */
/* frame size = 0 */
/* stack size = 4 */
.L__stack_usage = 4
	.loc 1 279 0
	call lcd_waitSymbolOn
.LVL272:
	ldi r28,lo8(ee)
	ldi r29,hi8(ee)
.LVL273:
.L94:
.LBB290:
.LBB291:
	.loc 1 274 0
	movw r16,r28
	subi r16,-1
	sbci r17,-1
.LVL274:
	movw r24,r28
	call eeprom_read_byte
.LVL275:
	mov r22,r24
	movw r24,r28
	subi r25,-4
	call eeprom_update_byte
.LVL276:
	movw r28,r16
	.loc 1 273 0
	subi r16,lo8(ee+1024)
	sbci r17,hi8(ee+1024)
	brne .L94
.LVL277:
/* epilogue start */
.LBE291:
.LBE290:
	.loc 1 282 0
	pop r29
	pop r28
	pop r17
	pop r16
	.loc 1 281 0
	jmp lcd_waitSymbolOff
.LVL278:
	.cfi_endproc
.LFE34:
	.size	eeprom_Backup, .-eeprom_Backup
	.section	.text.eeprom_Restore,"ax",@progbits
.global	eeprom_Restore
	.type	eeprom_Restore, @function
eeprom_Restore:
.LFB35:
	.loc 1 284 0
	.cfi_startproc
	push r16
.LCFI87:
	.cfi_def_cfa_offset 4
	.cfi_offset 16, -3
	push r17
.LCFI88:
	.cfi_def_cfa_offset 5
	.cfi_offset 17, -4
	push r28
.LCFI89:
	.cfi_def_cfa_offset 6
	.cfi_offset 28, -5
	push r29
.LCFI90:
	.cfi_def_cfa_offset 7
	.cfi_offset 29, -6
/* prologue: function */
/* frame size = 0 */
/* stack size = 4 */
.L__stack_usage = 4
	.loc 1 285 0
	call lcd_waitSymbolOn
.LVL279:
	ldi r28,lo8(ee+1024)
	ldi r29,hi8(ee+1024)
.LVL280:
.L97:
.LBB294:
.LBB295:
	.loc 1 274 0
	movw r16,r28
	subi r16,-1
	sbci r17,-1
.LVL281:
	movw r24,r28
	call eeprom_read_byte
.LVL282:
	mov r22,r24
	movw r24,r28
	subi r25,4
	call eeprom_update_byte
.LVL283:
	movw r28,r16
	.loc 1 273 0
	subi r16,lo8(ee+2048)
	sbci r17,hi8(ee+2048)
	brne .L97
.LVL284:
/* epilogue start */
.LBE295:
.LBE294:
	.loc 1 288 0
	pop r29
	pop r28
	pop r17
	pop r16
	.loc 1 287 0
	jmp lcd_waitSymbolOff
.LVL285:
	.cfi_endproc
.LFE35:
	.size	eeprom_Restore, .-eeprom_Restore
.global	ee_initError
	.section	.bss.ee_initError,"aw",@nobits
	.type	ee_initError, @object
	.size	ee_initError, 1
ee_initError:
	.zero	1
.global	ee
	.section	.eeprom,"aw",@progbits
	.type	ee, @object
	.size	ee, 2048
ee:
	.zero	2048
	.comm	lcdData,10,1
	.text
.Letext0:
	.file 3 "c:\\program files (x86)\\atmel\\studio\\7.0\\toolchain\\avr8\\avr8-gnu-toolchain\\avr\\include\\stdint.h"
	.file 4 ".././Midi.h"
	.file 5 ".././menu.h"
	.file 6 ".././ee_prom.h"
	.file 7 ".././hwtimer.h"
	.file 8 ".././serial.h"
	.file 9 "c:\\program files (x86)\\atmel\\studio\\7.0\\toolchain\\avr8\\avr8-gnu-toolchain\\avr\\include\\avr\\eeprom.h"
	.file 10 ".././utils.h"