	.file	"hd44780.c"
__SP_H__ = 0x3e
__SP_L__ = 0x3d
__SREG__ = 0x3f
__RAMPZ__ = 0x3b
__tmp_reg__ = 0
__zero_reg__ = 1
	.text
.Ltext0:
	.cfi_sections	.debug_frame
	.section	.text.lcd_write,"ax",@progbits
	.type	lcd_write, @function
lcd_write:
.LFB5:
	.file 1 ".././hd44780.c"
	.loc 1 394 0
	.cfi_startproc
.LVL0:
/* prologue: function */
/* frame size = 0 */
/* stack size = 0 */
.L__stack_usage = 0
	.loc 1 404 0
	tst r22
	breq .L2
	.loc 1 406 0
	ldi r30,lo8(2)
	ldi r31,lo8(1)
	ld r25,Z
	ori r25,lo8(32)
	st Z,r25
	rjmp .L3
.L2:
	.loc 1 413 0
	ldi r30,lo8(2)
	ldi r31,lo8(1)
	ld r25,Z
	andi r25,lo8(-33)
	st Z,r25
.L3:
	.loc 1 420 0
	tst r24
	brge .L4
	.loc 1 420 0 discriminator 1
	ldi r30,lo8(2)
	ldi r31,lo8(1)
	ld r25,Z
	ori r25,lo8(16)
	st Z,r25
	rjmp .L5
.L4:
	.loc 1 420 0 discriminator 2
	ldi r30,lo8(2)
	ldi r31,lo8(1)
	ld r25,Z
	andi r25,lo8(-17)
	st Z,r25
.L5:
	.loc 1 421 0
	sbrs r24,6
	rjmp .L6
	.loc 1 421 0 discriminator 1
	ldi r30,lo8(2)
	ldi r31,lo8(1)
	ld r25,Z
	ori r25,lo8(8)
	st Z,r25
	rjmp .L7
.L6:
	.loc 1 421 0 discriminator 2
	ldi r30,lo8(2)
	ldi r31,lo8(1)
	ld r25,Z
	andi r25,lo8(-9)
	st Z,r25
.L7:
	.loc 1 422 0
	sbrs r24,5
	rjmp .L8
	.loc 1 422 0 discriminator 1
	in r25,0xe
	ori r25,lo8(8)
	out 0xe,r25
	rjmp .L9
.L8:
	.loc 1 422 0 discriminator 2
	in r25,0xe
	andi r25,lo8(-9)
	out 0xe,r25
.L9:
	.loc 1 423 0
	sbrs r24,4
	rjmp .L10
	.loc 1 423 0 discriminator 1
	in r25,0x14
	ori r25,lo8(32)
	out 0x14,r25
	rjmp .L11
.L10:
	.loc 1 423 0 discriminator 2
	in r25,0x14
	andi r25,lo8(-33)
	out 0x14,r25
.L11:
	.loc 1 425 0 discriminator 1
	rjmp .
.LBB38:
.LBB39:
	.loc 1 195 0 discriminator 1
	ldi r30,lo8(2)
	ldi r31,lo8(1)
	ld r25,Z
	ori r25,lo8(64)
	st Z,r25
.LBE39:
.LBE38:
	.loc 1 428 0 discriminator 1
	ldi r25,lo8(2)
1:	dec r25
	brne 1b
	rjmp .
.LBB40:
.LBB41:
	.loc 1 172 0 discriminator 1
	ld r25,Z
	andi r25,lo8(-65)
	st Z,r25
.LBE41:
.LBE40:
	.loc 1 431 0 discriminator 1
	sbrs r24,3
	rjmp .L12
	.loc 1 431 0 discriminator 1
	ld r25,Z
	ori r25,lo8(16)
	st Z,r25
	rjmp .L13
.L12:
	.loc 1 431 0 discriminator 2
	ldi r30,lo8(2)
	ldi r31,lo8(1)
	ld r25,Z
	andi r25,lo8(-17)
	st Z,r25
.L13:
	.loc 1 432 0
	sbrs r24,2
	rjmp .L14
	.loc 1 432 0 discriminator 1
	ldi r30,lo8(2)
	ldi r31,lo8(1)
	ld r25,Z
	ori r25,lo8(8)
	st Z,r25
	rjmp .L15
.L14:
	.loc 1 432 0 discriminator 2
	ldi r30,lo8(2)
	ldi r31,lo8(1)
	ld r25,Z
	andi r25,lo8(-9)
	st Z,r25
.L15:
	.loc 1 433 0
	sbrs r24,1
	rjmp .L16
	.loc 1 433 0 discriminator 1
	in r25,0xe
	ori r25,lo8(8)
	out 0xe,r25
	rjmp .L17
.L16:
	.loc 1 433 0 discriminator 2
	in r25,0xe
	andi r25,lo8(-9)
	out 0xe,r25
.L17:
	.loc 1 434 0
	sbrs r24,0
	rjmp .L18
	.loc 1 434 0 discriminator 1
	in r25,0x14
	ori r25,lo8(32)
	out 0x14,r25
	rjmp .L19
.L18:
	.loc 1 434 0 discriminator 2
	in r25,0x14
	andi r25,lo8(-33)
	out 0x14,r25
.L19:
	.loc 1 436 0 discriminator 1
	rjmp .
.LBB42:
.LBB43:
	.loc 1 195 0 discriminator 1
	ldi r30,lo8(2)
	ldi r31,lo8(1)
	ld r25,Z
	ori r25,lo8(64)
	st Z,r25
.LBE43:
.LBE42:
	.loc 1 439 0 discriminator 1
	ldi r25,lo8(2)
1:	dec r25
	brne 1b
	rjmp .
.LBB44:
.LBB45:
	.loc 1 172 0 discriminator 1
	ld r25,Z
	andi r25,lo8(-65)
	st Z,r25
.LBE45:
.LBE44:
	.loc 1 442 0 discriminator 1
	ld r25,Z
	ori r25,lo8(16)
	st Z,r25
	.loc 1 443 0 discriminator 1
	ld r25,Z
	ori r25,lo8(8)
	st Z,r25
	.loc 1 444 0 discriminator 1
	in r25,0xe
	ori r25,lo8(8)
	out 0xe,r25
	.loc 1 445 0 discriminator 1
	in r25,0x14
	ori r25,lo8(32)
	out 0x14,r25
	.loc 1 473 0 discriminator 1
	cpse r22,__zero_reg__
	rjmp .L20
	cpi r24,lo8(4)
	brsh .L20
	.loc 1 474 0 discriminator 2
	ldi r24,lo8(6559)
	ldi r25,hi8(6559)
1:	sbiw r24,1
	brne 1b
.LVL1:
	rjmp .
	nop
	ret
.LVL2:
.L20:
	.loc 1 475 0 discriminator 2
	ldi r25,lo8(-43)
1:	dec r25
	brne 1b
	nop
	ret
	.cfi_endproc
.LFE5:
	.size	lcd_write, .-lcd_write
	.section	.text.lcd_command,"ax",@progbits
.global	lcd_command
	.type	lcd_command, @function
lcd_command:
.LFB6:
	.loc 1 485 0
	.cfi_startproc
.LVL3:
/* prologue: function */
/* frame size = 0 */
/* stack size = 0 */
.L__stack_usage = 0
	.loc 1 486 0
	ldi r22,0
	call lcd_write
.LVL4:
	ret
	.cfi_endproc
.LFE6:
	.size	lcd_command, .-lcd_command
	.section	.text.lcd_goto,"ax",@progbits
.global	lcd_goto
	.type	lcd_goto, @function
lcd_goto:
.LFB7:
	.loc 1 495 0
	.cfi_startproc
.LVL5:
/* prologue: function */
/* frame size = 0 */
/* stack size = 0 */
.L__stack_usage = 0
	.loc 1 496 0
	sts lcd_cursorPos,r24
	.loc 1 497 0
	subi r24,lo8(-(-128))
.LVL6:
	call lcd_command
.LVL7:
	ret
	.cfi_endproc
.LFE7:
	.size	lcd_goto, .-lcd_goto
	.section	.text.lcd_clrscr,"ax",@progbits
.global	lcd_clrscr
	.type	lcd_clrscr, @function
lcd_clrscr:
.LFB8:
	.loc 1 507 0
	.cfi_startproc
/* prologue: function */
/* frame size = 0 */
/* stack size = 0 */
.L__stack_usage = 0
	.loc 1 508 0
	sts lcd_cursorPos,__zero_reg__
	.loc 1 509 0
	ldi r24,lo8(1)
	call lcd_command
.LVL8:
	ret
	.cfi_endproc
.LFE8:
	.size	lcd_clrscr, .-lcd_clrscr
	.section	.text.lcd_home,"ax",@progbits
.global	lcd_home
	.type	lcd_home, @function
lcd_home:
.LFB9:
	.loc 1 519 0
	.cfi_startproc
/* prologue: function */
/* frame size = 0 */
/* stack size = 0 */
.L__stack_usage = 0
	.loc 1 520 0
	sts lcd_cursorPos,__zero_reg__
	.loc 1 521 0
	ldi r24,lo8(2)
	call lcd_command
.LVL9:
	ret
	.cfi_endproc
.LFE9:
	.size	lcd_home, .-lcd_home
	.section	.text.lcd_putc,"ax",@progbits
.global	lcd_putc
	.type	lcd_putc, @function
lcd_putc:
.LFB10:
	.loc 1 531 0
	.cfi_startproc
.LVL10:
/* prologue: function */
/* frame size = 0 */
/* stack size = 0 */
.L__stack_usage = 0
	.loc 1 532 0
	lds r25,lcd_cursorPos
	subi r25,lo8(-(1))
	andi r25,lo8(63)
	sts lcd_cursorPos,r25
	.loc 1 533 0
	ldi r22,lo8(1)
	call lcd_write
.LVL11:
	ret
	.cfi_endproc
.LFE10:
	.size	lcd_putc, .-lcd_putc
	.section	.text.lcd_puts,"ax",@progbits
.global	lcd_puts
	.type	lcd_puts, @function
lcd_puts:
.LFB11:
	.loc 1 543 0
	.cfi_startproc
.LVL12:
	push r28
.LCFI0:
	.cfi_def_cfa_offset 4
	.cfi_offset 28, -3
	push r29
.LCFI1:
	.cfi_def_cfa_offset 5
	.cfi_offset 29, -4
/* prologue: function */
/* frame size = 0 */
/* stack size = 2 */
.L__stack_usage = 2
	movw r30,r24
	.loc 1 546 0
	rjmp .L28
.LVL13:
.L29:
	.loc 1 547 0
	call lcd_putc
.LVL14:
	.loc 1 546 0
	movw r30,r28
.LVL15:
.L28:
	movw r28,r30
	adiw r28,1
.LVL16:
	ld r24,Z
.LVL17:
	cpse r24,__zero_reg__
	rjmp .L29
/* epilogue start */
	.loc 1 548 0
	pop r29
	pop r28
.LVL18:
	ret
	.cfi_endproc
.LFE11:
	.size	lcd_puts, .-lcd_puts
	.section	.text.lcd_puts_P,"ax",@progbits
.global	lcd_puts_P
	.type	lcd_puts_P, @function
lcd_puts_P:
.LFB12:
	.loc 1 557 0
	.cfi_startproc
.LVL19:
	push r28
.LCFI2:
	.cfi_def_cfa_offset 4
	.cfi_offset 28, -3
	push r29
.LCFI3:
	.cfi_def_cfa_offset 5
	.cfi_offset 29, -4
/* prologue: function */
/* frame size = 0 */
/* stack size = 2 */
.L__stack_usage = 2
	movw r30,r24
	.loc 1 560 0
	rjmp .L31
.LVL20:
.L32:
	.loc 1 561 0
	call lcd_putc
.LVL21:
.LBB46:
	.loc 1 560 0
	movw r30,r28
.LVL22:
.L31:
	movw r28,r30
	adiw r28,1
.LVL23:
	.loc 1 560 0
/* #APP */
 ;  560 ".././hd44780.c" 1
	lpm r24, Z
	
 ;  0 "" 2
.LVL24:
/* #NOAPP */
.LBE46:
	.loc 1 560 0
	cpse r24,__zero_reg__
	rjmp .L32
/* epilogue start */
	.loc 1 562 0
	pop r29
	pop r28
.LVL25:
	ret
	.cfi_endproc
.LFE12:
	.size	lcd_puts_P, .-lcd_puts_P
	.section	.text.lcd_init,"ax",@progbits
.global	lcd_init
	.type	lcd_init, @function
lcd_init:
.LFB13:
	.loc 1 570 0
	.cfi_startproc
/* prologue: function */
/* frame size = 0 */
/* stack size = 0 */
.L__stack_usage = 0
.LBB47:
.LBB48:
	.loc 1 241 0
	ldi r30,lo8(1)
	ldi r31,lo8(1)
	ld r24,Z
	ori r24,lo8(64)
	st Z,r24
.LBE48:
.LBE47:
	.loc 1 573 0
	ld r24,Z
	ori r24,lo8(32)
	st Z,r24
	.loc 1 577 0
	ld r24,Z
	ori r24,lo8(16)
	st Z,r24
	.loc 1 578 0
	ld r24,Z
	ori r24,lo8(8)
	st Z,r24
	.loc 1 579 0
	in r24,0xd
	ori r24,lo8(8)
	out 0xd,r24
	.loc 1 580 0
	in r24,0x13
	ori r24,lo8(32)
	out 0x13,r24
.LBB49:
.LBB50:
	.loc 1 172 0
	ldi r30,lo8(2)
	ldi r31,lo8(1)
	ld r24,Z
	andi r24,lo8(-65)
	st Z,r24
.LBE50:
.LBE49:
	.loc 1 590 0
	ld r24,Z
	andi r24,lo8(-33)
	st Z,r24
	.loc 1 596 0
	ld r24,Z
	ori r24,lo8(16)
	st Z,r24
	.loc 1 597 0
	ld r24,Z
	ori r24,lo8(8)
	st Z,r24
	.loc 1 598 0
	in r24,0xe
	ori r24,lo8(8)
	out 0xe,r24
	.loc 1 599 0
	in r24,0x14
	ori r24,lo8(32)
	out 0x14,r24
	.loc 1 608 0
	ldi r24,lo8(-5537)
	ldi r25,hi8(-5537)
1:	sbiw r24,1
	brne 1b
	rjmp .
	nop
	.loc 1 611 0
	ld r24,Z
	andi r24,lo8(-17)
	st Z,r24
	.loc 1 612 0
	ld r24,Z
	andi r24,lo8(-9)
	st Z,r24
	.loc 1 613 0
	rjmp .
.LBB51:
.LBB52:
	.loc 1 195 0
	ld r24,Z
	ori r24,lo8(64)
	st Z,r24
.LBE52:
.LBE51:
	.loc 1 615 0
	ldi r25,lo8(2)
1:	dec r25
	brne 1b
	rjmp .
.LBB53:
.LBB54:
	.loc 1 172 0
	ld r24,Z
	andi r24,lo8(-65)
	st Z,r24
.LBE54:
.LBE53:
	.loc 1 618 0
	ldi r24,lo8(16399)
	ldi r25,hi8(16399)
1:	sbiw r24,1
	brne 1b
	rjmp .
	nop
.LBB55:
.LBB56:
	.loc 1 195 0
	ld r24,Z
	ori r24,lo8(64)
	st Z,r24
.LBE56:
.LBE55:
	.loc 1 621 0
	ldi r25,lo8(2)
1:	dec r25
	brne 1b
	rjmp .
.LBB57:
.LBB58:
	.loc 1 172 0
	ld r24,Z
	andi r24,lo8(-65)
	st Z,r24
.LBE58:
.LBE57:
	.loc 1 624 0
	ldi r24,lo8(399)
	ldi r25,hi8(399)
1:	sbiw r24,1
	brne 1b
	rjmp .
	nop
.LBB59:
.LBB60:
	.loc 1 195 0
	ld r24,Z
	ori r24,lo8(64)
	st Z,r24
.LBE60:
.LBE59:
	.loc 1 627 0
	ldi r25,lo8(2)
1:	dec r25
	brne 1b
	rjmp .
.LBB61:
.LBB62:
	.loc 1 172 0
	ld r24,Z
	andi r24,lo8(-65)
	st Z,r24
.LBE62:
.LBE61:
	.loc 1 630 0
	ldi r24,lo8(-43)
1:	dec r24
	brne 1b
	nop
	.loc 1 634 0
	in r24,0x14
	andi r24,lo8(-33)
	out 0x14,r24
	.loc 1 635 0
	rjmp .
.LBB63:
.LBB64:
	.loc 1 195 0
	ld r24,Z
	ori r24,lo8(64)
	st Z,r24
.LBE64:
.LBE63:
	.loc 1 637 0
	ldi r25,lo8(2)
1:	dec r25
	brne 1b
	rjmp .
.LBB65:
.LBB66:
	.loc 1 172 0
	ld r24,Z
	andi r24,lo8(-65)
	st Z,r24
.LBE66:
.LBE65:
	.loc 1 639 0
	ldi r24,lo8(-43)
1:	dec r24
	brne 1b
	nop
	.loc 1 641 0
	in r24,0x14
	andi r24,lo8(-33)
	out 0x14,r24
	.loc 1 642 0
	rjmp .
.LBB67:
.LBB68:
	.loc 1 195 0
	ld r24,Z
	ori r24,lo8(64)
	st Z,r24
.LBE68:
.LBE67:
	.loc 1 644 0
	ldi r25,lo8(2)
1:	dec r25
	brne 1b
	rjmp .
.LBB69:
.LBB70:
	.loc 1 172 0
	ld r24,Z
	andi r24,lo8(-65)
	st Z,r24
.LBE70:
.LBE69:
	.loc 1 646 0
	ldi r24,lo8(2)
1:	dec r24
	brne 1b
	rjmp .
	.loc 1 650 0
	ld r24,Z
	ori r24,lo8(16)
	st Z,r24
	.loc 1 668 0
	rjmp .
.LBB71:
.LBB72:
	.loc 1 195 0
	ld r24,Z
	ori r24,lo8(64)
	st Z,r24
.LBE72:
.LBE71:
	.loc 1 670 0
	ldi r25,lo8(2)
1:	dec r25
	brne 1b
	rjmp .
.LBB73:
.LBB74:
	.loc 1 172 0
	ld r24,Z
	andi r24,lo8(-65)
	st Z,r24
.LBE74:
.LBE73:
	.loc 1 672 0
	ldi r24,lo8(-43)
1:	dec r24
	brne 1b
	nop
	.loc 1 703 0
	ldi r24,lo8(8)
	call lcd_command
.LVL26:
	.loc 1 706 0
	call lcd_clrscr
.LVL27:
	.loc 1 709 0
	ldi r24,lo8(6)
	call lcd_command
.LVL28:
	.loc 1 712 0
	ldi r24,lo8(12)
	call lcd_command
.LVL29:
	ret
	.cfi_endproc
.LFE13:
	.size	lcd_init, .-lcd_init
	.comm	lcd_cursorPos,1,1
	.text
.Letext0:
	.file 2 "c:\\program files (x86)\\atmel\\studio\\7.0\\toolchain\\avr8\\avr8-gnu-toolchain\\avr\\include\\stdint.h"