	.file	"hwtimer.c"
__SP_H__ = 0x3e
__SP_L__ = 0x3d
__SREG__ = 0x3f
__RAMPZ__ = 0x3b
__tmp_reg__ = 0
__zero_reg__ = 1
	.text
.Ltext0:
	.cfi_sections	.debug_frame
	.section	.text.init_Timers,"ax",@progbits
.global	init_Timers
	.type	init_Timers, @function
init_Timers:
.LFB17:
	.file 1 ".././hwtimer.c"
	.loc 1 41 0
	.cfi_startproc
/* prologue: function */
/* frame size = 0 */
/* stack size = 0 */
.L__stack_usage = 0
.LVL0:
.LBB61:
	.loc 1 43 0
	ldi r30,lo8(swTimer)
	ldi r31,hi8(swTimer)
	ldi r24,lo8(-1)
	st Z,r24
	.loc 1 44 0
	std Z+1,__zero_reg__
.LVL1:
	.loc 1 43 0
	std Z+2,r24
	.loc 1 44 0
	std Z+3,__zero_reg__
.LVL2:
	.loc 1 43 0
	std Z+4,r24
	.loc 1 44 0
	std Z+5,__zero_reg__
.LVL3:
	.loc 1 43 0
	std Z+6,r24
	.loc 1 44 0
	std Z+7,__zero_reg__
.LVL4:
	.loc 1 43 0
	std Z+8,r24
	.loc 1 44 0
	std Z+9,__zero_reg__
.LVL5:
	.loc 1 43 0
	std Z+10,r24
	.loc 1 44 0
	std Z+11,__zero_reg__
.LVL6:
	.loc 1 43 0
	std Z+12,r24
	.loc 1 44 0
	std Z+13,__zero_reg__
.LVL7:
	.loc 1 43 0
	std Z+14,r24
	.loc 1 44 0
	std Z+15,__zero_reg__
.LVL8:
	.loc 1 43 0
	std Z+16,r24
	.loc 1 44 0
	std Z+17,__zero_reg__
.LVL9:
.LBE61:
	.loc 1 46 0
	ldi r30,lo8(time_Uptime)
	ldi r31,hi8(time_Uptime)
	st Z,__zero_reg__
	.loc 1 47 0
	std Z+1,__zero_reg__
	.loc 1 48 0
	std Z+2,__zero_reg__
	.loc 1 49 0
	std Z+3,__zero_reg__
	.loc 1 50 0
	sts time_UpTimeUpdated,r24
	ret
	.cfi_endproc
.LFE17:
	.size	init_Timers, .-init_Timers
	.section	.text.init_HwTimer,"ax",@progbits
.global	init_HwTimer
	.type	init_HwTimer, @function
init_HwTimer:
.LFB18:
	.loc 1 53 0
	.cfi_startproc
/* prologue: function */
/* frame size = 0 */
/* stack size = 0 */
.L__stack_usage = 0
	.loc 1 54 0
	ldi r24,lo8(2)
	out 0x24,r24
	.loc 1 55 0
	ldi r25,lo8(3)
	out 0x25,r25
	.loc 1 56 0
	sts 110,r24
	.loc 1 57 0
	ldi r24,lo8(-7)
	out 0x27,r24
	.loc 1 58 0
	cbi 0x5,7
	.loc 1 59 0
	sbi 0x4,7
	ret
	.cfi_endproc
.LFE18:
	.size	init_HwTimer, .-init_HwTimer
	.section	.text.init_ADC,"ax",@progbits
.global	init_ADC
	.type	init_ADC, @function
init_ADC:
.LFB19:
	.loc 1 62 0
	.cfi_startproc
/* prologue: function */
/* frame size = 0 */
/* stack size = 0 */
.L__stack_usage = 0
	.loc 1 64 0
	ldi r24,lo8(-121)
	sts 122,r24
	.loc 1 65 0
	sts 123,__zero_reg__
	.loc 1 66 0
	ldi r24,lo8(127)
	sts 124,r24
	.loc 1 67 0
	ldi r24,lo8(1)
	sts 126,r24
	.loc 1 68 0
	sts 127,__zero_reg__
	.loc 1 69 0
	ldi r30,lo8(adcKeys)
	ldi r31,hi8(adcKeys)
	st Z,__zero_reg__
	.loc 1 70 0
	ldi r24,lo8(-1)
	std Z+1,r24
	.loc 1 71 0
	std Z+2,r24
	.loc 1 72 0
	sts adcNr,r24
.LVL10:
.LBB62:
	.loc 1 79 0
	ldi r30,lo8(keyWants)
	ldi r31,hi8(keyWants)
	ldi r24,lo8(10)
	st Z,r24
.LVL11:
	std Z+1,r24
.LVL12:
	std Z+2,r24
.LVL13:
	std Z+3,r24
.LVL14:
	std Z+4,r24
.LVL15:
	.loc 1 77 0
	ldi r24,lo8(6)
	std Z+5,r24
.LVL16:
	ret
.LBE62:
	.cfi_endproc
.LFE19:
	.size	init_ADC, .-init_ADC
	.section	.text.init_Pipe,"ax",@progbits
.global	init_Pipe
	.type	init_Pipe, @function
init_Pipe:
.LFB20:
	.loc 1 84 0
	.cfi_startproc
/* prologue: function */
/* frame size = 0 */
/* stack size = 0 */
.L__stack_usage = 0
	.loc 1 85 0
	ldi r24,lo8(-1)
	out 0x8,r24
	.loc 1 86 0
	out 0x7,r24
	.loc 1 87 0
	out 0x2,r24
	.loc 1 88 0
	out 0x1,__zero_reg__
	.loc 1 89 0
	in r24,0x14
	ori r24,lo8(7)
	out 0x14,r24
	.loc 1 90 0
	in r24,0x13
	ori r24,lo8(7)
	out 0x13,r24
	.loc 1 91 0
	cbi 0xb,7
	.loc 1 92 0
	sbi 0xa,7
.LVL17:
	ldi r30,lo8(pipe)
	ldi r31,hi8(pipe)
.LBB63:
	.loc 1 94 0
	ldi r24,lo8(-1)
.LVL18:
.L5:
	.loc 1 94 0 is_stmt 0 discriminator 3
	std Z+1,r24
	.loc 1 95 0 is_stmt 1 discriminator 3
	st Z,r24
	adiw r30,8
	.loc 1 93 0 discriminator 3
	ldi r25,hi8(pipe+256)
	cpi r30,lo8(pipe+256)
	cpc r31,r25
	brne .L5
.LBE63:
	.loc 1 98 0
	sts pipeProcessing,__zero_reg__
	.loc 1 99 0
	sts pipe_PowerStatus,__zero_reg__
	ret
	.cfi_endproc
.LFE20:
	.size	init_Pipe, .-init_Pipe
	.section	.text.init_PipeModules,"ax",@progbits
.global	init_PipeModules
	.type	init_PipeModules, @function
init_PipeModules:
.LFB21:
	.loc 1 102 0
	.cfi_startproc
	push r28
.LCFI0:
	.cfi_def_cfa_offset 4
	.cfi_offset 28, -3
/* prologue: function */
/* frame size = 0 */
/* stack size = 1 */
.L__stack_usage = 1
	.loc 1 103 0
	call eeprom_ReadModules
.LVL19:
	mov r28,r24
	cpi r24,lo8(-1)
	brne .+2
	rjmp .L23
.L9:
.LVL20:
	.loc 1 110 0
	cbi 0xb,7
	.loc 1 111 0
	in r24,0x14
	ori r24,lo8(7)
	out 0x14,r24
	.loc 1 113 0
	cbi 0x14,2
.LVL21:
.LBB64:
.LBB65:
	.file 2 "c:\\program files (x86)\\atmel\\studio\\7.0\\toolchain\\avr8\\avr8-gnu-toolchain\\avr\\include\\util\\delay.h"
	.loc 2 276 0
	ldi r24,lo8(5)
1:	dec r24
	brne 1b
	nop
.LVL22:
.LBE65:
.LBE64:
	.loc 1 117 0
	sbi 0x14,2
	.loc 1 114 0
	ldi r25,lo8(32)
	rjmp .L11
.LVL23:
.L25:
	.loc 1 120 0
	ldi r24,lo8(-86)
.L10:
	.loc 1 120 0 is_stmt 0 discriminator 4
	out 0x8,r24
	.loc 1 123 0 is_stmt 1 discriminator 4
	in r24,0
.LVL24:
	.loc 1 124 0 discriminator 4
	sts pipe+255,r24
	.loc 1 125 0 discriminator 4
	sts pipe+254,r24
	.loc 1 126 0 discriminator 4
	sts pipe+253,r24
	.loc 1 127 0 discriminator 4
	sts pipe+252,r24
	.loc 1 128 0 discriminator 4
	sts pipe+251,r24
	.loc 1 129 0 discriminator 4
	sts pipe+250,r24
	.loc 1 130 0 discriminator 4
	cbi 0x14,0
.LVL25:
.LBB66:
.LBB67:
	.loc 2 276 0 discriminator 4
	ldi r24,lo8(5)
1:	dec r24
	brne 1b
.LVL26:
	nop
.LVL27:
.LBE67:
.LBE66:
	.loc 1 132 0 discriminator 4
	subi r25,lo8(-(-1))
.LVL28:
	breq .L24
.LVL29:
.L11:
	.loc 1 119 0
	sbi 0x14,0
	.loc 1 120 0
	sbrc r25,0
	rjmp .L25
	ldi r24,lo8(85)
	rjmp .L10
.LVL30:
.L24:
	ldi r24,lo8(32)
.LVL31:
.L12:
	.loc 1 135 0 discriminator 3
	sbi 0x14,0
.LVL32:
.LBB68:
.LBB69:
	.loc 2 276 0 discriminator 3
	ldi r25,lo8(2)
1:	dec r25
	brne 1b
	rjmp .
.LVL33:
.LBE69:
.LBE68:
	.loc 1 137 0 discriminator 3
	cbi 0x14,0
.LVL34:
.LBB70:
.LBB71:
	.loc 2 276 0 discriminator 3
	ldi r25,lo8(2)
1:	dec r25
	brne 1b
	rjmp .
.LVL35:
	subi r24,lo8(-(-1))
.LBE71:
.LBE70:
	.loc 1 134 0 discriminator 3
	brne .L12
	.loc 1 142 0
	ldi r24,lo8(-1)
	sts pipe_ModuleTested,r24
.LVL36:
	.loc 1 143 0
	ldi r25,lo8(32)
	.loc 1 146 0
	ldi r19,lo8(-1)
	rjmp .L14
.LVL37:
.L27:
	.loc 1 149 0
	ldi r24,lo8(85)
.L13:
	.loc 1 149 0 is_stmt 0 discriminator 4
	eor r24,r18
	lds r18,pipe_ModuleTested
.LVL38:
	and r24,r18
	sts pipe_ModuleTested,r24
	.loc 1 150 0 is_stmt 1 discriminator 4
	cbi 0x14,0
.LVL39:
.LBB72:
.LBB73:
	.loc 2 276 0 discriminator 4
	ldi r24,lo8(5)
1:	dec r24
	brne 1b
	nop
.LVL40:
.LBE73:
.LBE72:
	.loc 1 152 0 discriminator 4
	subi r25,lo8(-(-1))
.LVL41:
	breq .L26
.LVL42:
.L14:
	.loc 1 145 0
	sbi 0x14,0
	.loc 1 146 0
	out 0x8,r19
	.loc 1 148 0
	in r18,0
.LVL43:
	.loc 1 149 0
	sbrc r25,0
	rjmp .L27
	ldi r24,lo8(-86)
	rjmp .L13
.LVL44:
.L26:
	.loc 1 153 0
/* #APP */
 ;  153 ".././hwtimer.c" 1
	nop
 ;  0 "" 2
	.loc 1 154 0
 ;  154 ".././hwtimer.c" 1
	nop
 ;  0 "" 2
	.loc 1 155 0
/* #NOAPP */
	sbi 0x14,0
	.loc 1 157 0
	in r24,0x14
	ori r24,lo8(7)
	out 0x14,r24
	.loc 1 158 0
	cbi 0x14,2
.LVL45:
.LBB74:
.LBB75:
	.loc 2 276 0
	ldi r25,lo8(2)
1:	dec r25
	brne 1b
	rjmp .
.LVL46:
.LBE75:
.LBE74:
	.loc 1 162 0
	sbi 0x14,2
	.loc 1 159 0
	ldi r30,lo8(pipe+248)
	ldi r31,hi8(pipe+248)
.LVL47:
	.loc 1 167 0
	ldi r25,lo8(-1)
.LVL48:
.L15:
	.loc 1 164 0 discriminator 1
	ldd r24,Z+3
	std Z+2,r24
	.loc 1 165 0 discriminator 1
	ldd r24,Z+4
	std Z+3,r24
	.loc 1 166 0 discriminator 1
	sbi 0x14,0
	.loc 1 167 0 discriminator 1
	std Z+1,r25
	.loc 1 168 0 discriminator 1
	out 0x8,r25
	.loc 1 169 0 discriminator 1
	ldd r24,Z+5
	std Z+4,r24
	.loc 1 170 0 discriminator 1
	ldd r24,Z+6
	std Z+5,r24
	.loc 1 171 0 discriminator 1
	in r24,0
	.loc 1 171 0 discriminator 1
	std Z+6,r24
	.loc 1 172 0 discriminator 1
	std Z+2,r24
	.loc 1 173 0 discriminator 1
	std Z+3,r24
	.loc 1 174 0 discriminator 1
	std Z+4,r24
	.loc 1 175 0 discriminator 1
	std Z+5,r24
	.loc 1 176 0 discriminator 1
	std Z+7,r24
	.loc 1 177 0 discriminator 1
	cbi 0x14,0
	.loc 1 178 0 discriminator 1
	sbiw r30,8
.LVL49:
	.loc 1 179 0 discriminator 1
	ldi r24,hi8(pipe-8)
	cpi r30,lo8(pipe-8)
	cpc r31,r24
	brne .L15
	.loc 1 180 0
/* #APP */
 ;  180 ".././hwtimer.c" 1
	nop
 ;  0 "" 2
	.loc 1 181 0
 ;  181 ".././hwtimer.c" 1
	nop
 ;  0 "" 2
	.loc 1 182 0
/* #NOAPP */
	sbi 0x14,0
	.loc 1 183 0
	cbi 0x14,1
	.loc 1 184 0
	out 0x8,__zero_reg__
.LVL50:
.LBB76:
.LBB77:
	.loc 2 276 0
	ldi r25,lo8(5)
1:	dec r25
	brne 1b
	nop
.LVL51:
.LBE77:
.LBE76:
	.loc 1 186 0
	sbi 0x14,1
	.loc 1 189 0
	lds r25,pipe_ModuleAssnRead
	lds r20,pipe_ModuleTested
	lds r24,pipe_ModuleAssnWrite
	or r24,r25
	cp r24,r20
	breq .L8
	.loc 1 191 0
	ldi r21,0
	or r21,r25
	ldi r22,0
	ldi r24,lo8(2)
/* epilogue start */
	.loc 1 193 0
	pop r28
	.loc 1 191 0
	jmp log_putError
.LVL52:
.L8:
/* epilogue start */
	.loc 1 193 0
	pop r28
	ret
.LVL53:
.L23:
	.loc 1 104 0
	ldi r20,0
	ldi r21,0
	ldi r22,0
	ldi r24,lo8(1)
	call log_putError
.LVL54:
	.loc 1 105 0
	sts pipe_ModuleAssnRead,r28
	.loc 1 106 0
	sts pipe_ModuleAssnWrite,r28
	rjmp .L9
	.cfi_endproc
.LFE21:
	.size	init_PipeModules, .-init_PipeModules
	.section	.text.test_PipeModule,"ax",@progbits
.global	test_PipeModule
	.type	test_PipeModule, @function
test_PipeModule:
.LFB22:
	.loc 1 196 0
	.cfi_startproc
.LVL55:
/* prologue: function */
/* frame size = 0 */
/* stack size = 0 */
.L__stack_usage = 0
	.loc 1 198 0
	cpi r24,lo8(8)
	brlo .+2
	rjmp .L38
	.loc 1 202 0
	ldi r19,lo8(1)
	rjmp 2f
	1:
	lsl r19
	2:
	dec r24
	brpl 1b
.LVL56:
	.loc 1 203 0
	ldi r24,lo8(-128)
.LVL57:
	sts pipeProcessing,r24
	.loc 1 204 0
	cbi 0xb,7
	.loc 1 206 0
	in r24,0x14
	ori r24,lo8(7)
	out 0x14,r24
.LVL58:
	ldi r21,lo8(4)
.LBB78:
.LBB79:
.LBB80:
	.loc 1 211 0
	mov r20,r19
	com r20
.LVL59:
.L30:
	ldi r24,lo8(8)
	ldi r25,lo8(-91)
	ldi r18,lo8(-1)
.LVL60:
.L34:
	.loc 1 211 0 is_stmt 0 discriminator 4
	out 0x8,r18
	.loc 1 212 0 is_stmt 1 discriminator 4
	lsr r25
.LVL61:
.LBB81:
.LBB82:
	.loc 2 276 0 discriminator 4
	ldi r18,lo8(2)
1:	dec r18
	brne 1b
	rjmp .
.LVL62:
.LBE82:
.LBE81:
	.loc 1 214 0 discriminator 4
	cbi 0x14,0
.LVL63:
.LBB83:
.LBB84:
	.loc 2 276 0 discriminator 4
	ldi r18,lo8(2)
1:	dec r18
	brne 1b
	rjmp .
.LVL64:
.LBE84:
.LBE83:
	.loc 1 216 0 discriminator 4
	sbi 0x14,0
	subi r24,lo8(-(-1))
	.loc 1 210 0 discriminator 4
	breq .L45
	.loc 1 211 0
	sbrc r25,0
	rjmp .L39
	.loc 1 211 0 is_stmt 0 discriminator 1
	mov r18,r20
	rjmp .L34
.L39:
	.loc 1 211 0
	ldi r18,lo8(-1)
	rjmp .L34
.L45:
	subi r21,lo8(-(-1))
.LBE80:
.LBE79:
	.loc 1 208 0 is_stmt 1 discriminator 2
	brne .L30
	ldi r24,lo8(32)
.LVL65:
.L35:
.LBE78:
.LBB85:
.LBB86:
.LBB87:
	.loc 2 276 0
	ldi r25,lo8(2)
1:	dec r25
	brne 1b
	rjmp .
.LVL66:
.LBE87:
.LBE86:
	.loc 1 222 0
	cbi 0x14,0
.LVL67:
.LBB88:
.LBB89:
	.loc 2 276 0
	ldi r18,lo8(2)
1:	dec r18
	brne 1b
	rjmp .
.LVL68:
.LBE89:
.LBE88:
	.loc 1 224 0
	sbi 0x14,0
.LVL69:
	subi r24,lo8(-(-1))
	.loc 1 220 0
	brne .L35
	ldi r25,lo8(32)
	ldi r20,0
	ldi r21,0
	movw r22,r20
.L37:
.LVL70:
.LBE85:
.LBB90:
	.loc 1 230 0
	lsl r20
	rol r21
	rol r22
	rol r23
.LVL71:
.LBB91:
.LBB92:
	.loc 2 276 0
	ldi r24,lo8(2)
1:	dec r24
	brne 1b
	rjmp .
.LVL72:
.LBE92:
.LBE91:
	.loc 1 232 0
	cbi 0x14,0
	.loc 1 233 0
	in r24,0
	.loc 1 233 0
	and r24,r19
	breq .L36
	.loc 1 234 0
	ori r20,1
.LVL73:
.L36:
.LBB93:
.LBB94:
	.loc 2 276 0 discriminator 2
	ldi r18,lo8(2)
1:	dec r18
	brne 1b
	rjmp .
.LVL74:
.LBE94:
.LBE93:
	.loc 1 237 0 discriminator 2
	sbi 0x14,0
.LVL75:
	subi r25,lo8(-(-1))
	.loc 1 229 0 discriminator 2
	brne .L37
.LBE90:
	.loc 1 240 0
	sts pipeProcessing,__zero_reg__
	.loc 1 241 0
	sbi 0xb,7
	.loc 1 242 0
	mov r19,r20
	mov r18,r21
	movw r24,r22
	.loc 1 243 0
	mov r22,r19
	mov r23,r18
	ret
.LVL76:
.L38:
	.loc 1 200 0
	ldi r19,0
	ldi r18,0
	ldi r24,0
.LVL77:
	ldi r25,0
	.loc 1 243 0
	mov r22,r19
	mov r23,r18
	ret
	.cfi_endproc
.LFE22:
	.size	test_PipeModule, .-test_PipeModule
	.section	.text.Pipes_AllOutputsOff,"ax",@progbits
.global	Pipes_AllOutputsOff
	.type	Pipes_AllOutputsOff, @function
Pipes_AllOutputsOff:
.LFB23:
	.loc 1 245 0
	.cfi_startproc
/* prologue: function */
/* frame size = 0 */
/* stack size = 0 */
.L__stack_usage = 0
.LVL78:
	.loc 1 247 0
	ldi r30,lo8(pipe)
	ldi r31,hi8(pipe)
.LBB95:
	.loc 1 250 0
	ldi r24,lo8(-1)
.LVL79:
.L47:
	.loc 1 250 0 is_stmt 0 discriminator 3
	std Z+1,r24
	.loc 1 251 0 is_stmt 1 discriminator 3
	st Z,r24
	.loc 1 252 0 discriminator 3
	adiw r30,8
.LVL80:
	.loc 1 249 0 discriminator 3
	ldi r25,hi8(pipe+256)
	cpi r30,lo8(pipe+256)
	cpc r31,r25
	brne .L47
.LBE95:
	.loc 1 254 0
	ldi r24,lo8(-1)
	sts msgPipe_Handling,r24
	ret
	.cfi_endproc
.LFE23:
	.size	Pipes_AllOutputsOff, .-Pipes_AllOutputsOff
	.section	.text.module_TestAllInputs,"ax",@progbits
.global	module_TestAllInputs
	.type	module_TestAllInputs, @function
module_TestAllInputs:
.LFB24:
	.loc 1 258 0
	.cfi_startproc
/* prologue: function */
/* frame size = 0 */
/* stack size = 0 */
.L__stack_usage = 0
.LVL81:
	.loc 1 263 0
	ldi r30,lo8(pipe)
	ldi r31,hi8(pipe)
	.loc 1 262 0
	ldi r24,0
.LBB96:
	.loc 1 268 0
	ldi r18,lo8(-1)
.LVL82:
.L50:
	.loc 1 268 0 is_stmt 0 discriminator 3
	std Z+1,r18
	.loc 1 269 0 is_stmt 1 discriminator 3
	ldd r25,Z+6
	or r24,r25
.LVL83:
	.loc 1 270 0 discriminator 3
	adiw r30,8
.LVL84:
	.loc 1 267 0 discriminator 3
	ldi r25,hi8(pipe+256)
	cpi r30,lo8(pipe+256)
	cpc r31,r25
	brne .L50
.LBE96:
	.loc 1 272 0
	lds r25,pipe_ModuleAssnRead
	.loc 1 273 0
	and r24,r25
.LVL85:
	ret
	.cfi_endproc
.LFE24:
	.size	module_TestAllInputs, .-module_TestAllInputs
	.section	.text.module_WaitOutputInput2Cycles,"ax",@progbits
.global	module_WaitOutputInput2Cycles
	.type	module_WaitOutputInput2Cycles, @function
module_WaitOutputInput2Cycles:
.LFB25:
	.loc 1 275 0
	.cfi_startproc
/* prologue: function */
/* frame size = 0 */
/* stack size = 0 */
.L__stack_usage = 0
	.loc 1 276 0
	sts pipeProcessing,__zero_reg__
.L53:
	.loc 1 277 0 discriminator 1
	lds r24,pipeProcessing
	sbrs r24,1
	rjmp .L53
	.loc 1 280 0
	sts pipeProcessing,__zero_reg__
.L54:
	.loc 1 281 0 discriminator 1
	lds r24,pipeProcessing
	sbrs r24,1
	rjmp .L54
/* epilogue start */
	.loc 1 284 0
	ret
	.cfi_endproc
.LFE25:
	.size	module_WaitOutputInput2Cycles, .-module_WaitOutputInput2Cycles
	.section	.text.module_StartPowerOn,"ax",@progbits
.global	module_StartPowerOn
	.type	module_StartPowerOn, @function
module_StartPowerOn:
.LFB26:
	.loc 1 286 0
	.cfi_startproc
/* prologue: function */
/* frame size = 0 */
/* stack size = 0 */
.L__stack_usage = 0
	.loc 1 288 0
	ldi r24,lo8(1)
	sts pipe_PowerStatus,r24
.LBB97:
	.loc 1 289 0
	in r24,__SREG__
.LVL86:
.LBB98:
.LBB99:
	.file 3 "c:\\program files (x86)\\atmel\\studio\\7.0\\toolchain\\avr8\\avr8-gnu-toolchain\\avr\\include\\util\\atomic.h"
	.loc 3 50 0
/* #APP */
 ;  50 "c:\program files (x86)\atmel\studio\7.0\toolchain\avr8\avr8-gnu-toolchain\avr\include\util\atomic.h" 1
	cli
 ;  0 "" 2
.LVL87:
/* #NOAPP */
.LBE99:
.LBE98:
	.loc 1 289 0
	ldi r30,lo8(swTimer)
	ldi r31,hi8(swTimer)
	ldi r25,lo8(50)
	std Z+2,r25
	std Z+3,__zero_reg__
.LVL88:
.LBB100:
.LBB101:
	.loc 3 70 0
	out __SREG__,r24
	.loc 3 71 0
.LVL89:
	ret
.LBE101:
.LBE100:
.LBE97:
	.cfi_endproc
.LFE26:
	.size	module_StartPowerOn, .-module_StartPowerOn
	.section	.text.module_PowerControl,"ax",@progbits
.global	module_PowerControl
	.type	module_PowerControl, @function
module_PowerControl:
.LFB27:
	.loc 1 292 0
	.cfi_startproc
/* prologue: function */
/* frame size = 0 */
/* stack size = 0 */
.L__stack_usage = 0
	.loc 1 294 0
	lds r24,pipe_PowerStatus
	cpi r24,lo8(1)
	breq .L71
	.loc 1 305 0
	cpi r24,lo8(18)
	breq .L72
.L65:
	.loc 1 319 0
	ldi r24,lo8(-1)
	sts swTimer+2,r24
	ret
.L71:
	ldi r24,0
	ldi r30,lo8(pipe)
	ldi r31,hi8(pipe)
.LBB102:
.LBB103:
.LBB104:
	.loc 1 268 0
	ldi r18,lo8(-1)
.L62:
.LVL90:
	std Z+1,r18
	.loc 1 269 0
	ldd r25,Z+6
	or r24,r25
.LVL91:
	.loc 1 270 0
	adiw r30,8
.LVL92:
	.loc 1 267 0
	ldi r25,hi8(pipe+256)
	cpi r30,lo8(pipe+256)
	cpc r31,r25
	brne .L62
.LVL93:
.LBE104:
.LBE103:
.LBE102:
	.loc 1 296 0
	lds r25,pipe_ModuleAssnRead
	and r24,r25
	brne .L63
	.loc 1 298 0
	sbi 0x5,6
	.loc 1 299 0
	ldi r24,lo8(18)
	sts pipe_PowerStatus,r24
.LBB105:
	.loc 1 300 0
	in r24,__SREG__
.LVL94:
.LBB106:
.LBB107:
	.loc 3 50 0
/* #APP */
 ;  50 "c:\program files (x86)\atmel\studio\7.0\toolchain\avr8\avr8-gnu-toolchain\avr\include\util\atomic.h" 1
	cli
 ;  0 "" 2
.LVL95:
/* #NOAPP */
.LBE107:
.LBE106:
	.loc 1 300 0
	ldi r25,lo8(1)
	sts swTimer+2,r25
	sts swTimer+3,__zero_reg__
.LVL96:
.LBB108:
.LBB109:
	.loc 3 70 0
	out __SREG__,r24
	.loc 3 71 0
.LVL97:
.LBE109:
.LBE108:
.LBE105:
	ret
.LVL98:
.L63:
.LBB110:
	.loc 1 303 0
	in r24,__SREG__
.LVL99:
.LBB111:
.LBB112:
	.loc 3 50 0
/* #APP */
 ;  50 "c:\program files (x86)\atmel\studio\7.0\toolchain\avr8\avr8-gnu-toolchain\avr\include\util\atomic.h" 1
	cli
 ;  0 "" 2
.LVL100:
/* #NOAPP */
.LBE112:
.LBE111:
	.loc 1 303 0
	ldi r25,lo8(12)
	sts swTimer+2,r25
	ldi r25,lo8(2)
	sts swTimer+3,r25
.LVL101:
.LBB113:
.LBB114:
	.loc 3 70 0
	out __SREG__,r24
	.loc 3 71 0
.LVL102:
	ret
.LVL103:
.L72:
.LBE114:
.LBE113:
.LBE110:
	ldi r30,lo8(pipe)
	ldi r31,hi8(pipe)
	ldi r24,0
.LBB115:
.LBB116:
.LBB117:
.LBB118:
	.loc 1 268 0
	ldi r18,lo8(-1)
.L66:
.LVL104:
	std Z+1,r18
	.loc 1 269 0
	ldd r25,Z+6
	or r24,r25
.LVL105:
	.loc 1 270 0
	adiw r30,8
.LVL106:
	.loc 1 267 0
	ldi r25,hi8(pipe+256)
	cpi r30,lo8(pipe+256)
	cpc r31,r25
	brne .L66
.LBE118:
	.loc 1 272 0
	lds r20,pipe_ModuleAssnRead
	and r24,r20
.LVL107:
.LBE117:
.LBE116:
	.loc 1 307 0
	brne .L67
	.loc 1 309 0
	ldi r24,lo8(20)
	sts pipe_PowerStatus,r24
.LBE115:
	.loc 1 319 0
	ldi r24,lo8(-1)
	sts swTimer+2,r24
	ret
.L67:
.LBB119:
	.loc 1 312 0
	mov r20,r24
	ldi r21,0
	ldi r22,0
	ldi r24,lo8(5)
	call log_putError
.LVL108:
	.loc 1 313 0
	cbi 0x5,6
	.loc 1 314 0
	ldi r24,lo8(-128)
	sts pipe_PowerStatus,r24
	rjmp .L65
.LBE119:
	.cfi_endproc
.LFE27:
	.size	module_PowerControl, .-module_PowerControl
	.section	.text.__vector_21,"ax",@progbits
.global	__vector_21
	.type	__vector_21, @function
__vector_21:
.LFB33:
	.loc 1 558 0
	.cfi_startproc
	push r1
.LCFI1:
	.cfi_def_cfa_offset 4
	.cfi_offset 1, -3
	push r0
.LCFI2:
	.cfi_def_cfa_offset 5
	.cfi_offset 0, -4
	in r0,__SREG__
	push r0
	clr __zero_reg__
	in r0,__RAMPZ__
	push r0
	push r14
.LCFI3:
	.cfi_def_cfa_offset 6
	.cfi_offset 14, -5
	push r15
.LCFI4:
	.cfi_def_cfa_offset 7
	.cfi_offset 15, -6
	push r16
.LCFI5:
	.cfi_def_cfa_offset 8
	.cfi_offset 16, -7
	push r17
.LCFI6:
	.cfi_def_cfa_offset 9
	.cfi_offset 17, -8
	push r18
.LCFI7:
	.cfi_def_cfa_offset 10
	.cfi_offset 18, -9
	push r19
.LCFI8:
	.cfi_def_cfa_offset 11
	.cfi_offset 19, -10
	push r20
.LCFI9:
	.cfi_def_cfa_offset 12
	.cfi_offset 20, -11
	push r21
.LCFI10:
	.cfi_def_cfa_offset 13
	.cfi_offset 21, -12
	push r22
.LCFI11:
	.cfi_def_cfa_offset 14
	.cfi_offset 22, -13
	push r23
.LCFI12:
	.cfi_def_cfa_offset 15
	.cfi_offset 23, -14
	push r24
.LCFI13:
	.cfi_def_cfa_offset 16
	.cfi_offset 24, -15
	push r25
.LCFI14:
	.cfi_def_cfa_offset 17
	.cfi_offset 25, -16
	push r26
.LCFI15:
	.cfi_def_cfa_offset 18
	.cfi_offset 26, -17
	push r27
.LCFI16:
	.cfi_def_cfa_offset 19
	.cfi_offset 27, -18
	push r28
.LCFI17:
	.cfi_def_cfa_offset 20
	.cfi_offset 28, -19
	push r29
.LCFI18:
	.cfi_def_cfa_offset 21
	.cfi_offset 29, -20
	push r30
.LCFI19:
	.cfi_def_cfa_offset 22
	.cfi_offset 30, -21
	push r31
.LCFI20:
	.cfi_def_cfa_offset 23
	.cfi_offset 31, -22
/* prologue: Signal */
/* frame size = 0 */
/* stack size = 22 */
.L__stack_usage = 22
	.loc 1 560 0
	sbi 0x5,7
	.loc 1 562 0
	lds r24,msecCtr
	subi r24,lo8(-(1))
	sts msecCtr,r24
	andi r24,lo8(3)
	cpi r24,lo8(2)
	brne .+2
	rjmp .L75
	cpi r24,lo8(3)
	brne .+2
	rjmp .L76
	cpi r24,lo8(1)
	breq .L77
.LBB138:
.LBB139:
	.loc 1 375 0
	lds r25,adcNr
	tst r25
	brne .+2
	rjmp .L171
.L78:
	.loc 1 463 0
	subi r25,lo8(-(1))
	cpi r25,lo8(4)
	brsh .+2
	rjmp .L89
	.loc 1 464 0
	sts adcNr,__zero_reg__
.L90:
	.loc 1 468 0
	lds r24,adcKeys
.LVL109:
	mov r18,r24
	andi r18,lo8(31)
	ori r18,lo8(96)
	andi r24,lo8(32)
.LVL110:
	ldi r25,0
	asr r25
	ror r24
	asr r25
	ror r24
.L91:
	.loc 1 473 0
	sts 124,r18
	.loc 1 474 0
	lds r25,123
	.loc 1 474 0
	andi r25,lo8(-33)
	or r24,r25
	sts 123,r24
	.loc 1 475 0
	lds r24,122
	ori r24,lo8(64)
	sts 122,r24
.L92:
.LBE139:
.LBE138:
	.loc 1 575 0
	cbi 0x5,7
/* epilogue start */
	.loc 1 577 0
	pop r31
	pop r30
	pop r29
	pop r28
	pop r27
	pop r26
	pop r25
	pop r24
	pop r23
	pop r22
	pop r21
	pop r20
	pop r19
	pop r18
	pop r17
	pop r16
	pop r15
	pop r14
	pop r0
	out __RAMPZ__,r0
	pop r0
	out __SREG__,r0
	pop r0
	pop r1
	reti
.L77:
	.loc 1 565 0
	lds r24,pipeProcessing
	cpi r24,lo8(-128)
	breq .L92
.LBB153:
.LBB154:
	.loc 1 527 0
	in r24,0x14
	ori r24,lo8(7)
	out 0x14,r24
	.loc 1 528 0
	cbi 0x14,2
.LVL111:
	.loc 1 530 0
	lds r25,pipe_ModuleAssnWrite
	com r25
.LVL112:
.LBB155:
.LBB156:
	.loc 2 276 0
	ldi r31,lo8(2)
1:	dec r31
	brne 1b
	rjmp .
.LVL113:
.LBE156:
.LBE155:
	.loc 1 533 0
	sbi 0x14,2
	.loc 1 529 0
	ldi r30,lo8(pipe+248)
	ldi r31,hi8(pipe+248)
.LVL114:
.L94:
	.loc 1 535 0
	ldd r24,Z+3
	std Z+2,r24
	.loc 1 536 0
	ldd r24,Z+4
	std Z+3,r24
	.loc 1 537 0
	sbi 0x14,0
	.loc 1 538 0
	ldd r24,Z+1
	or r24,r25
	out 0x8,r24
	.loc 1 539 0
	ldd r24,Z+5
	std Z+4,r24
	.loc 1 540 0
	ldd r24,Z+6
	std Z+5,r24
	.loc 1 541 0
	in r24,0
	.loc 1 541 0
	std Z+6,r24
	.loc 1 542 0
	cbi 0x14,0
	.loc 1 543 0
	sbiw r30,8
.LVL115:
	.loc 1 544 0
	ldi r19,hi8(pipe-8)
	cpi r30,lo8(pipe-8)
	cpc r31,r19
	brne .L94
	.loc 1 545 0
/* #APP */
 ;  545 ".././hwtimer.c" 1
	nop
 ;  0 "" 2
	.loc 1 546 0
 ;  546 ".././hwtimer.c" 1
	nop
 ;  0 "" 2
	.loc 1 547 0
/* #NOAPP */
	sbi 0x14,0
	.loc 1 548 0
	cbi 0x14,1
	.loc 1 549 0
	lds r24,pipeProcessing
	ori r24,lo8(2)
	sts pipeProcessing,r24
	.loc 1 550 0
	out 0x8,__zero_reg__
	.loc 1 551 0
	sbi 0xb,7
	.loc 1 552 0
	sbi 0x14,1
	rjmp .L92
.LVL116:
.L76:
.LBE154:
.LBE153:
	.loc 1 570 0
	lds r24,pipeProcessing
	cpi r24,lo8(-128)
	brne .+2
	rjmp .L92
.LVL117:
	lds r14,pipe_ModuleAssnRead
.LBB157:
.LBB158:
.LBB159:
	.loc 1 484 0
	mov r15,__zero_reg__
.LBE159:
	.loc 1 482 0
	ldi r28,lo8(pipe)
	ldi r29,hi8(pipe)
	rjmp .L127
.LVL118:
.L125:
.LBB162:
.LBB160:
	.loc 1 512 0
	and r17,r14
.LVL119:
	mov r24,r16
.LVL120:
	com r24
	and r24,r17
.LVL121:
	.loc 1 513 0
	brne .L172
.LVL122:
.L126:
	.loc 1 519 0
	std Y+7,r16
	.loc 1 520 0
	adiw r28,8
.LVL123:
	.loc 1 521 0
	lds r24,pipeProcessing
	ori r24,lo8(1)
	sts pipeProcessing,r24
.LBE160:
	.loc 1 484 0
	inc r15
.LVL124:
	ldi r24,hi8(pipe+256)
	cpi r28,lo8(pipe+256)
	cpc r29,r24
	brne .+2
	rjmp .L92
.LVL125:
.L127:
.LBB161:
	.loc 1 502 0
	ldd r16,Y+6
	ldd r24,Y+5
	or r16,r24
	ldd r24,Y+4
	or r16,r24
	ldd r24,Y+3
	or r16,r24
	ldd r24,Y+2
	or r16,r24
.LVL126:
	.loc 1 505 0
	ldd r17,Y+7
	mov r24,r17
	com r24
	and r24,r14
	and r24,r16
.LVL127:
	.loc 1 506 0
	breq .L125
	.loc 1 510 0
	mov r25,r15
	ori r25,lo8(32)
	call pipeMsgPush
.LVL128:
	.loc 1 512 0
	and r17,r14
.LVL129:
	mov r24,r16
	com r24
	and r24,r17
.LVL130:
	.loc 1 513 0
	breq .L126
.L172:
	.loc 1 517 0
	mov r25,r15
	call pipeMsgPush
.LVL131:
	rjmp .L126
.LVL132:
.L75:
.LBE161:
.LBE162:
.LBE158:
.LBE157:
.LBB163:
.LBB164:
.LBB165:
	.loc 1 341 0
	lds r24,swTimer
	subi r24,lo8(-(-1))
	cpi r24,lo8(-2)
	brsh .L95
.LBB166:
	.loc 1 342 0
	lds r25,swTimer+1
	subi r25,lo8(-(1))
.LVL133:
	.loc 1 343 0
	cpi r25,lo8(5)
	brlo .L97
.LVL134:
	.loc 1 346 0
	sts swTimer,r24
	.loc 1 345 0
	ldi r25,0
.LVL135:
.L97:
	.loc 1 348 0
	sts swTimer+1,r25
.LVL136:
.L95:
.LBE166:
	.loc 1 341 0
	lds r24,swTimer+2
	subi r24,lo8(-(-1))
	cpi r24,lo8(-2)
	brsh .L98
.LBB167:
	.loc 1 342 0
	lds r25,swTimer+3
	subi r25,lo8(-(1))
.LVL137:
	.loc 1 343 0
	cpi r25,lo8(5)
	brlo .L100
.LVL138:
	.loc 1 346 0
	sts swTimer+2,r24
	.loc 1 345 0
	ldi r25,0
.LVL139:
.L100:
	.loc 1 348 0
	sts swTimer+3,r25
.LVL140:
.L98:
.LBE167:
	.loc 1 341 0
	lds r24,swTimer+4
	subi r24,lo8(-(-1))
	cpi r24,lo8(-2)
	brsh .L101
.LBB168:
	.loc 1 342 0
	lds r25,swTimer+5
	subi r25,lo8(-(1))
.LVL141:
	.loc 1 343 0
	cpi r25,lo8(5)
	brlo .L103
.LVL142:
	.loc 1 346 0
	sts swTimer+4,r24
	.loc 1 345 0
	ldi r25,0
.LVL143:
.L103:
	.loc 1 348 0
	sts swTimer+5,r25
.LVL144:
.L101:
.LBE168:
	.loc 1 341 0
	lds r24,swTimer+6
	subi r24,lo8(-(-1))
	cpi r24,lo8(-2)
	brsh .L104
.LBB169:
	.loc 1 342 0
	lds r25,swTimer+7
	subi r25,lo8(-(1))
.LVL145:
	.loc 1 343 0
	cpi r25,lo8(5)
	brlo .L106
.LVL146:
	.loc 1 346 0
	sts swTimer+6,r24
	.loc 1 345 0
	ldi r25,0
.LVL147:
.L106:
	.loc 1 348 0
	sts swTimer+7,r25
.LVL148:
.L104:
.LBE169:
	.loc 1 341 0
	lds r24,swTimer+8
	subi r24,lo8(-(-1))
	cpi r24,lo8(-2)
	brsh .L107
.LBB170:
	.loc 1 342 0
	lds r25,swTimer+9
	subi r25,lo8(-(1))
.LVL149:
	.loc 1 343 0
	cpi r25,lo8(5)
	brlo .L109
.LVL150:
	.loc 1 346 0
	sts swTimer+8,r24
	.loc 1 345 0
	ldi r25,0
.LVL151:
.L109:
	.loc 1 348 0
	sts swTimer+9,r25
.LVL152:
.L107:
.LBE170:
	.loc 1 341 0
	lds r24,swTimer+10
	subi r24,lo8(-(-1))
	cpi r24,lo8(-2)
	brsh .L110
.LBB171:
	.loc 1 342 0
	lds r25,swTimer+11
	subi r25,lo8(-(1))
.LVL153:
	.loc 1 343 0
	cpi r25,lo8(5)
	brlo .L112
.LVL154:
	.loc 1 346 0
	sts swTimer+10,r24
	.loc 1 345 0
	ldi r25,0
.LVL155:
.L112:
	.loc 1 348 0
	sts swTimer+11,r25
.LVL156:
.L110:
.LBE171:
	.loc 1 341 0
	lds r24,swTimer+12
	subi r24,lo8(-(-1))
	cpi r24,lo8(-2)
	brsh .L113
.LBB172:
	.loc 1 342 0
	lds r25,swTimer+13
	subi r25,lo8(-(1))
.LVL157:
	.loc 1 343 0
	cpi r25,lo8(5)
	brlo .L115
.LVL158:
	.loc 1 346 0
	sts swTimer+12,r24
	.loc 1 345 0
	ldi r25,0
.LVL159:
.L115:
	.loc 1 348 0
	sts swTimer+13,r25
.LVL160:
.L113:
.LBE172:
	.loc 1 341 0
	lds r24,swTimer+14
	subi r24,lo8(-(-1))
	cpi r24,lo8(-2)
	brsh .L116
.LBB173:
	.loc 1 342 0
	lds r25,swTimer+15
	subi r25,lo8(-(1))
.LVL161:
	.loc 1 343 0
	cpi r25,lo8(5)
	brlo .L118
.LVL162:
	.loc 1 346 0
	sts swTimer+14,r24
	.loc 1 345 0
	ldi r25,0
.LVL163:
.L118:
	.loc 1 348 0
	sts swTimer+15,r25
.LVL164:
.L116:
.LBE173:
	.loc 1 341 0
	lds r24,swTimer+16
	subi r24,lo8(-(-1))
	cpi r24,lo8(-2)
	brsh .L119
.LBB174:
	.loc 1 342 0
	lds r25,swTimer+17
	subi r25,lo8(-(1))
.LVL165:
	.loc 1 343 0
	cpi r25,lo8(5)
	brlo .L120
.LVL166:
	.loc 1 346 0
	sts swTimer+16,r24
	.loc 1 345 0
	ldi r25,0
.LVL167:
.L120:
	.loc 1 348 0
	sts swTimer+17,r25
.LVL168:
.L119:
.LBE174:
.LBE165:
	.loc 1 353 0
	lds r24,time_Uptime
	subi r24,lo8(-(1))
	sts time_Uptime,r24
	cpi r24,lo8(-6)
	breq .+2
	rjmp .L92
	.loc 1 355 0
	ldi r24,lo8(-1)
	sts time_UpTimeUpdated,r24
.LVL169:
	.loc 1 356 0
	sts time_Uptime,__zero_reg__
	.loc 1 357 0
	lds r24,time_Uptime+1
	subi r24,lo8(-(1))
	cpi r24,lo8(60)
	brsh .+2
	rjmp .L173
.LVL170:
	.loc 1 359 0
	sts time_Uptime+1,__zero_reg__
	.loc 1 360 0
	lds r24,time_Uptime+2
	subi r24,lo8(-(1))
	cpi r24,lo8(60)
	brsh .+2
	rjmp .L174
.LVL171:
	.loc 1 362 0
	sts time_Uptime+2,__zero_reg__
	.loc 1 363 0
	lds r24,time_Uptime+3
	subi r24,lo8(-(1))
	cpi r24,lo8(100)
	brsh .+2
	rjmp .L175
	.loc 1 365 0
	sts time_Uptime+3,__zero_reg__
	rjmp .L92
.LVL172:
.L171:
.LBE164:
.LBE163:
.LBB177:
.LBB150:
	.loc 1 375 0
	lds r24,122
	.loc 1 375 0
	mov r25,r24
	andi r25,lo8(64)
	sbrc r24,6
	rjmp .L79
.LBB140:
	.loc 1 379 0
	lds r24,adcKeys+1
.LVL173:
	.loc 1 380 0
	lds r18,121
.LVL174:
	.loc 1 381 0
	sts adcKeys+1,r18
.LVL175:
.LBB141:
.LBB142:
	.loc 1 328 0
	cp r18,r24
	brlo .L176
	.loc 1 331 0
	mov r19,r18
	sub r19,r24
	mov r24,r19
.LVL176:
.L81:
.LBE142:
.LBE141:
	.loc 1 382 0
	cpi r24,lo8(4)
	brsh .L79
.LBB144:
	.loc 1 388 0
	cpi r18,lo8(34)
	brsh .+2
	rjmp .L135
	.loc 1 390 0
	cpi r18,lo8(63)
	brsh .+2
	rjmp .L136
	.loc 1 392 0
	cpi r18,lo8(104)
	brsh .+2
	rjmp .L137
	.loc 1 394 0
	cpi r18,lo8(-106)
	brsh .+2
	rjmp .L138
	.loc 1 396 0
	cpi r18,lo8(-65)
	brsh .+2
	rjmp .L139
	.loc 1 398 0
	cpi r18,lo8(-24)
	brsh .+2
	rjmp .L140
.LVL177:
	.loc 1 408 0
	lds r28,adcKeys+2
.LVL178:
	.loc 1 409 0
	cpi r28,lo8(-1)
	breq .L79
.LVL179:
.L84:
	.loc 1 415 0
	ldi r24,lo8(-1)
	sts adcKeys+2,r24
.LVL180:
	.loc 1 425 0
	mov r30,r28
	ldi r31,0
	subi r30,lo8(-(keyWants-1))
	sbci r31,hi8(-(keyWants-1))
	ld r24,Z
	sbrs r24,1
	rjmp .L79
	.loc 1 426 0
	lds r24,adcKeys+3
	andi r24,lo8(3)
	breq .L166
.LVL181:
.L79:
.LBE144:
.LBE140:
	.loc 1 463 0
	ldi r24,lo8(1)
	sts adcNr,r24
.L141:
	.loc 1 467 0
	ldi r24,0
	ldi r18,lo8(127)
	rjmp .L91
.LVL182:
.L173:
.LBE150:
.LBE177:
.LBB178:
.LBB175:
	.loc 1 357 0
	sts time_Uptime+1,r24
	rjmp .L92
.LVL183:
.L176:
.LBE175:
.LBE178:
.LBB179:
.LBB151:
.LBB148:
.LBB145:
.LBB143:
	.loc 1 329 0
	sub r24,r18
.LVL184:
	rjmp .L81
.LVL185:
.L88:
.LBE143:
.LBE145:
.LBB146:
	.loc 1 452 0
	ldd r24,Z+3
	cpi r24,lo8(1)
	breq .+2
	rjmp .L78
	ldd r18,Z+4
	ldd r19,Z+5
	cpi r18,12
	cpc r19,__zero_reg__
	breq .+2
	rjmp .L78
	.loc 1 454 0
	std Z+5,__zero_reg__
	std Z+4,__zero_reg__
.L166:
	.loc 1 455 0
	mov r24,r28
.L167:
	call message_push
.LVL186:
	lds r25,adcNr
	rjmp .L78
.LVL187:
.L174:
.LBE146:
.LBE148:
.LBE151:
.LBE179:
.LBB180:
.LBB176:
	.loc 1 360 0
	sts time_Uptime+2,r24
	rjmp .L92
.LVL188:
.L175:
	.loc 1 363 0
	sts time_Uptime+3,r24
	rjmp .L92
.LVL189:
.L89:
.LBE176:
.LBE180:
.LBB181:
.LBB152:
	.loc 1 463 0
	sts adcNr,r25
	.loc 1 467 0
	tst r25
	brne .+2
	rjmp .L90
	rjmp .L141
.LVL190:
.L135:
.LBB149:
.LBB147:
	.loc 1 388 0
	ldi r18,lo8(3)
	ldi r19,0
.LVL191:
	.loc 1 389 0
	ldi r24,lo8(4)
.L82:
.LVL192:
	.loc 1 408 0
	lds r28,adcKeys+2
.LVL193:
	.loc 1 409 0
	cp r28,r24
	breq .L177
	.loc 1 411 0
	cpi r28,lo8(-1)
	breq .+2
	rjmp .L84
	.loc 1 415 0
	sts adcKeys+2,r24
.LVL194:
	.loc 1 418 0
	sts adcKeys+4+1,__zero_reg__
	sts adcKeys+4,__zero_reg__
	.loc 1 419 0
	sts adcKeys+3,__zero_reg__
	.loc 1 420 0
	movw r30,r18
	subi r30,lo8(-(keyWants))
	sbci r31,hi8(-(keyWants))
	ld r25,Z
	sbrs r25,0
	rjmp .L79
	rjmp .L167
.LVL195:
.L177:
	.loc 1 436 0
	lds r18,adcKeys+4
	lds r19,adcKeys+4+1
	subi r18,-1
	sbci r19,-1
	sts adcKeys+4+1,r19
	sts adcKeys+4,r18
.LVL196:
	.loc 1 437 0
	lds r18,adcKeys+4
	lds r19,adcKeys+4+1
	cpi r18,93
	cpc r19,__zero_reg__
	breq .L178
	mov r30,r24
	ldi r31,0
	subi r30,lo8(-(keyWants-1))
	sbci r31,hi8(-(keyWants-1))
	ld r18,Z
.L87:
	.loc 1 444 0
	sbrs r18,3
	rjmp .L79
	ldi r18,0
	ldi r19,0
.LVL197:
.L133:
	.loc 1 445 0
	movw r30,r18
	lsl r30
	rol r31
	add r30,r18
	adc r31,r19
	lsl r30
	rol r31
	subi r30,lo8(-(adcKeys))
	sbci r31,hi8(-(adcKeys))
	ldd r24,Z+3
	cpse r24,__zero_reg__
	rjmp .L88
	.loc 1 446 0
	ldd r18,Z+4
	ldd r19,Z+5
	cpi r18,75
	cpc r19,__zero_reg__
	breq .+2
	rjmp .L78
	.loc 1 448 0
	ldi r24,lo8(1)
	std Z+3,r24
	.loc 1 449 0
	std Z+5,__zero_reg__
	std Z+4,__zero_reg__
	.loc 1 450 0
	mov r24,r28
	call message_push
.LVL198:
	lds r25,adcNr
	rjmp .L78
.LVL199:
.L136:
	.loc 1 390 0
	ldi r18,lo8(2)
	ldi r19,0
.LVL200:
	.loc 1 391 0
	ldi r24,lo8(3)
	rjmp .L82
.LVL201:
.L137:
	.loc 1 392 0
	ldi r18,lo8(4)
	ldi r19,0
.LVL202:
	.loc 1 393 0
	ldi r24,lo8(5)
	rjmp .L82
.LVL203:
.L178:
	.loc 1 439 0
	mov r16,r24
	ldi r17,0
	subi r16,lo8(-(keyWants-1))
	sbci r17,hi8(-(keyWants-1))
	movw r30,r16
	ld r18,Z
	sbrs r18,2
	rjmp .L87
	.loc 1 440 0
	ori r24,lo8(-128)
.LVL204:
	call message_push
.LVL205:
	.loc 1 441 0
	lds r25,adcNr
	mov r18,r25
	ldi r19,0
	ldi r24,lo8(6)
	mul r25,r24
	movw r30,r0
	clr __zero_reg__
	subi r30,lo8(-(adcKeys))
	sbci r31,hi8(-(adcKeys))
	ldi r24,lo8(2)
	std Z+3,r24
	.loc 1 444 0
	movw r30,r16
	ld r24,Z
	sbrs r24,3
	rjmp .L78
	rjmp .L133
.LVL206:
.L138:
	.loc 1 394 0
	ldi r18,0
	ldi r19,0
.LVL207:
	.loc 1 395 0
	ldi r24,lo8(1)
	rjmp .L82
.LVL208:
.L140:
	.loc 1 398 0
	ldi r18,lo8(5)
	ldi r19,0
.LVL209:
	.loc 1 399 0
	ldi r24,lo8(6)
	rjmp .L82
.LVL210:
.L139:
	.loc 1 396 0
	ldi r18,lo8(1)
	ldi r19,0
.LVL211:
	.loc 1 397 0
	ldi r24,lo8(2)
	rjmp .L82
.LBE147:
.LBE149:
.LBE152:
.LBE181:
	.cfi_endproc
.LFE33:
	.size	__vector_21, .-__vector_21
	.comm	pipe_PowerStatus,1,1
	.comm	pipeProcessing,1,1
	.comm	pipe_ModuleAssnWrite,1,1
	.comm	pipe_ModuleAssnRead,1,1
	.comm	pipe_ModuleTested,1,1
	.comm	pipe,256,1
	.comm	keyWants,6,1
	.comm	adcKeys,6,1
	.section	.bss.adcNr,"aw",@nobits
	.type	adcNr, @object
	.size	adcNr, 1
adcNr:
	.zero	1
	.comm	time_UpTimeUpdated,1,1
	.comm	time_Uptime,4,1
	.comm	swTimer,18,1
	.comm	msecCtr,1,1
	.comm	lcdData,10,1
	.text
.Letext0:
	.file 4 "c:\\program files (x86)\\atmel\\studio\\7.0\\toolchain\\avr8\\avr8-gnu-toolchain\\avr\\include\\stdint.h"
	.file 5 ".././message.h"
	.file 6 ".././hwtimer.h"
	.file 7 ".././menu.h"
	.file 8 ".././ee_prom.h"
	.file 9 ".././log.h"