	.file	"lcd.c"
__SP_H__ = 0x3e
__SP_L__ = 0x3d
__SREG__ = 0x3f
__tmp_reg__ = 0
__zero_reg__ = 1
	.text
.Ltext0:
	.cfi_sections	.debug_frame
	.section	.text.lcd_write,"ax",@progbits
	.type	lcd_write, @function
lcd_write:
.LFB8:
	.file 1 ".././lcd.c"
	.loc 1 119 0
	.cfi_startproc
.LVL0:
/* prologue: function */
/* frame size = 0 */
/* stack size = 0 */
.L__stack_usage = 0
	.loc 1 123 0
	tst r22
	breq .L2
	.loc 1 124 0
	sbi 0x18,3
.L3:
	.loc 1 128 0
	cbi 0x18,2
	.loc 1 151 0
	sbi 0x17,4
	.loc 1 152 0
	sbi 0x17,5
	.loc 1 153 0
	sbi 0x17,6
	.loc 1 154 0
	sbi 0x17,7
	.loc 1 157 0
	cbi 0x18,7
	.loc 1 158 0
	cbi 0x18,6
	.loc 1 159 0
	cbi 0x18,5
	.loc 1 160 0
	cbi 0x18,4
	.loc 1 161 0
	sbrc r24,7
	rjmp .L34
.L4:
	.loc 1 162 0
	sbrc r24,6
	.loc 1 162 0 discriminator 1
	sbi 0x18,6
.L5:
	.loc 1 163 0
	sbrc r24,5
	.loc 1 163 0 discriminator 1
	sbi 0x18,5
.L6:
	.loc 1 164 0
	sbrc r24,4
	.loc 1 164 0 discriminator 1
	sbi 0x18,4
.L7:
.LBB84:
.LBB85:
	.loc 1 103 0
	sbi 0x18,1
.LVL1:
.LBB86:
.LBB87:
	.file 2 "c:\\program files (x86)\\atmel\\studio\\7.0\\toolchain\\avr8\\avr8-gnu-toolchain\\avr\\include\\util\\delay.h"
	.loc 2 276 0
	ldi r25,lo8(5)
1:	dec r25
	brne 1b
	nop
.LVL2:
.LBE87:
.LBE86:
	.loc 1 105 0
	cbi 0x18,1
.LBE85:
.LBE84:
	.loc 1 168 0
	cbi 0x18,7
	.loc 1 169 0
	cbi 0x18,6
	.loc 1 170 0
	cbi 0x18,5
	.loc 1 171 0
	cbi 0x18,4
	.loc 1 172 0
	sbrc r24,3
	.loc 1 172 0 discriminator 1
	sbi 0x18,7
.L8:
	.loc 1 173 0
	sbrc r24,2
	.loc 1 173 0 discriminator 1
	sbi 0x18,6
.L9:
	.loc 1 174 0
	sbrc r24,1
	.loc 1 174 0 discriminator 1
	sbi 0x18,5
.L10:
	.loc 1 175 0
	sbrc r24,0
	.loc 1 175 0 discriminator 1
	sbi 0x18,4
.L11:
.LBB88:
.LBB89:
	.loc 1 103 0
	sbi 0x18,1
.LVL3:
.LBB90:
.LBB91:
	.loc 2 276 0
	ldi r24,lo8(5)
1:	dec r24
	brne 1b
.LVL4:
	nop
.LVL5:
.LBE91:
.LBE90:
	.loc 1 105 0
	cbi 0x18,1
.LBE89:
.LBE88:
	.loc 1 179 0
	sbi 0x18,4
	.loc 1 180 0
	sbi 0x18,5
	.loc 1 181 0
	sbi 0x18,6
	.loc 1 182 0
	sbi 0x18,7
	ret
.LVL6:
.L2:
	.loc 1 126 0
	cbi 0x18,3
	rjmp .L3
.L34:
	.loc 1 161 0 discriminator 1
	sbi 0x18,7
	rjmp .L4
	.cfi_endproc
.LFE8:
	.size	lcd_write, .-lcd_write
	.section	.text.lcd_read.constprop.0,"ax",@progbits
	.type	lcd_read.constprop.0, @function
lcd_read.constprop.0:
.LFB22:
	.loc 1 199 0
	.cfi_startproc
/* prologue: function */
/* frame size = 0 */
/* stack size = 0 */
.L__stack_usage = 0
.LVL7:
	.loc 1 207 0
	cbi 0x18,3
	.loc 1 208 0
	sbi 0x18,2
	.loc 1 230 0
	cbi 0x17,4
	.loc 1 231 0
	cbi 0x17,5
	.loc 1 232 0
	cbi 0x17,6
	.loc 1 233 0
	cbi 0x17,7
	.loc 1 236 0
	sbi 0x18,1
.LVL8:
.LBB92:
.LBB93:
	.loc 2 276 0
	ldi r24,lo8(5)
1:	dec r24
	brne 1b
	nop
.LVL9:
.LBE93:
.LBE92:
	.loc 1 239 0
	sbis 0x16,4
	rjmp .L44
	.loc 1 239 0
	ldi r24,lo8(16)
.L36:
.LVL10:
	.loc 1 240 0
	sbic 0x16,5
	.loc 1 240 0
	ori r24,lo8(32)
.LVL11:
.L37:
	.loc 1 241 0
	sbic 0x16,6
	.loc 1 241 0
	ori r24,lo8(64)
.LVL12:
.L38:
	.loc 1 242 0
	sbic 0x16,7
	rjmp .L60
.L39:
	.loc 1 243 0
	cbi 0x18,1
.LVL13:
.LBB94:
.LBB95:
	.loc 2 276 0
	ldi r25,lo8(5)
1:	dec r25
	brne 1b
	nop
.LVL14:
.LBE95:
.LBE94:
	.loc 1 248 0
	sbi 0x18,1
.LVL15:
.LBB96:
.LBB97:
	.loc 2 276 0
	ldi r25,lo8(5)
1:	dec r25
	brne 1b
	nop
.LVL16:
.LBE97:
.LBE96:
	.loc 1 250 0
	sbic 0x16,4
	.loc 1 250 0
	ori r24,lo8(1)
.LVL17:
.L40:
	.loc 1 251 0
	sbic 0x16,5
	.loc 1 251 0
	ori r24,lo8(2)
.LVL18:
.L41:
	.loc 1 252 0
	sbic 0x16,6
	.loc 1 252 0
	ori r24,lo8(4)
.LVL19:
.L42:
	.loc 1 253 0
	sbic 0x16,7
	.loc 1 253 0
	ori r24,lo8(8)
.LVL20:
.L43:
	.loc 1 254 0
	cbi 0x18,1
	.loc 1 257 0
	ret
.LVL21:
.L44:
	.loc 1 238 0
	ldi r24,0
	rjmp .L36
.LVL22:
.L60:
	.loc 1 242 0
	ori r24,lo8(-128)
.LVL23:
	rjmp .L39
	.cfi_endproc
.LFE22:
	.size	lcd_read.constprop.0, .-lcd_read.constprop.0
	.section	.text.lcd_waitbusy,"ax",@progbits
	.type	lcd_waitbusy, @function
lcd_waitbusy:
.LFB10:
	.loc 1 270 0
	.cfi_startproc
/* prologue: function */
/* frame size = 0 */
/* stack size = 0 */
.L__stack_usage = 0
.L62:
	.loc 1 274 0 discriminator 1
	call lcd_read.constprop.0
.LVL24:
	sbrc r24,7
	rjmp .L62
.LVL25:
.LBB98:
.LBB99:
	.loc 2 276 0
	ldi r24,lo8(21)
1:	dec r24
	brne 1b
.LVL26:
	nop
.LVL27:
.LBE99:
.LBE98:
	.loc 1 280 0
	jmp lcd_read.constprop.0
.LVL28:
	.cfi_endproc
.LFE10:
	.size	lcd_waitbusy, .-lcd_waitbusy
	.section	.text.lcd_command,"ax",@progbits
.global	lcd_command
	.type	lcd_command, @function
lcd_command:
.LFB12:
	.loc 1 339 0
	.cfi_startproc
.LVL29:
	push r28
.LCFI0:
	.cfi_def_cfa_offset 3
	.cfi_offset 28, -2
/* prologue: function */
/* frame size = 0 */
/* stack size = 1 */
.L__stack_usage = 1
	mov r28,r24
	.loc 1 340 0
	call lcd_waitbusy
.LVL30:
	.loc 1 341 0
	ldi r22,0
	mov r24,r28
/* epilogue start */
	.loc 1 342 0
	pop r28
.LVL31:
	.loc 1 341 0
	jmp lcd_write
.LVL32:
	.cfi_endproc
.LFE12:
	.size	lcd_command, .-lcd_command
	.section	.text.lcd_data,"ax",@progbits
.global	lcd_data
	.type	lcd_data, @function
lcd_data:
.LFB13:
	.loc 1 351 0
	.cfi_startproc
.LVL33:
	push r28
.LCFI1:
	.cfi_def_cfa_offset 3
	.cfi_offset 28, -2
/* prologue: function */
/* frame size = 0 */
/* stack size = 1 */
.L__stack_usage = 1
	mov r28,r24
	.loc 1 352 0
	call lcd_waitbusy
.LVL34:
	.loc 1 353 0
	ldi r22,lo8(1)
	mov r24,r28
/* epilogue start */
	.loc 1 354 0
	pop r28
.LVL35:
	.loc 1 353 0
	jmp lcd_write
.LVL36:
	.cfi_endproc
.LFE13:
	.size	lcd_data, .-lcd_data
	.section	.text.lcd_gotoxy,"ax",@progbits
.global	lcd_gotoxy
	.type	lcd_gotoxy, @function
lcd_gotoxy:
.LFB14:
	.loc 1 365 0
	.cfi_startproc
.LVL37:
	push r28
.LCFI2:
	.cfi_def_cfa_offset 3
	.cfi_offset 28, -2
/* prologue: function */
/* frame size = 0 */
/* stack size = 1 */
.L__stack_usage = 1
	mov r28,r24
	.loc 1 370 0
	tst r22
	breq .L68
.LVL38:
.LBB100:
.LBB101:
	.loc 1 340 0
	call lcd_waitbusy
.LVL39:
	.loc 1 341 0
	ldi r22,0
	ldi r24,lo8(-64)
	add r24,r28
.LVL40:
/* epilogue start */
.LBE101:
.LBE100:
	.loc 1 386 0
	pop r28
.LVL41:
.LBB103:
.LBB102:
	.loc 1 341 0
	jmp lcd_write
.LVL42:
.L68:
.LBE102:
.LBE103:
.LBB104:
.LBB105:
	.loc 1 340 0
	call lcd_waitbusy
.LVL43:
	.loc 1 341 0
	ldi r22,0
	ldi r24,lo8(-128)
	add r24,r28
.LVL44:
/* epilogue start */
.LBE105:
.LBE104:
	.loc 1 386 0
	pop r28
.LVL45:
.LBB107:
.LBB106:
	.loc 1 341 0
	jmp lcd_write
.LVL46:
.LBE106:
.LBE107:
	.cfi_endproc
.LFE14:
	.size	lcd_gotoxy, .-lcd_gotoxy
	.section	.text.lcd_getxy,"ax",@progbits
.global	lcd_getxy
	.type	lcd_getxy, @function
lcd_getxy:
.LFB15:
	.loc 1 392 0
	.cfi_startproc
/* prologue: function */
/* frame size = 0 */
/* stack size = 0 */
.L__stack_usage = 0
	.loc 1 393 0
	call lcd_waitbusy
.LVL47:
	.loc 1 394 0
	ldi r25,0
	ret
	.cfi_endproc
.LFE15:
	.size	lcd_getxy, .-lcd_getxy
	.section	.text.lcd_clrscr,"ax",@progbits
.global	lcd_clrscr
	.type	lcd_clrscr, @function
lcd_clrscr:
.LFB16:
	.loc 1 401 0
	.cfi_startproc
/* prologue: function */
/* frame size = 0 */
/* stack size = 0 */
.L__stack_usage = 0
.LVL48:
.LBB108:
.LBB109:
	.loc 1 340 0
	call lcd_waitbusy
.LVL49:
	.loc 1 341 0
	ldi r22,0
	ldi r24,lo8(1)
	jmp lcd_write
.LVL50:
.LBE109:
.LBE108:
	.cfi_endproc
.LFE16:
	.size	lcd_clrscr, .-lcd_clrscr
	.section	.text.lcd_home,"ax",@progbits
.global	lcd_home
	.type	lcd_home, @function
lcd_home:
.LFB17:
	.loc 1 410 0
	.cfi_startproc
/* prologue: function */
/* frame size = 0 */
/* stack size = 0 */
.L__stack_usage = 0
.LVL51:
.LBB110:
.LBB111:
	.loc 1 340 0
	call lcd_waitbusy
.LVL52:
	.loc 1 341 0
	ldi r22,0
	ldi r24,lo8(2)
	jmp lcd_write
.LVL53:
.LBE111:
.LBE110:
	.cfi_endproc
.LFE17:
	.size	lcd_home, .-lcd_home
	.section	.text.lcd_putc,"ax",@progbits
.global	lcd_putc
	.type	lcd_putc, @function
lcd_putc:
.LFB18:
	.loc 1 421 0
	.cfi_startproc
.LVL54:
	push r28
.LCFI3:
	.cfi_def_cfa_offset 3
	.cfi_offset 28, -2
/* prologue: function */
/* frame size = 0 */
/* stack size = 1 */
.L__stack_usage = 1
	mov r28,r24
	.loc 1 425 0
	call lcd_waitbusy
.LVL55:
	.loc 1 426 0
	cpi r28,lo8(10)
	breq .L76
	.loc 1 456 0
	ldi r22,lo8(1)
	mov r24,r28
.LVL56:
/* epilogue start */
	.loc 1 459 0
	pop r28
.LVL57:
	.loc 1 456 0
	jmp lcd_write
.LVL58:
.L76:
.LBB116:
.LBB117:
	.loc 1 298 0
	cpi r24,lo8(64)
	brlo .L77
	ldi r28,lo8(-128)
.LVL59:
.L74:
.LBB118:
.LBB119:
	.loc 1 340 0
	call lcd_waitbusy
.LVL60:
	.loc 1 341 0
	ldi r22,0
	mov r24,r28
/* epilogue start */
.LBE119:
.LBE118:
.LBE117:
.LBE116:
	.loc 1 459 0
	pop r28
.LBB123:
.LBB122:
.LBB121:
.LBB120:
	.loc 1 341 0
	jmp lcd_write
.LVL61:
.L77:
.LBE120:
.LBE121:
	.loc 1 298 0
	ldi r28,lo8(-64)
.LVL62:
	rjmp .L74
.LBE122:
.LBE123:
	.cfi_endproc
.LFE18:
	.size	lcd_putc, .-lcd_putc
	.section	.text.lcd_puts,"ax",@progbits
.global	lcd_puts
	.type	lcd_puts, @function
lcd_puts:
.LFB19:
	.loc 1 469 0
	.cfi_startproc
.LVL63:
	push r28
.LCFI4:
	.cfi_def_cfa_offset 3
	.cfi_offset 28, -2
	push r29
.LCFI5:
	.cfi_def_cfa_offset 4
	.cfi_offset 29, -3
/* prologue: function */
/* frame size = 0 */
/* stack size = 2 */
.L__stack_usage = 2
	.loc 1 472 0
	movw r28,r24
	adiw r28,1
.LVL64:
	movw r30,r24
	ld r24,Z
.LVL65:
	tst r24
	breq .L78
.L80:
	.loc 1 473 0
	call lcd_putc
.LVL66:
	.loc 1 472 0
	ld r24,Y+
.LVL67:
	cpse r24,__zero_reg__
	rjmp .L80
.L78:
/* epilogue start */
	.loc 1 476 0
	pop r29
	pop r28
.LVL68:
	ret
	.cfi_endproc
.LFE19:
	.size	lcd_puts, .-lcd_puts
	.section	.text.lcd_puts_p,"ax",@progbits
.global	lcd_puts_p
	.type	lcd_puts_p, @function
lcd_puts_p:
.LFB20:
	.loc 1 486 0
	.cfi_startproc
.LVL69:
	push r28
.LCFI6:
	.cfi_def_cfa_offset 3
	.cfi_offset 28, -2
	push r29
.LCFI7:
	.cfi_def_cfa_offset 4
	.cfi_offset 29, -3
/* prologue: function */
/* frame size = 0 */
/* stack size = 2 */
.L__stack_usage = 2
.LBB124:
	.loc 1 489 0
	movw r28,r24
	adiw r28,1
.LVL70:
	.loc 1 489 0
	movw r30,r24
/* #APP */
 ;  489 ".././lcd.c" 1
	lpm r24, Z
	
 ;  0 "" 2
.LVL71:
/* #NOAPP */
.LBE124:
	.loc 1 489 0
	tst r24
	breq .L83
.L85:
.LVL72:
	.loc 1 490 0
	call lcd_putc
.LVL73:
.LBB125:
	.loc 1 489 0
	movw r30,r28
/* #APP */
 ;  489 ".././lcd.c" 1
	lpm r24, Z
	
 ;  0 "" 2
.LVL74:
/* #NOAPP */
	adiw r28,1
.LVL75:
.LBE125:
	.loc 1 489 0
	cpse r24,__zero_reg__
	rjmp .L85
.L83:
/* epilogue start */
	.loc 1 493 0
	pop r29
	pop r28
.LVL76:
	ret
	.cfi_endproc
.LFE20:
	.size	lcd_puts_p, .-lcd_puts_p
	.section	.text.lcd_init,"ax",@progbits
.global	lcd_init
	.type	lcd_init, @function
lcd_init:
.LFB21:
	.loc 1 505 0
	.cfi_startproc
.LVL77:
	push r28
.LCFI8:
	.cfi_def_cfa_offset 3
	.cfi_offset 28, -2
/* prologue: function */
/* frame size = 0 */
/* stack size = 1 */
.L__stack_usage = 1
	mov r28,r24
	.loc 1 531 0
	sbi 0x17,3
	.loc 1 532 0
	sbi 0x17,2
	.loc 1 533 0
	sbi 0x17,1
	.loc 1 534 0
	sbi 0x17,4
	.loc 1 535 0
	sbi 0x17,5
	.loc 1 536 0
	sbi 0x17,6
	.loc 1 537 0
	sbi 0x17,7
.LVL78:
.LBB126:
.LBB127:
	.loc 2 276 0
	ldi r24,lo8(-1537)
	ldi r25,hi8(-1537)
1:	sbiw r24,1
	brne 1b
.LVL79:
	rjmp .
	nop
.LVL80:
.LBE127:
.LBE126:
	.loc 1 542 0
	sbi 0x18,5
	.loc 1 543 0
	sbi 0x18,4
.LBB128:
.LBB129:
	.loc 1 103 0
	sbi 0x18,1
.LVL81:
.LBB130:
.LBB131:
	.loc 2 276 0
	ldi r25,lo8(5)
1:	dec r25
	brne 1b
	nop
.LVL82:
.LBE131:
.LBE130:
	.loc 1 105 0
	cbi 0x18,1
.LVL83:
.LBE129:
.LBE128:
.LBB132:
.LBB133:
	.loc 2 276 0
	ldi r24,lo8(19999)
	ldi r25,hi8(19999)
1:	sbiw r24,1
	brne 1b
	rjmp .
	nop
.LVL84:
.LBE133:
.LBE132:
.LBB134:
.LBB135:
	.loc 1 103 0
	sbi 0x18,1
.LVL85:
.LBB136:
.LBB137:
	.loc 2 276 0
	ldi r25,lo8(5)
1:	dec r25
	brne 1b
	nop
.LVL86:
.LBE137:
.LBE136:
	.loc 1 105 0
	cbi 0x18,1
.LVL87:
.LBE135:
.LBE134:
.LBB138:
.LBB139:
	.loc 2 276 0
	ldi r24,lo8(255)
	ldi r25,hi8(255)
1:	sbiw r24,1
	brne 1b
	rjmp .
	nop
.LVL88:
.LBE139:
.LBE138:
.LBB140:
.LBB141:
	.loc 1 103 0
	sbi 0x18,1
.LVL89:
.LBB142:
.LBB143:
	.loc 2 276 0
	ldi r25,lo8(5)
1:	dec r25
	brne 1b
	nop
.LVL90:
.LBE143:
.LBE142:
	.loc 1 105 0
	cbi 0x18,1
.LVL91:
.LBE141:
.LBE140:
.LBB144:
.LBB145:
	.loc 2 276 0
	ldi r24,lo8(255)
	ldi r25,hi8(255)
1:	sbiw r24,1
	brne 1b
	rjmp .
	nop
.LVL92:
.LBE145:
.LBE144:
	.loc 1 556 0
	cbi 0x18,4
.LBB146:
.LBB147:
	.loc 1 103 0
	sbi 0x18,1
.LVL93:
.LBB148:
.LBB149:
	.loc 2 276 0
	ldi r25,lo8(5)
1:	dec r25
	brne 1b
	nop
.LVL94:
.LBE149:
.LBE148:
	.loc 1 105 0
	cbi 0x18,1
.LVL95:
.LBE147:
.LBE146:
.LBB150:
.LBB151:
	.loc 2 276 0
	ldi r24,lo8(255)
	ldi r25,hi8(255)
1:	sbiw r24,1
	brne 1b
	rjmp .
	nop
.LVL96:
.LBE151:
.LBE150:
.LBB152:
.LBB153:
	.loc 1 340 0
	call lcd_waitbusy
.LVL97:
	.loc 1 341 0
	ldi r22,0
	ldi r24,lo8(40)
	call lcd_write
.LVL98:
.LBE153:
.LBE152:
.LBB154:
.LBB155:
	.loc 1 340 0
	call lcd_waitbusy
.LVL99:
	.loc 1 341 0
	ldi r22,0
	ldi r24,lo8(8)
	call lcd_write
.LVL100:
.LBE155:
.LBE154:
.LBB156:
.LBB157:
.LBB158:
	.loc 1 340 0
	call lcd_waitbusy
.LVL101:
	.loc 1 341 0
	ldi r22,0
	ldi r24,lo8(1)
	call lcd_write
.LVL102:
.LBE158:
.LBE157:
.LBE156:
.LBB159:
.LBB160:
	.loc 1 340 0
	call lcd_waitbusy
.LVL103:
	.loc 1 341 0
	ldi r22,0
	ldi r24,lo8(6)
	call lcd_write
.LVL104:
.LBE160:
.LBE159:
.LBB161:
.LBB162:
	.loc 1 340 0
	call lcd_waitbusy
.LVL105:
	.loc 1 341 0
	ldi r22,0
	mov r24,r28
/* epilogue start */
.LBE162:
.LBE161:
	.loc 1 592 0
	pop r28
.LVL106:
.LBB164:
.LBB163:
	.loc 1 341 0
	jmp lcd_write
.LVL107:
.LBE163:
.LBE164:
	.cfi_endproc
.LFE21:
	.size	lcd_init, .-lcd_init
	.text
.Letext0:
	.file 3 "c:\\program files (x86)\\atmel\\studio\\7.0\\toolchain\\avr8\\avr8-gnu-toolchain\\avr\\include\\stdint.h"