	.file	"log.c"
__SP_H__ = 0x3e
__SP_L__ = 0x3d
__SREG__ = 0x3f
__RAMPZ__ = 0x3b
__tmp_reg__ = 0
__zero_reg__ = 1
	.text
.Ltext0:
	.cfi_sections	.debug_frame
	.section	.text.init_log,"ax",@progbits
.global	init_log
	.type	init_log, @function
init_log:
.LFB6:
	.file 1 ".././log.c"
	.loc 1 39 0
	.cfi_startproc
/* prologue: function */
/* frame size = 0 */
/* stack size = 0 */
.L__stack_usage = 0
	.loc 1 40 0
	ldi r24,lo8(log_List)
	ldi r25,hi8(log_List)
	sts pLogStart+1,r25
	sts pLogStart,r24
	.loc 1 41 0
	sts pLogEnd+1,r25
	sts pLogEnd,r24
	ret
	.cfi_endproc
.LFE6:
	.size	init_log, .-init_log
	.section	.text.getErrorText,"ax",@progbits
.global	getErrorText
	.type	getErrorText, @function
getErrorText:
.LFB7:
	.loc 1 45 0
	.cfi_startproc
.LVL0:
/* prologue: function */
/* frame size = 0 */
/* stack size = 0 */
.L__stack_usage = 0
.LBB20:
.LBB21:
.LBB22:
.LBB23:
	.loc 1 102 0
	lds r18,pLogEnd
	lds r19,pLogEnd+1
	lds r20,pLogStart
	lds r21,pLogStart+1
	cp r18,r20
	cpc r19,r21
	brsh .L38
	.loc 1 105 0
	subi r18,112
	sbci r19,-2
.L38:
	sub r18,r20
	sbc r19,r21
	asr r19
	ror r18
	ldi r25,lo8(-51)
	mul r18,r25
	mov r18,r0
	clr r1
.LBE23:
.LBE22:
	.loc 1 110 0
	cp r24,r18
	brsh .L28
	.loc 1 114 0
	ldi r18,lo8(10)
	mul r24,r18
	movw r24,r0
	clr __zero_reg__
.LVL1:
	movw r30,r20
	add r30,r24
	adc r31,r25
	ldi r18,hi8(log_List+390)
	cpi r30,lo8(log_List+390)
	cpc r31,r18
	breq .+2
	brsh .L46
.L6:
.LVL2:
.LBE21:
.LBE20:
	.loc 1 48 0
	sbiw r30,0
	breq .L28
.LBB25:
	.loc 1 49 0
	ldd r24,Z+6
.LVL3:
	.loc 1 50 0
	ldd r25,Z+7
.LVL4:
.LBB26:
	.loc 1 52 0
	tst r24
	brne .+2
	rjmp .L47
.LVL5:
	cpi r24,lo8(1)
	breq .L48
.LVL6:
	cpi r24,lo8(2)
	breq .L13
.LVL7:
	cpi r24,lo8(3)
	breq .L14
.LVL8:
	cpi r24,lo8(4)
	breq .L49
.LVL9:
	cpi r24,lo8(5)
	breq .L50
.LVL10:
.L28:
.LBE26:
.LBE25:
	.loc 1 57 0
	ldi r24,0
	ldi r25,0
	ret
.LVL11:
.L48:
.LBB29:
.LBB27:
	.loc 1 52 0
	tst r25
	brne .+2
	rjmp .L20
.LVL12:
	cpi r25,lo8(1)
	brne .+2
	rjmp .L51
.LVL13:
	cpi r25,lo8(2)
	brne .+2
	rjmp .L29
.LVL14:
	cpi r25,lo8(3)
	brne .+2
	rjmp .L30
.LVL15:
	cpi r25,lo8(4)
	breq .L31
.LVL16:
	cpi r25,lo8(5)
	breq .L32
.LVL17:
	cpi r25,lo8(6)
	breq .L33
.LVL18:
	cpi r25,lo8(7)
	brne .L28
	ldi r24,lo8(8)
	ldi r25,0
.LVL19:
	rjmp .L8
.LVL20:
.L13:
	tst r25
	brne .+2
	rjmp .L22
.LVL21:
	cpi r25,lo8(1)
	brne .L28
	ldi r24,lo8(10)
	ldi r25,0
.LVL22:
	rjmp .L8
.LVL23:
.L46:
.LBE27:
.LBE29:
.LBB30:
.LBB24:
	.loc 1 117 0
	subi r24,-112
	sbci r25,1
	movw r30,r20
	add r30,r24
	adc r31,r25
	rjmp .L6
.LVL24:
.L14:
.LBE24:
.LBE30:
.LBB31:
.LBB28:
	.loc 1 52 0
	tst r25
	breq .L24
.LVL25:
	cpi r25,lo8(1)
	brne .L28
	ldi r24,lo8(12)
	ldi r25,0
.LVL26:
	rjmp .L8
.LVL27:
.L49:
	cpse r25,__zero_reg__
	rjmp .L28
	ldi r24,lo8(13)
	ldi r25,0
.LVL28:
	rjmp .L8
.LVL29:
.L50:
	.loc 1 52 0 is_stmt 0 discriminator 1
	cpse r25,__zero_reg__
	rjmp .L28
	.loc 1 52 0
	ldi r24,lo8(14)
	ldi r25,0
.LVL30:
	rjmp .L8
.LVL31:
.L47:
	cpse r25,__zero_reg__
	rjmp .L28
	ldi r24,0
	ldi r25,0
.LVL32:
.L8:
	.loc 1 53 0 is_stmt 1
	lsl r24
	rol r25
	movw r18,r24
	lsl r18
	rol r19
	lsl r18
	rol r19
	lsl r18
	rol r19
	add r24,r18
	adc r25,r19
	subi r24,lo8(-(ErrorText+2))
	sbci r25,hi8(-(ErrorText+2))
	ret
.LVL33:
.L33:
	.loc 1 52 0
	ldi r24,lo8(7)
	ldi r25,0
.LVL34:
	rjmp .L8
.LVL35:
.L31:
	ldi r24,lo8(5)
	ldi r25,0
.LVL36:
	rjmp .L8
.LVL37:
.L32:
	ldi r24,lo8(6)
	ldi r25,0
.LVL38:
	rjmp .L8
.LVL39:
.L20:
	ldi r24,lo8(1)
	ldi r25,0
.LVL40:
	rjmp .L8
.LVL41:
.L51:
	ldi r24,lo8(2)
	ldi r25,0
.LVL42:
	rjmp .L8
.LVL43:
.L29:
	ldi r24,lo8(3)
	ldi r25,0
.LVL44:
	rjmp .L8
.LVL45:
.L30:
	ldi r24,lo8(4)
	ldi r25,0
.LVL46:
	rjmp .L8
.LVL47:
.L24:
	ldi r24,lo8(11)
	ldi r25,0
.LVL48:
	rjmp .L8
.LVL49:
.L22:
	ldi r24,lo8(9)
	ldi r25,0
.LVL50:
	rjmp .L8
.LBE28:
.LBE31:
	.cfi_endproc
.LFE7:
	.size	getErrorText, .-getErrorText
	.section	.text.log_putError,"ax",@progbits
.global	log_putError
	.type	log_putError, @function
log_putError:
.LFB8:
	.loc 1 60 0
	.cfi_startproc
.LVL51:
	push r28
.LCFI0:
	.cfi_def_cfa_offset 4
	.cfi_offset 28, -3
	push r29
.LCFI1:
	.cfi_def_cfa_offset 5
	.cfi_offset 29, -4
/* prologue: function */
/* frame size = 0 */
/* stack size = 2 */
.L__stack_usage = 2
.LVL52:
.LBB45:
.LBB46:
	.loc 1 75 0
	lds r30,pLogEnd
	lds r31,pLogEnd+1
	lds r25,time_Uptime
	st Z,r25
	.loc 1 76 0
	lds r25,time_Uptime+1
	std Z+1,r25
	.loc 1 77 0
	lds r25,time_Uptime+2
	std Z+2,r25
	.loc 1 78 0
	lds r25,time_Uptime+3
	std Z+3,r25
	.loc 1 79 0
	ldi r25,lo8(69)
	std Z+5,r25
	.loc 1 80 0
	std Z+6,r24
	.loc 1 81 0
	std Z+7,r22
	.loc 1 82 0
	std Z+9,r21
	std Z+8,r20
	.loc 1 83 0
	ldi r24,lo8(-128)
.LVL53:
	std Z+4,r24
	.loc 1 84 0
	lds r24,serusb_Active
	cpi r24,lo8(-1)
	breq .L88
.LVL54:
.L53:
	.loc 1 89 0
	adiw r30,10
	.loc 1 90 0
	ldi r24,hi8(log_List+390)
	cpi r30,lo8(log_List+390)
	cpc r31,r24
	breq .+2
	brsh .L68
	.loc 1 89 0
	sts pLogEnd+1,r31
	sts pLogEnd,r30
	.loc 1 93 0
	lds r24,pLogStart
	lds r25,pLogStart+1
	cp r24,r30
	cpc r25,r31
	breq .L89
.L71:
.LVL55:
.LBE46:
.LBE45:
	.loc 1 62 0
	ldi r24,lo8(-1)
	sts log_unreadErrors,r24
/* epilogue start */
	.loc 1 63 0
	pop r29
	pop r28
	ret
.LVL56:
.L68:
.LBB55:
.LBB53:
	.loc 1 91 0
	ldi r24,lo8(log_List)
	ldi r25,hi8(log_List)
	sts pLogEnd+1,r25
	sts pLogEnd,r24
	movw r30,r24
	.loc 1 93 0
	lds r24,pLogStart
	lds r25,pLogStart+1
	cp r24,r30
	cpc r25,r31
	brne .L71
.L89:
	.loc 1 94 0
	adiw r30,10
	.loc 1 95 0
	ldi r24,hi8(log_List+390)
	cpi r30,lo8(log_List+390)
	cpc r31,r24
	breq .L90
	brlo .L90
	.loc 1 96 0
	ldi r24,lo8(log_List)
	ldi r25,hi8(log_List)
	sts pLogStart+1,r25
	sts pLogStart,r24
.LVL57:
.LBE53:
.LBE55:
	.loc 1 62 0
	ldi r24,lo8(-1)
	sts log_unreadErrors,r24
/* epilogue start */
	.loc 1 63 0
	pop r29
	pop r28
	ret
.LVL58:
.L90:
.LBB56:
.LBB54:
	.loc 1 94 0
	sts pLogStart+1,r31
	sts pLogStart,r30
	rjmp .L71
.LVL59:
.L88:
	.loc 1 85 0
	ldi r24,lo8(stringLog)
	ldi r25,hi8(stringLog)
	call serial0SER_USB_sendStringP
.LVL60:
	.loc 1 86 0
	lds r28,pLogEnd
	lds r29,pLogEnd+1
.LVL61:
.LBB47:
.LBB48:
	.loc 1 142 0
	sbiw r28,0
	brne .+2
	rjmp .L54
	.loc 1 144 0
	ldd r24,Y+3
	cpse r24,__zero_reg__
	rjmp .L91
	.loc 1 149 0
	ldd r24,Y+2
	.loc 1 151 0
	ldi r22,lo8(Log_TextBuff)
	ldi r23,hi8(Log_TextBuff)
	.loc 1 149 0
	cpse r24,__zero_reg__
	rjmp .L92
.LBB49:
	.loc 1 155 0
	ldd r24,Y+1
	call putChar_Dec2
.LVL62:
	movw r30,r24
.LVL63:
	.loc 1 156 0
	ldi r24,lo8(115)
.LVL64:
	st Z,r24
	.loc 1 157 0
	ld r25,Y
	lsl r25
.LVL65:
	.loc 1 159 0
	cpi r25,lo8(25)
	brsh .+2
	rjmp .L74
	.loc 1 160 0
	ldi r24,lo8(-25)
	add r24,r25
.LVL66:
	.loc 1 159 0
	cpi r24,lo8(25)
	brsh .+2
	rjmp .L75
	.loc 1 160 0
	ldi r24,lo8(-50)
.LVL67:
	add r24,r25
.LVL68:
	.loc 1 159 0
	cpi r24,lo8(25)
	brsh .+2
	rjmp .L76
	.loc 1 160 0
	ldi r24,lo8(-75)
.LVL69:
	add r24,r25
.LVL70:
	.loc 1 159 0
	cpi r24,lo8(25)
	brsh .+2
	rjmp .L77
	.loc 1 160 0
	ldi r24,lo8(-100)
.LVL71:
	add r24,r25
.LVL72:
	.loc 1 159 0
	cpi r24,lo8(25)
	brsh .+2
	rjmp .L78
	.loc 1 160 0
	ldi r24,lo8(-125)
.LVL73:
	add r24,r25
.LVL74:
	.loc 1 159 0
	cpi r24,lo8(25)
	brsh .+2
	rjmp .L79
	.loc 1 160 0
	ldi r24,lo8(106)
.LVL75:
	add r24,r25
.LVL76:
	.loc 1 159 0
	cpi r24,lo8(25)
	brsh .+2
	rjmp .L80
	.loc 1 160 0
	ldi r24,lo8(81)
.LVL77:
	add r24,r25
.LVL78:
	.loc 1 159 0
	cpi r24,lo8(25)
	brsh .+2
	rjmp .L81
	.loc 1 160 0
	ldi r24,lo8(56)
.LVL79:
	add r24,r25
.LVL80:
	.loc 1 159 0
	cpi r24,lo8(25)
	brsh .+2
	rjmp .L82
	.loc 1 160 0
	ldi r24,lo8(31)
.LVL81:
	add r24,r25
.LVL82:
	.loc 1 159 0
	cpi r24,lo8(25)
	brsh .+2
	rjmp .L83
	.loc 1 160 0
	subi r25,lo8(-(6))
.LVL83:
	.loc 1 161 0
	ldi r24,lo8(10)
.LVL84:
.L59:
	subi r24,lo8(-(48))
.L58:
.LVL85:
	.loc 1 163 0
	std Z+1,r24
.LVL86:
	.loc 1 165 0
	lsl r25
.LVL87:
	.loc 1 166 0
	cpi r25,lo8(5)
	brsh .+2
	rjmp .L84
	ldi r18,0
	rjmp .L61
.LVL88:
.L85:
	.loc 1 168 0
	mov r18,r19
.LVL89:
.L61:
	.loc 1 167 0
	subi r25,lo8(-(-5))
.LVL90:
	.loc 1 168 0
	ldi r19,lo8(1)
	add r19,r18
.LVL91:
	.loc 1 166 0
	cpi r25,lo8(5)
	brsh .L85
	subi r18,lo8(-(49))
.LVL92:
.L60:
	.loc 1 170 0
	movw r26,r30
	adiw r26,3
.LVL93:
	std Z+2,r18
	rjmp .L56
.LVL94:
.L92:
.LBE49:
	.loc 1 151 0
	call putChar_Dec2
.LVL95:
	.loc 1 152 0
	movw r22,r24
	subi r22,-1
	sbci r23,-1
.LVL96:
	ldi r18,lo8(109)
	movw r30,r24
	st Z,r18
	.loc 1 153 0
	ldd r24,Y+1
	call putChar_Dec2
.LVL97:
	movw r26,r24
.LVL98:
.L56:
	.loc 1 173 0
	ldd r25,Y+4
	cpi r25,lo8(64)
	brne .+2
	rjmp .L63
	cpi r25,lo8(-128)
	breq .L64
	cpi r25,lo8(32)
	breq .L93
	.loc 1 184 0
	movw r30,r26
	adiw r30,1
.LVL99:
	ldi r24,lo8(63)
	st X,r24
.L66:
	.loc 1 188 0
	movw r22,r30
	subi r22,-1
	sbci r23,-1
.LVL100:
	ldd r24,Y+5
	st Z,r24
	.loc 1 190 0
	ldd r24,Y+6
	call putChar_hex
.LVL101:
	.loc 1 191 0
	movw r22,r24
	ldd r24,Y+7
.LVL102:
	call putChar_hex
.LVL103:
	.loc 1 192 0
	movw r22,r24
	subi r22,-1
	sbci r23,-1
.LVL104:
	ldi r18,lo8(45)
	movw r30,r24
	st Z,r18
	.loc 1 193 0
	ldd r24,Y+8
	ldd r25,Y+9
	call putChar_long
.LVL105:
	.loc 1 194 0
	movw r30,r24
	st Z,__zero_reg__
.LVL106:
.L67:
.LBE48:
.LBE47:
	.loc 1 86 0
	ldi r24,lo8(Log_TextBuff)
	ldi r25,hi8(Log_TextBuff)
	call serial0SER_USB_sendString
.LVL107:
	.loc 1 87 0
	ldi r24,lo8(cr_lf)
	ldi r25,hi8(cr_lf)
	call serial0SER_USB_sendStringP
.LVL108:
	lds r30,pLogEnd
	lds r31,pLogEnd+1
	rjmp .L53
.LVL109:
.L91:
.LBB52:
.LBB51:
	.loc 1 146 0
	ldi r22,lo8(Log_TextBuff)
	ldi r23,hi8(Log_TextBuff)
	call putChar_Dec2
.LVL110:
	.loc 1 147 0
	movw r22,r24
	subi r22,-1
	sbci r23,-1
.LVL111:
	ldi r18,lo8(104)
	movw r30,r24
	st Z,r18
	.loc 1 148 0
	ldd r24,Y+2
	call putChar_Dec2
.LVL112:
	movw r26,r24
.LVL113:
	rjmp .L56
.LVL114:
.L93:
	.loc 1 181 0
	movw r30,r26
	adiw r30,1
.LVL115:
	st X,r25
	rjmp .L66
.LVL116:
.L64:
	.loc 1 175 0
	movw r30,r26
	adiw r30,1
.LVL117:
	ldi r24,lo8(42)
	st X,r24
	rjmp .L66
.LVL118:
.L63:
	.loc 1 178 0
	movw r30,r26
	adiw r30,1
.LVL119:
	ldi r24,lo8(-91)
	st X,r24
	rjmp .L66
.LVL120:
.L54:
	.loc 1 202 0
	ldi r24,lo8(45)
	sts Log_TextBuff,r24
	.loc 1 203 0
	sts Log_TextBuff+1,__zero_reg__
	rjmp .L67
.LVL121:
.L84:
.LBB50:
	.loc 1 166 0
	ldi r18,lo8(48)
	rjmp .L60
.LVL122:
.L74:
	.loc 1 159 0
	ldi r24,lo8(48)
	rjmp .L58
.LVL123:
.L75:
	mov r25,r24
	.loc 1 161 0
	ldi r24,lo8(1)
.LVL124:
	rjmp .L59
.LVL125:
.L79:
	.loc 1 159 0
	mov r25,r24
	.loc 1 161 0
	ldi r24,lo8(5)
.LVL126:
	rjmp .L59
.LVL127:
.L78:
	.loc 1 159 0
	mov r25,r24
	.loc 1 161 0
	ldi r24,lo8(4)
.LVL128:
	rjmp .L59
.LVL129:
.L77:
	.loc 1 159 0
	mov r25,r24
	.loc 1 161 0
	ldi r24,lo8(3)
.LVL130:
	rjmp .L59
.LVL131:
.L76:
	.loc 1 159 0
	mov r25,r24
	.loc 1 161 0
	ldi r24,lo8(2)
.LVL132:
	rjmp .L59
.LVL133:
.L83:
	.loc 1 159 0
	mov r25,r24
	.loc 1 161 0
	ldi r24,lo8(9)
.LVL134:
	rjmp .L59
.LVL135:
.L82:
	.loc 1 159 0
	mov r25,r24
	.loc 1 161 0
	ldi r24,lo8(8)
.LVL136:
	rjmp .L59
.LVL137:
.L81:
	.loc 1 159 0
	mov r25,r24
	.loc 1 161 0
	ldi r24,lo8(7)
.LVL138:
	rjmp .L59
.LVL139:
.L80:
	.loc 1 159 0
	mov r25,r24
	.loc 1 161 0
	ldi r24,lo8(6)
.LVL140:
	rjmp .L59
.LBE50:
.LBE51:
.LBE52:
.LBE54:
.LBE56:
	.cfi_endproc
.LFE8:
	.size	log_putError, .-log_putError
	.section	.text.log_putWarning,"ax",@progbits
.global	log_putWarning
	.type	log_putWarning, @function
log_putWarning:
.LFB9:
	.loc 1 65 0
	.cfi_startproc
.LVL141:
	push r28
.LCFI2:
	.cfi_def_cfa_offset 4
	.cfi_offset 28, -3
	push r29
.LCFI3:
	.cfi_def_cfa_offset 5
	.cfi_offset 29, -4
/* prologue: function */
/* frame size = 0 */
/* stack size = 2 */
.L__stack_usage = 2
.LVL142:
.LBB70:
.LBB71:
	.loc 1 75 0
	lds r30,pLogEnd
	lds r31,pLogEnd+1
	lds r25,time_Uptime
	st Z,r25
	.loc 1 76 0
	lds r25,time_Uptime+1
	std Z+1,r25
	.loc 1 77 0
	lds r25,time_Uptime+2
	std Z+2,r25
	.loc 1 78 0
	lds r25,time_Uptime+3
	std Z+3,r25
	.loc 1 79 0
	ldi r25,lo8(87)
	std Z+5,r25
	.loc 1 80 0
	std Z+6,r24
	.loc 1 81 0
	std Z+7,r22
	.loc 1 82 0
	std Z+9,r21
	std Z+8,r20
	.loc 1 83 0
	ldi r24,lo8(-128)
.LVL143:
	std Z+4,r24
	.loc 1 84 0
	lds r24,serusb_Active
	cpi r24,lo8(-1)
	breq .L130
.LVL144:
.L95:
	.loc 1 89 0
	adiw r30,10
	.loc 1 90 0
	ldi r24,hi8(log_List+390)
	cpi r30,lo8(log_List+390)
	cpc r31,r24
	breq .+2
	brsh .L110
	.loc 1 89 0
	sts pLogEnd+1,r31
	sts pLogEnd,r30
	.loc 1 93 0
	lds r24,pLogStart
	lds r25,pLogStart+1
	cp r24,r30
	cpc r25,r31
	breq .L131
.L94:
/* epilogue start */
.LBE71:
.LBE70:
	.loc 1 67 0
	pop r29
	pop r28
	ret
.L110:
.LBB80:
.LBB78:
	.loc 1 91 0
	ldi r24,lo8(log_List)
	ldi r25,hi8(log_List)
	sts pLogEnd+1,r25
	sts pLogEnd,r24
	movw r30,r24
	.loc 1 93 0
	lds r24,pLogStart
	lds r25,pLogStart+1
	cp r24,r30
	cpc r25,r31
	brne .L94
.L131:
	.loc 1 94 0
	adiw r30,10
	.loc 1 95 0
	ldi r24,hi8(log_List+390)
	cpi r30,lo8(log_List+390)
	cpc r31,r24
	breq .L132
	brlo .L132
	.loc 1 96 0
	ldi r24,lo8(log_List)
	ldi r25,hi8(log_List)
	sts pLogStart+1,r25
	sts pLogStart,r24
.LVL145:
/* epilogue start */
.LBE78:
.LBE80:
	.loc 1 67 0
	pop r29
	pop r28
	ret
.LVL146:
.L132:
.LBB81:
.LBB79:
	.loc 1 94 0
	sts pLogStart+1,r31
	sts pLogStart,r30
	rjmp .L94
.LVL147:
.L130:
	.loc 1 85 0
	ldi r24,lo8(stringLog)
	ldi r25,hi8(stringLog)
	call serial0SER_USB_sendStringP
.LVL148:
	.loc 1 86 0
	lds r28,pLogEnd
	lds r29,pLogEnd+1
.LVL149:
.LBB72:
.LBB73:
	.loc 1 142 0
	sbiw r28,0
	brne .+2
	rjmp .L96
	.loc 1 144 0
	ldd r24,Y+3
	cpse r24,__zero_reg__
	rjmp .L133
	.loc 1 149 0
	ldd r24,Y+2
	.loc 1 151 0
	ldi r22,lo8(Log_TextBuff)
	ldi r23,hi8(Log_TextBuff)
	.loc 1 149 0
	cpse r24,__zero_reg__
	rjmp .L134
.LBB74:
	.loc 1 155 0
	ldd r24,Y+1
	call putChar_Dec2
.LVL150:
	movw r30,r24
.LVL151:
	.loc 1 156 0
	ldi r24,lo8(115)
.LVL152:
	st Z,r24
	.loc 1 157 0
	ld r25,Y
	lsl r25
.LVL153:
	.loc 1 159 0
	cpi r25,lo8(25)
	brsh .+2
	rjmp .L116
	.loc 1 160 0
	ldi r24,lo8(-25)
	add r24,r25
.LVL154:
	.loc 1 159 0
	cpi r24,lo8(25)
	brsh .+2
	rjmp .L117
	.loc 1 160 0
	ldi r24,lo8(-50)
.LVL155:
	add r24,r25
.LVL156:
	.loc 1 159 0
	cpi r24,lo8(25)
	brsh .+2
	rjmp .L118
	.loc 1 160 0
	ldi r24,lo8(-75)
.LVL157:
	add r24,r25
.LVL158:
	.loc 1 159 0
	cpi r24,lo8(25)
	brsh .+2
	rjmp .L119
	.loc 1 160 0
	ldi r24,lo8(-100)
.LVL159:
	add r24,r25
.LVL160:
	.loc 1 159 0
	cpi r24,lo8(25)
	brsh .+2
	rjmp .L120
	.loc 1 160 0
	ldi r24,lo8(-125)
.LVL161:
	add r24,r25
.LVL162:
	.loc 1 159 0
	cpi r24,lo8(25)
	brsh .+2
	rjmp .L121
	.loc 1 160 0
	ldi r24,lo8(106)
.LVL163:
	add r24,r25
.LVL164:
	.loc 1 159 0
	cpi r24,lo8(25)
	brsh .+2
	rjmp .L122
	.loc 1 160 0
	ldi r24,lo8(81)
.LVL165:
	add r24,r25
.LVL166:
	.loc 1 159 0
	cpi r24,lo8(25)
	brsh .+2
	rjmp .L123
	.loc 1 160 0
	ldi r24,lo8(56)
.LVL167:
	add r24,r25
.LVL168:
	.loc 1 159 0
	cpi r24,lo8(25)
	brsh .+2
	rjmp .L124
	.loc 1 160 0
	ldi r24,lo8(31)
.LVL169:
	add r24,r25
.LVL170:
	.loc 1 159 0
	cpi r24,lo8(25)
	brsh .+2
	rjmp .L125
	.loc 1 160 0
	subi r25,lo8(-(6))
.LVL171:
	.loc 1 161 0
	ldi r24,lo8(10)
.LVL172:
.L101:
	subi r24,lo8(-(48))
.L100:
.LVL173:
	.loc 1 163 0
	std Z+1,r24
.LVL174:
	.loc 1 165 0
	lsl r25
.LVL175:
	.loc 1 166 0
	cpi r25,lo8(5)
	brsh .+2
	rjmp .L126
	ldi r18,0
	rjmp .L103
.LVL176:
.L127:
	.loc 1 168 0
	mov r18,r19
.LVL177:
.L103:
	.loc 1 167 0
	subi r25,lo8(-(-5))
.LVL178:
	.loc 1 168 0
	ldi r19,lo8(1)
	add r19,r18
.LVL179:
	.loc 1 166 0
	cpi r25,lo8(5)
	brsh .L127
	subi r18,lo8(-(49))
.LVL180:
.L102:
	.loc 1 170 0
	movw r26,r30
	adiw r26,3
.LVL181:
	std Z+2,r18
	rjmp .L98
.LVL182:
.L134:
.LBE74:
	.loc 1 151 0
	call putChar_Dec2
.LVL183:
	.loc 1 152 0
	movw r22,r24
	subi r22,-1
	sbci r23,-1
.LVL184:
	ldi r18,lo8(109)
	movw r30,r24
	st Z,r18
	.loc 1 153 0
	ldd r24,Y+1
	call putChar_Dec2
.LVL185:
	movw r26,r24
.LVL186:
.L98:
	.loc 1 173 0
	ldd r25,Y+4
	cpi r25,lo8(64)
	brne .+2
	rjmp .L105
	cpi r25,lo8(-128)
	breq .L106
	cpi r25,lo8(32)
	breq .L135
	.loc 1 184 0
	movw r30,r26
	adiw r30,1
.LVL187:
	ldi r24,lo8(63)
	st X,r24
.L108:
	.loc 1 188 0
	movw r22,r30
	subi r22,-1
	sbci r23,-1
.LVL188:
	ldd r24,Y+5
	st Z,r24
	.loc 1 190 0
	ldd r24,Y+6
	call putChar_hex
.LVL189:
	.loc 1 191 0
	movw r22,r24
	ldd r24,Y+7
.LVL190:
	call putChar_hex
.LVL191:
	.loc 1 192 0
	movw r22,r24
	subi r22,-1
	sbci r23,-1
.LVL192:
	ldi r18,lo8(45)
	movw r30,r24
	st Z,r18
	.loc 1 193 0
	ldd r24,Y+8
	ldd r25,Y+9
	call putChar_long
.LVL193:
	.loc 1 194 0
	movw r30,r24
	st Z,__zero_reg__
.LVL194:
.L109:
.LBE73:
.LBE72:
	.loc 1 86 0
	ldi r24,lo8(Log_TextBuff)
	ldi r25,hi8(Log_TextBuff)
	call serial0SER_USB_sendString
.LVL195:
	.loc 1 87 0
	ldi r24,lo8(cr_lf)
	ldi r25,hi8(cr_lf)
	call serial0SER_USB_sendStringP
.LVL196:
	lds r30,pLogEnd
	lds r31,pLogEnd+1
	rjmp .L95
.LVL197:
.L133:
.LBB77:
.LBB76:
	.loc 1 146 0
	ldi r22,lo8(Log_TextBuff)
	ldi r23,hi8(Log_TextBuff)
	call putChar_Dec2
.LVL198:
	.loc 1 147 0
	movw r22,r24
	subi r22,-1
	sbci r23,-1
.LVL199:
	ldi r18,lo8(104)
	movw r30,r24
	st Z,r18
	.loc 1 148 0
	ldd r24,Y+2
	call putChar_Dec2
.LVL200:
	movw r26,r24
.LVL201:
	rjmp .L98
.LVL202:
.L135:
	.loc 1 181 0
	movw r30,r26
	adiw r30,1
.LVL203:
	st X,r25
	rjmp .L108
.LVL204:
.L106:
	.loc 1 175 0
	movw r30,r26
	adiw r30,1
.LVL205:
	ldi r24,lo8(42)
	st X,r24
	rjmp .L108
.LVL206:
.L105:
	.loc 1 178 0
	movw r30,r26
	adiw r30,1
.LVL207:
	ldi r24,lo8(-91)
	st X,r24
	rjmp .L108
.LVL208:
.L96:
	.loc 1 202 0
	ldi r24,lo8(45)
	sts Log_TextBuff,r24
	.loc 1 203 0
	sts Log_TextBuff+1,__zero_reg__
	rjmp .L109
.LVL209:
.L126:
.LBB75:
	.loc 1 166 0
	ldi r18,lo8(48)
	rjmp .L102
.LVL210:
.L116:
	.loc 1 159 0
	ldi r24,lo8(48)
	rjmp .L100
.LVL211:
.L117:
	mov r25,r24
	.loc 1 161 0
	ldi r24,lo8(1)
.LVL212:
	rjmp .L101
.LVL213:
.L121:
	.loc 1 159 0
	mov r25,r24
	.loc 1 161 0
	ldi r24,lo8(5)
.LVL214:
	rjmp .L101
.LVL215:
.L120:
	.loc 1 159 0
	mov r25,r24
	.loc 1 161 0
	ldi r24,lo8(4)
.LVL216:
	rjmp .L101
.LVL217:
.L119:
	.loc 1 159 0
	mov r25,r24
	.loc 1 161 0
	ldi r24,lo8(3)
.LVL218:
	rjmp .L101
.LVL219:
.L118:
	.loc 1 159 0
	mov r25,r24
	.loc 1 161 0
	ldi r24,lo8(2)
.LVL220:
	rjmp .L101
.LVL221:
.L125:
	.loc 1 159 0
	mov r25,r24
	.loc 1 161 0
	ldi r24,lo8(9)
.LVL222:
	rjmp .L101
.LVL223:
.L124:
	.loc 1 159 0
	mov r25,r24
	.loc 1 161 0
	ldi r24,lo8(8)
.LVL224:
	rjmp .L101
.LVL225:
.L123:
	.loc 1 159 0
	mov r25,r24
	.loc 1 161 0
	ldi r24,lo8(7)
.LVL226:
	rjmp .L101
.LVL227:
.L122:
	.loc 1 159 0
	mov r25,r24
	.loc 1 161 0
	ldi r24,lo8(6)
.LVL228:
	rjmp .L101
.LBE75:
.LBE76:
.LBE77:
.LBE79:
.LBE81:
	.cfi_endproc
.LFE9:
	.size	log_putWarning, .-log_putWarning
	.section	.text.log_putInfo,"ax",@progbits
.global	log_putInfo
	.type	log_putInfo, @function
log_putInfo:
.LFB10:
	.loc 1 68 0
	.cfi_startproc
.LVL229:
	push r28
.LCFI4:
	.cfi_def_cfa_offset 4
	.cfi_offset 28, -3
	push r29
.LCFI5:
	.cfi_def_cfa_offset 5
	.cfi_offset 29, -4
/* prologue: function */
/* frame size = 0 */
/* stack size = 2 */
.L__stack_usage = 2
.LVL230:
.LBB95:
.LBB96:
	.loc 1 75 0
	lds r30,pLogEnd
	lds r31,pLogEnd+1
	lds r25,time_Uptime
	st Z,r25
	.loc 1 76 0
	lds r25,time_Uptime+1
	std Z+1,r25
	.loc 1 77 0
	lds r25,time_Uptime+2
	std Z+2,r25
	.loc 1 78 0
	lds r25,time_Uptime+3
	std Z+3,r25
	.loc 1 79 0
	ldi r25,lo8(73)
	std Z+5,r25
	.loc 1 80 0
	std Z+6,r24
	.loc 1 81 0
	std Z+7,r22
	.loc 1 82 0
	std Z+9,r21
	std Z+8,r20
	.loc 1 83 0
	ldi r24,lo8(-128)
.LVL231:
	std Z+4,r24
	.loc 1 84 0
	lds r24,serusb_Active
	cpi r24,lo8(-1)
	breq .L172
.LVL232:
.L137:
	.loc 1 89 0
	adiw r30,10
	.loc 1 90 0
	ldi r24,hi8(log_List+390)
	cpi r30,lo8(log_List+390)
	cpc r31,r24
	breq .+2
	brsh .L152
	.loc 1 89 0
	sts pLogEnd+1,r31
	sts pLogEnd,r30
	.loc 1 93 0
	lds r24,pLogStart
	lds r25,pLogStart+1
	cp r24,r30
	cpc r25,r31
	breq .L173
.L136:
/* epilogue start */
.LBE96:
.LBE95:
	.loc 1 70 0
	pop r29
	pop r28
	ret
.L152:
.LBB105:
.LBB103:
	.loc 1 91 0
	ldi r24,lo8(log_List)
	ldi r25,hi8(log_List)
	sts pLogEnd+1,r25
	sts pLogEnd,r24
	movw r30,r24
	.loc 1 93 0
	lds r24,pLogStart
	lds r25,pLogStart+1
	cp r24,r30
	cpc r25,r31
	brne .L136
.L173:
	.loc 1 94 0
	adiw r30,10
	.loc 1 95 0
	ldi r24,hi8(log_List+390)
	cpi r30,lo8(log_List+390)
	cpc r31,r24
	breq .L174
	brlo .L174
	.loc 1 96 0
	ldi r24,lo8(log_List)
	ldi r25,hi8(log_List)
	sts pLogStart+1,r25
	sts pLogStart,r24
.LVL233:
/* epilogue start */
.LBE103:
.LBE105:
	.loc 1 70 0
	pop r29
	pop r28
	ret
.LVL234:
.L174:
.LBB106:
.LBB104:
	.loc 1 94 0
	sts pLogStart+1,r31
	sts pLogStart,r30
	rjmp .L136
.LVL235:
.L172:
	.loc 1 85 0
	ldi r24,lo8(stringLog)
	ldi r25,hi8(stringLog)
	call serial0SER_USB_sendStringP
.LVL236:
	.loc 1 86 0
	lds r28,pLogEnd
	lds r29,pLogEnd+1
.LVL237:
.LBB97:
.LBB98:
	.loc 1 142 0
	sbiw r28,0
	brne .+2
	rjmp .L138
	.loc 1 144 0
	ldd r24,Y+3
	cpse r24,__zero_reg__
	rjmp .L175
	.loc 1 149 0
	ldd r24,Y+2
	.loc 1 151 0
	ldi r22,lo8(Log_TextBuff)
	ldi r23,hi8(Log_TextBuff)
	.loc 1 149 0
	cpse r24,__zero_reg__
	rjmp .L176
.LBB99:
	.loc 1 155 0
	ldd r24,Y+1
	call putChar_Dec2
.LVL238:
	movw r30,r24
.LVL239:
	.loc 1 156 0
	ldi r24,lo8(115)
.LVL240:
	st Z,r24
	.loc 1 157 0
	ld r25,Y
	lsl r25
.LVL241:
	.loc 1 159 0
	cpi r25,lo8(25)
	brsh .+2
	rjmp .L158
	.loc 1 160 0
	ldi r24,lo8(-25)
	add r24,r25
.LVL242:
	.loc 1 159 0
	cpi r24,lo8(25)
	brsh .+2
	rjmp .L159
	.loc 1 160 0
	ldi r24,lo8(-50)
.LVL243:
	add r24,r25
.LVL244:
	.loc 1 159 0
	cpi r24,lo8(25)
	brsh .+2
	rjmp .L160
	.loc 1 160 0
	ldi r24,lo8(-75)
.LVL245:
	add r24,r25
.LVL246:
	.loc 1 159 0
	cpi r24,lo8(25)
	brsh .+2
	rjmp .L161
	.loc 1 160 0
	ldi r24,lo8(-100)
.LVL247:
	add r24,r25
.LVL248:
	.loc 1 159 0
	cpi r24,lo8(25)
	brsh .+2
	rjmp .L162
	.loc 1 160 0
	ldi r24,lo8(-125)
.LVL249:
	add r24,r25
.LVL250:
	.loc 1 159 0
	cpi r24,lo8(25)
	brsh .+2
	rjmp .L163
	.loc 1 160 0
	ldi r24,lo8(106)
.LVL251:
	add r24,r25
.LVL252:
	.loc 1 159 0
	cpi r24,lo8(25)
	brsh .+2
	rjmp .L164
	.loc 1 160 0
	ldi r24,lo8(81)
.LVL253:
	add r24,r25
.LVL254:
	.loc 1 159 0
	cpi r24,lo8(25)
	brsh .+2
	rjmp .L165
	.loc 1 160 0
	ldi r24,lo8(56)
.LVL255:
	add r24,r25
.LVL256:
	.loc 1 159 0
	cpi r24,lo8(25)
	brsh .+2
	rjmp .L166
	.loc 1 160 0
	ldi r24,lo8(31)
.LVL257:
	add r24,r25
.LVL258:
	.loc 1 159 0
	cpi r24,lo8(25)
	brsh .+2
	rjmp .L167
	.loc 1 160 0
	subi r25,lo8(-(6))
.LVL259:
	.loc 1 161 0
	ldi r24,lo8(10)
.LVL260:
.L143:
	subi r24,lo8(-(48))
.L142:
.LVL261:
	.loc 1 163 0
	std Z+1,r24
.LVL262:
	.loc 1 165 0
	lsl r25
.LVL263:
	.loc 1 166 0
	cpi r25,lo8(5)
	brsh .+2
	rjmp .L168
	ldi r18,0
	rjmp .L145
.LVL264:
.L169:
	.loc 1 168 0
	mov r18,r19
.LVL265:
.L145:
	.loc 1 167 0
	subi r25,lo8(-(-5))
.LVL266:
	.loc 1 168 0
	ldi r19,lo8(1)
	add r19,r18
.LVL267:
	.loc 1 166 0
	cpi r25,lo8(5)
	brsh .L169
	subi r18,lo8(-(49))
.LVL268:
.L144:
	.loc 1 170 0
	movw r26,r30
	adiw r26,3
.LVL269:
	std Z+2,r18
	rjmp .L140
.LVL270:
.L176:
.LBE99:
	.loc 1 151 0
	call putChar_Dec2
.LVL271:
	.loc 1 152 0
	movw r22,r24
	subi r22,-1
	sbci r23,-1
.LVL272:
	ldi r18,lo8(109)
	movw r30,r24
	st Z,r18
	.loc 1 153 0
	ldd r24,Y+1
	call putChar_Dec2
.LVL273:
	movw r26,r24
.LVL274:
.L140:
	.loc 1 173 0
	ldd r25,Y+4
	cpi r25,lo8(64)
	brne .+2
	rjmp .L147
	cpi r25,lo8(-128)
	breq .L148
	cpi r25,lo8(32)
	breq .L177
	.loc 1 184 0
	movw r30,r26
	adiw r30,1
.LVL275:
	ldi r24,lo8(63)
	st X,r24
.L150:
	.loc 1 188 0
	movw r22,r30
	subi r22,-1
	sbci r23,-1
.LVL276:
	ldd r24,Y+5
	st Z,r24
	.loc 1 190 0
	ldd r24,Y+6
	call putChar_hex
.LVL277:
	.loc 1 191 0
	movw r22,r24
	ldd r24,Y+7
.LVL278:
	call putChar_hex
.LVL279:
	.loc 1 192 0
	movw r22,r24
	subi r22,-1
	sbci r23,-1
.LVL280:
	ldi r18,lo8(45)
	movw r30,r24
	st Z,r18
	.loc 1 193 0
	ldd r24,Y+8
	ldd r25,Y+9
	call putChar_long
.LVL281:
	.loc 1 194 0
	movw r30,r24
	st Z,__zero_reg__
.LVL282:
.L151:
.LBE98:
.LBE97:
	.loc 1 86 0
	ldi r24,lo8(Log_TextBuff)
	ldi r25,hi8(Log_TextBuff)
	call serial0SER_USB_sendString
.LVL283:
	.loc 1 87 0
	ldi r24,lo8(cr_lf)
	ldi r25,hi8(cr_lf)
	call serial0SER_USB_sendStringP
.LVL284:
	lds r30,pLogEnd
	lds r31,pLogEnd+1
	rjmp .L137
.LVL285:
.L175:
.LBB102:
.LBB101:
	.loc 1 146 0
	ldi r22,lo8(Log_TextBuff)
	ldi r23,hi8(Log_TextBuff)
	call putChar_Dec2
.LVL286:
	.loc 1 147 0
	movw r22,r24
	subi r22,-1
	sbci r23,-1
.LVL287:
	ldi r18,lo8(104)
	movw r30,r24
	st Z,r18
	.loc 1 148 0
	ldd r24,Y+2
	call putChar_Dec2
.LVL288:
	movw r26,r24
.LVL289:
	rjmp .L140
.LVL290:
.L177:
	.loc 1 181 0
	movw r30,r26
	adiw r30,1
.LVL291:
	st X,r25
	rjmp .L150
.LVL292:
.L148:
	.loc 1 175 0
	movw r30,r26
	adiw r30,1
.LVL293:
	ldi r24,lo8(42)
	st X,r24
	rjmp .L150
.LVL294:
.L147:
	.loc 1 178 0
	movw r30,r26
	adiw r30,1
.LVL295:
	ldi r24,lo8(-91)
	st X,r24
	rjmp .L150
.LVL296:
.L138:
	.loc 1 202 0
	ldi r24,lo8(45)
	sts Log_TextBuff,r24
	.loc 1 203 0
	sts Log_TextBuff+1,__zero_reg__
	rjmp .L151
.LVL297:
.L168:
.LBB100:
	.loc 1 166 0
	ldi r18,lo8(48)
	rjmp .L144
.LVL298:
.L158:
	.loc 1 159 0
	ldi r24,lo8(48)
	rjmp .L142
.LVL299:
.L159:
	mov r25,r24
	.loc 1 161 0
	ldi r24,lo8(1)
.LVL300:
	rjmp .L143
.LVL301:
.L163:
	.loc 1 159 0
	mov r25,r24
	.loc 1 161 0
	ldi r24,lo8(5)
.LVL302:
	rjmp .L143
.LVL303:
.L162:
	.loc 1 159 0
	mov r25,r24
	.loc 1 161 0
	ldi r24,lo8(4)
.LVL304:
	rjmp .L143
.LVL305:
.L161:
	.loc 1 159 0
	mov r25,r24
	.loc 1 161 0
	ldi r24,lo8(3)
.LVL306:
	rjmp .L143
.LVL307:
.L160:
	.loc 1 159 0
	mov r25,r24
	.loc 1 161 0
	ldi r24,lo8(2)
.LVL308:
	rjmp .L143
.LVL309:
.L167:
	.loc 1 159 0
	mov r25,r24
	.loc 1 161 0
	ldi r24,lo8(9)
.LVL310:
	rjmp .L143
.LVL311:
.L166:
	.loc 1 159 0
	mov r25,r24
	.loc 1 161 0
	ldi r24,lo8(8)
.LVL312:
	rjmp .L143
.LVL313:
.L165:
	.loc 1 159 0
	mov r25,r24
	.loc 1 161 0
	ldi r24,lo8(7)
.LVL314:
	rjmp .L143
.LVL315:
.L164:
	.loc 1 159 0
	mov r25,r24
	.loc 1 161 0
	ldi r24,lo8(6)
.LVL316:
	rjmp .L143
.LBE100:
.LBE101:
.LBE102:
.LBE104:
.LBE106:
	.cfi_endproc
.LFE10:
	.size	log_putInfo, .-log_putInfo
	.section	.text.log_put,"ax",@progbits
.global	log_put
	.type	log_put, @function
log_put:
.LFB11:
	.loc 1 74 0
	.cfi_startproc
.LVL317:
	push r28
.LCFI6:
	.cfi_def_cfa_offset 4
	.cfi_offset 28, -3
	push r29
.LCFI7:
	.cfi_def_cfa_offset 5
	.cfi_offset 29, -4
/* prologue: function */
/* frame size = 0 */
/* stack size = 2 */
.L__stack_usage = 2
	.loc 1 75 0
	lds r30,pLogEnd
	lds r31,pLogEnd+1
	lds r25,time_Uptime
	st Z,r25
	.loc 1 76 0
	lds r25,time_Uptime+1
	std Z+1,r25
	.loc 1 77 0
	lds r25,time_Uptime+2
	std Z+2,r25
	.loc 1 78 0
	lds r25,time_Uptime+3
	std Z+3,r25
	.loc 1 79 0
	std Z+5,r18
	.loc 1 80 0
	std Z+6,r24
	.loc 1 81 0
	std Z+7,r22
	.loc 1 82 0
	std Z+9,r21
	std Z+8,r20
	.loc 1 83 0
	ldi r24,lo8(-128)
.LVL318:
	std Z+4,r24
	.loc 1 84 0
	lds r24,serusb_Active
	cpi r24,lo8(-1)
	breq .L214
.LVL319:
.L179:
	.loc 1 89 0
	adiw r30,10
	.loc 1 90 0
	ldi r24,hi8(log_List+390)
	cpi r30,lo8(log_List+390)
	cpc r31,r24
	breq .+2
	brsh .L194
	.loc 1 89 0
	sts pLogEnd+1,r31
	sts pLogEnd,r30
	.loc 1 93 0
	lds r24,pLogStart
	lds r25,pLogStart+1
	cp r24,r30
	cpc r25,r31
	breq .L215
.L178:
/* epilogue start */
	.loc 1 99 0
	pop r29
	pop r28
	ret
.L194:
	.loc 1 91 0
	ldi r24,lo8(log_List)
	ldi r25,hi8(log_List)
	sts pLogEnd+1,r25
	sts pLogEnd,r24
	movw r30,r24
	.loc 1 93 0
	lds r24,pLogStart
	lds r25,pLogStart+1
	cp r24,r30
	cpc r25,r31
	brne .L178
.L215:
	.loc 1 94 0
	adiw r30,10
	.loc 1 95 0
	ldi r24,hi8(log_List+390)
	cpi r30,lo8(log_List+390)
	cpc r31,r24
	breq .L216
	brlo .L216
	.loc 1 96 0
	ldi r24,lo8(log_List)
	ldi r25,hi8(log_List)
	sts pLogStart+1,r25
	sts pLogStart,r24
/* epilogue start */
	.loc 1 99 0
	pop r29
	pop r28
	ret
.L216:
	.loc 1 94 0
	sts pLogStart+1,r31
	sts pLogStart,r30
	rjmp .L178
.LVL320:
.L214:
	.loc 1 85 0
	ldi r24,lo8(stringLog)
	ldi r25,hi8(stringLog)
	call serial0SER_USB_sendStringP
.LVL321:
	.loc 1 86 0
	lds r28,pLogEnd
	lds r29,pLogEnd+1
.LVL322:
.LBB118:
.LBB119:
	.loc 1 142 0
	sbiw r28,0
	brne .+2
	rjmp .L180
	.loc 1 144 0
	ldd r24,Y+3
	cpse r24,__zero_reg__
	rjmp .L217
	.loc 1 149 0
	ldd r24,Y+2
	.loc 1 151 0
	ldi r22,lo8(Log_TextBuff)
	ldi r23,hi8(Log_TextBuff)
	.loc 1 149 0
	cpse r24,__zero_reg__
	rjmp .L218
.LBB120:
	.loc 1 155 0
	ldd r24,Y+1
	call putChar_Dec2
.LVL323:
	movw r30,r24
.LVL324:
	.loc 1 156 0
	ldi r24,lo8(115)
.LVL325:
	st Z,r24
	.loc 1 157 0
	ld r25,Y
	lsl r25
.LVL326:
	.loc 1 159 0
	cpi r25,lo8(25)
	brsh .+2
	rjmp .L200
	.loc 1 160 0
	ldi r24,lo8(-25)
	add r24,r25
.LVL327:
	.loc 1 159 0
	cpi r24,lo8(25)
	brsh .+2
	rjmp .L201
	.loc 1 160 0
	ldi r24,lo8(-50)
.LVL328:
	add r24,r25
.LVL329:
	.loc 1 159 0
	cpi r24,lo8(25)
	brsh .+2
	rjmp .L202
	.loc 1 160 0
	ldi r24,lo8(-75)
.LVL330:
	add r24,r25
.LVL331:
	.loc 1 159 0
	cpi r24,lo8(25)
	brsh .+2
	rjmp .L203
	.loc 1 160 0
	ldi r24,lo8(-100)
.LVL332:
	add r24,r25
.LVL333:
	.loc 1 159 0
	cpi r24,lo8(25)
	brsh .+2
	rjmp .L204
	.loc 1 160 0
	ldi r24,lo8(-125)
.LVL334:
	add r24,r25
.LVL335:
	.loc 1 159 0
	cpi r24,lo8(25)
	brsh .+2
	rjmp .L205
	.loc 1 160 0
	ldi r24,lo8(106)
.LVL336:
	add r24,r25
.LVL337:
	.loc 1 159 0
	cpi r24,lo8(25)
	brsh .+2
	rjmp .L206
	.loc 1 160 0
	ldi r24,lo8(81)
.LVL338:
	add r24,r25
.LVL339:
	.loc 1 159 0
	cpi r24,lo8(25)
	brsh .+2
	rjmp .L207
	.loc 1 160 0
	ldi r24,lo8(56)
.LVL340:
	add r24,r25
.LVL341:
	.loc 1 159 0
	cpi r24,lo8(25)
	brsh .+2
	rjmp .L208
	.loc 1 160 0
	ldi r24,lo8(31)
.LVL342:
	add r24,r25
.LVL343:
	.loc 1 159 0
	cpi r24,lo8(25)
	brsh .+2
	rjmp .L209
	.loc 1 160 0
	subi r25,lo8(-(6))
.LVL344:
	.loc 1 161 0
	ldi r24,lo8(10)
.LVL345:
.L185:
	subi r24,lo8(-(48))
.L184:
.LVL346:
	.loc 1 163 0
	std Z+1,r24
.LVL347:
	.loc 1 165 0
	lsl r25
.LVL348:
	.loc 1 166 0
	cpi r25,lo8(5)
	brsh .+2
	rjmp .L210
	ldi r18,0
	rjmp .L187
.LVL349:
.L211:
	.loc 1 168 0
	mov r18,r19
.LVL350:
.L187:
	.loc 1 167 0
	subi r25,lo8(-(-5))
.LVL351:
	.loc 1 168 0
	ldi r19,lo8(1)
	add r19,r18
.LVL352:
	.loc 1 166 0
	cpi r25,lo8(5)
	brsh .L211
	subi r18,lo8(-(49))
.LVL353:
.L186:
	.loc 1 170 0
	movw r26,r30
	adiw r26,3
.LVL354:
	std Z+2,r18
	rjmp .L182
.LVL355:
.L218:
.LBE120:
	.loc 1 151 0
	call putChar_Dec2
.LVL356:
	.loc 1 152 0
	movw r22,r24
	subi r22,-1
	sbci r23,-1
.LVL357:
	ldi r18,lo8(109)
	movw r30,r24
	st Z,r18
	.loc 1 153 0
	ldd r24,Y+1
	call putChar_Dec2
.LVL358:
	movw r26,r24
.LVL359:
.L182:
	.loc 1 173 0
	ldd r25,Y+4
	cpi r25,lo8(64)
	brne .+2
	rjmp .L189
	cpi r25,lo8(-128)
	breq .L190
	cpi r25,lo8(32)
	breq .L219
	.loc 1 184 0
	movw r30,r26
	adiw r30,1
.LVL360:
	ldi r24,lo8(63)
	st X,r24
.L192:
	.loc 1 188 0
	movw r22,r30
	subi r22,-1
	sbci r23,-1
.LVL361:
	ldd r24,Y+5
	st Z,r24
	.loc 1 190 0
	ldd r24,Y+6
	call putChar_hex
.LVL362:
	.loc 1 191 0
	movw r22,r24
	ldd r24,Y+7
.LVL363:
	call putChar_hex
.LVL364:
	.loc 1 192 0
	movw r22,r24
	subi r22,-1
	sbci r23,-1
.LVL365:
	ldi r18,lo8(45)
	movw r30,r24
	st Z,r18
	.loc 1 193 0
	ldd r24,Y+8
	ldd r25,Y+9
	call putChar_long
.LVL366:
	.loc 1 194 0
	movw r30,r24
	st Z,__zero_reg__
.LVL367:
.L193:
.LBE119:
.LBE118:
	.loc 1 86 0
	ldi r24,lo8(Log_TextBuff)
	ldi r25,hi8(Log_TextBuff)
	call serial0SER_USB_sendString
.LVL368:
	.loc 1 87 0
	ldi r24,lo8(cr_lf)
	ldi r25,hi8(cr_lf)
	call serial0SER_USB_sendStringP
.LVL369:
	lds r30,pLogEnd
	lds r31,pLogEnd+1
	rjmp .L179
.LVL370:
.L217:
.LBB123:
.LBB122:
	.loc 1 146 0
	ldi r22,lo8(Log_TextBuff)
	ldi r23,hi8(Log_TextBuff)
	call putChar_Dec2
.LVL371:
	.loc 1 147 0
	movw r22,r24
	subi r22,-1
	sbci r23,-1
.LVL372:
	ldi r18,lo8(104)
	movw r30,r24
	st Z,r18
	.loc 1 148 0
	ldd r24,Y+2
	call putChar_Dec2
.LVL373:
	movw r26,r24
.LVL374:
	rjmp .L182
.LVL375:
.L219:
	.loc 1 181 0
	movw r30,r26
	adiw r30,1
.LVL376:
	st X,r25
	rjmp .L192
.LVL377:
.L190:
	.loc 1 175 0
	movw r30,r26
	adiw r30,1
.LVL378:
	ldi r24,lo8(42)
	st X,r24
	rjmp .L192
.LVL379:
.L189:
	.loc 1 178 0
	movw r30,r26
	adiw r30,1
.LVL380:
	ldi r24,lo8(-91)
	st X,r24
	rjmp .L192
.LVL381:
.L180:
	.loc 1 202 0
	ldi r24,lo8(45)
	sts Log_TextBuff,r24
	.loc 1 203 0
	sts Log_TextBuff+1,__zero_reg__
	rjmp .L193
.LVL382:
.L210:
.LBB121:
	.loc 1 166 0
	ldi r18,lo8(48)
	rjmp .L186
.LVL383:
.L200:
	.loc 1 159 0
	ldi r24,lo8(48)
	rjmp .L184
.LVL384:
.L201:
	mov r25,r24
	.loc 1 161 0
	ldi r24,lo8(1)
.LVL385:
	rjmp .L185
.LVL386:
.L205:
	.loc 1 159 0
	mov r25,r24
	.loc 1 161 0
	ldi r24,lo8(5)
.LVL387:
	rjmp .L185
.LVL388:
.L204:
	.loc 1 159 0
	mov r25,r24
	.loc 1 161 0
	ldi r24,lo8(4)
.LVL389:
	rjmp .L185
.LVL390:
.L203:
	.loc 1 159 0
	mov r25,r24
	.loc 1 161 0
	ldi r24,lo8(3)
.LVL391:
	rjmp .L185
.LVL392:
.L202:
	.loc 1 159 0
	mov r25,r24
	.loc 1 161 0
	ldi r24,lo8(2)
.LVL393:
	rjmp .L185
.LVL394:
.L209:
	.loc 1 159 0
	mov r25,r24
	.loc 1 161 0
	ldi r24,lo8(9)
.LVL395:
	rjmp .L185
.LVL396:
.L208:
	.loc 1 159 0
	mov r25,r24
	.loc 1 161 0
	ldi r24,lo8(8)
.LVL397:
	rjmp .L185
.LVL398:
.L207:
	.loc 1 159 0
	mov r25,r24
	.loc 1 161 0
	ldi r24,lo8(7)
.LVL399:
	rjmp .L185
.LVL400:
.L206:
	.loc 1 159 0
	mov r25,r24
	.loc 1 161 0
	ldi r24,lo8(6)
.LVL401:
	rjmp .L185
.LBE121:
.LBE122:
.LBE123:
	.cfi_endproc
.LFE11:
	.size	log_put, .-log_put
	.section	.text.log_count,"ax",@progbits
.global	log_count
	.type	log_count, @function
log_count:
.LFB12:
	.loc 1 101 0
	.cfi_startproc
/* prologue: function */
/* frame size = 0 */
/* stack size = 0 */
.L__stack_usage = 0
	.loc 1 102 0
	lds r24,pLogEnd
	lds r25,pLogEnd+1
	lds r18,pLogStart
	lds r19,pLogStart+1
	cp r24,r18
	cpc r25,r19
	brsh .L223
	.loc 1 105 0
	subi r24,112
	sbci r25,-2
.L223:
	sub r24,r18
	sbc r25,r19
	asr r25
	ror r24
	ldi r25,lo8(-51)
	mul r24,r25
	mov r24,r0
	clr r1
	.loc 1 107 0
	ret
	.cfi_endproc
.LFE12:
	.size	log_count, .-log_count
	.section	.text.log_getLog,"ax",@progbits
.global	log_getLog
	.type	log_getLog, @function
log_getLog:
.LFB13:
	.loc 1 109 0
	.cfi_startproc
.LVL402:
/* prologue: function */
/* frame size = 0 */
/* stack size = 0 */
.L__stack_usage = 0
.LBB124:
.LBB125:
	.loc 1 102 0
	lds r18,pLogEnd
	lds r19,pLogEnd+1
	lds r20,pLogStart
	lds r21,pLogStart+1
	cp r18,r20
	cpc r19,r21
	brsh .L229
	.loc 1 105 0
	subi r18,112
	sbci r19,-2
.L229:
	sub r18,r20
	sbc r19,r21
	asr r19
	ror r18
	ldi r25,lo8(-51)
	mul r18,r25
	mov r18,r0
	clr r1
.LBE125:
.LBE124:
	.loc 1 110 0
	cp r24,r18
	brsh .L228
	.loc 1 114 0
	ldi r22,lo8(10)
	mul r24,r22
	movw r18,r0
	clr __zero_reg__
	movw r24,r20
.LVL403:
	add r24,r18
	adc r25,r19
	ldi r22,hi8(log_List+390)
	cpi r24,lo8(log_List+390)
	cpc r25,r22
	breq .L227
	brlo .L227
	.loc 1 117 0
	subi r18,-112
	sbci r19,1
	movw r24,r20
	add r24,r18
	adc r25,r19
	ret
.LVL404:
.L228:
	.loc 1 112 0
	ldi r24,0
	ldi r25,0
.LVL405:
.L227:
	.loc 1 120 0
	ret
	.cfi_endproc
.LFE13:
	.size	log_getLog, .-log_getLog
	.section	.text.logCheckUnreadErrorLogs,"ax",@progbits
.global	logCheckUnreadErrorLogs
	.type	logCheckUnreadErrorLogs, @function
logCheckUnreadErrorLogs:
.LFB14:
	.loc 1 122 0
	.cfi_startproc
/* prologue: function */
/* frame size = 0 */
/* stack size = 0 */
.L__stack_usage = 0
.LBB132:
.LBB133:
	.loc 1 102 0
	lds r22,pLogEnd
	lds r23,pLogEnd+1
	lds r20,pLogStart
	lds r21,pLogStart+1
	.loc 1 103 0
	movw r24,r22
	.loc 1 102 0
	cp r22,r20
	cpc r23,r21
	brsh .L247
	.loc 1 105 0
	subi r24,112
	sbci r25,-2
.L247:
	sub r24,r20
	sbc r25,r21
	asr r25
	ror r24
	ldi r25,lo8(-51)
	mul r24,r25
	mov r24,r0
	clr r1
.LBE133:
.LBE132:
	.loc 1 125 0
	sts log_unreadErrors,__zero_reg__
	.loc 1 126 0
	tst r24
	breq .L248
.LVL406:
	.loc 1 128 0
	subi r24,lo8(-(-1))
.LVL407:
.LBB134:
.LBB135:
.LBB136:
.LBB137:
	.loc 1 105 0
	movw r18,r22
	subi r18,112
	sbci r19,-2
	cp r22,r20
	cpc r23,r21
	brlo .L238
	sub r22,r20
	sbc r23,r21
	asr r23
	ror r22
	ldi r25,lo8(-51)
	mul r22,r25
	mov r22,r0
	clr r1
	rjmp .L237
.LVL408:
.L240:
.LBE137:
.LBE136:
.LBE135:
.LBE134:
	.loc 1 128 0
	mov r24,r25
.LVL409:
.L237:
.LBB139:
.LBB138:
	.loc 1 110 0
	cp r24,r22
	brsh .L235
	.loc 1 114 0
	ldi r25,lo8(10)
	mul r24,r25
	movw r18,r0
	clr __zero_reg__
	movw r30,r20
	add r30,r18
	adc r31,r19
	ldi r25,hi8(log_List+390)
	cpi r30,lo8(log_List+390)
	cpc r31,r25
	breq .L236
	brlo .L236
	.loc 1 117 0
	movw r30,r18
	subi r30,-112
	sbci r31,1
	add r30,r20
	adc r31,r21
.L236:
.LVL410:
.LBE138:
.LBE139:
	.loc 1 130 0
	sbiw r30,0
	breq .L235
	.loc 1 130 0 discriminator 1
	ldd r25,Z+4
	cpi r25,lo8(32)
	breq .L235
	.loc 1 130 0 is_stmt 0 discriminator 2
	ldd r25,Z+5
	cpi r25,lo8(69)
	breq .L249
.L235:
	.loc 1 128 0 is_stmt 1
	ldi r25,lo8(-1)
	add r25,r24
.LVL411:
	cpse r24,__zero_reg__
	rjmp .L240
	ret
.LVL412:
.L238:
	sub r18,r20
	sbc r19,r21
	asr r19
	ror r18
	ldi r22,lo8(-51)
	mul r18,r22
	mov r22,r0
	clr r1
	rjmp .L237
.LVL413:
.L248:
	ret
.LVL414:
.L249:
	.loc 1 132 0
	ldi r24,lo8(-1)
.LVL415:
	sts log_unreadErrors,r24
	.loc 1 133 0
	ret
	.cfi_endproc
.LFE14:
	.size	logCheckUnreadErrorLogs, .-logCheckUnreadErrorLogs
	.section	.text.log_getShortTextFromPtr,"ax",@progbits
.global	log_getShortTextFromPtr
	.type	log_getShortTextFromPtr, @function
log_getShortTextFromPtr:
.LFB15:
	.loc 1 139 0
	.cfi_startproc
.LVL416:
	push r17
.LCFI8:
	.cfi_def_cfa_offset 4
	.cfi_offset 17, -3
	push r28
.LCFI9:
	.cfi_def_cfa_offset 5
	.cfi_offset 28, -4
	push r29
.LCFI10:
	.cfi_def_cfa_offset 6
	.cfi_offset 29, -5
/* prologue: function */
/* frame size = 0 */
/* stack size = 3 */
.L__stack_usage = 3
.LVL417:
	.loc 1 142 0
	sbiw r24,0
	brne .+2
	rjmp .L251
	mov r17,r22
	movw r28,r24
	.loc 1 144 0
	ldd r24,Y+3
.LVL418:
	cpse r24,__zero_reg__
	rjmp .L298
	.loc 1 149 0
	ldd r24,Y+2
	.loc 1 151 0
	ldi r22,lo8(Log_TextBuff)
	ldi r23,hi8(Log_TextBuff)
.LVL419:
	.loc 1 149 0
	cpse r24,__zero_reg__
	rjmp .L299
.LBB149:
	.loc 1 155 0
	ldd r24,Y+1
	call putChar_Dec2
.LVL420:
	movw r30,r24
.LVL421:
	.loc 1 156 0
	ldi r24,lo8(115)
.LVL422:
	st Z,r24
	.loc 1 157 0
	ld r25,Y
	lsl r25
.LVL423:
	.loc 1 159 0
	cpi r25,lo8(25)
	brsh .+2
	rjmp .L275
	.loc 1 160 0
	ldi r24,lo8(-25)
	add r24,r25
.LVL424:
	.loc 1 159 0
	cpi r24,lo8(25)
	brsh .+2
	rjmp .L276
	.loc 1 160 0
	ldi r24,lo8(-50)
.LVL425:
	add r24,r25
.LVL426:
	.loc 1 159 0
	cpi r24,lo8(25)
	brsh .+2
	rjmp .L277
	.loc 1 160 0
	ldi r24,lo8(-75)
.LVL427:
	add r24,r25
.LVL428:
	.loc 1 159 0
	cpi r24,lo8(25)
	brsh .+2
	rjmp .L278
	.loc 1 160 0
	ldi r24,lo8(-100)
.LVL429:
	add r24,r25
.LVL430:
	.loc 1 159 0
	cpi r24,lo8(25)
	brsh .+2
	rjmp .L279
	.loc 1 160 0
	ldi r24,lo8(-125)
.LVL431:
	add r24,r25
.LVL432:
	.loc 1 159 0
	cpi r24,lo8(25)
	brsh .+2
	rjmp .L280
	.loc 1 160 0
	ldi r24,lo8(106)
.LVL433:
	add r24,r25
.LVL434:
	.loc 1 159 0
	cpi r24,lo8(25)
	brsh .+2
	rjmp .L281
	.loc 1 160 0
	ldi r24,lo8(81)
.LVL435:
	add r24,r25
.LVL436:
	.loc 1 159 0
	cpi r24,lo8(25)
	brsh .+2
	rjmp .L282
	.loc 1 160 0
	ldi r24,lo8(56)
.LVL437:
	add r24,r25
.LVL438:
	.loc 1 159 0
	cpi r24,lo8(25)
	brsh .+2
	rjmp .L283
	.loc 1 160 0
	ldi r24,lo8(31)
.LVL439:
	add r24,r25
.LVL440:
	.loc 1 159 0
	cpi r24,lo8(25)
	brsh .+2
	rjmp .L284
	.loc 1 160 0
	subi r25,lo8(-(6))
.LVL441:
	.loc 1 161 0
	ldi r24,lo8(10)
.LVL442:
.L256:
	subi r24,lo8(-(48))
.L255:
.LVL443:
	.loc 1 163 0
	std Z+1,r24
.LVL444:
	.loc 1 165 0
	lsl r25
.LVL445:
	.loc 1 166 0
	cpi r25,lo8(5)
	brsh .+2
	rjmp .L285
	ldi r18,0
	rjmp .L258
.LVL446:
.L286:
	.loc 1 168 0
	mov r18,r19
.LVL447:
.L258:
	.loc 1 167 0
	subi r25,lo8(-(-5))
.LVL448:
	.loc 1 168 0
	ldi r19,lo8(1)
	add r19,r18
.LVL449:
	.loc 1 166 0
	cpi r25,lo8(5)
	brsh .L286
	subi r18,lo8(-(49))
.LVL450:
.L257:
	.loc 1 170 0
	movw r26,r30
	adiw r26,3
.LVL451:
	std Z+2,r18
.LBE149:
	.loc 1 173 0
	ldd r25,Y+4
.LVL452:
	cpi r25,lo8(64)
	brne .L300
.L260:
	.loc 1 178 0
	movw r30,r26
	adiw r30,1
.LVL453:
	ldi r24,lo8(-91)
	st X,r24
	.loc 1 179 0
	rjmp .L263
.LVL454:
.L299:
	.loc 1 151 0
	call putChar_Dec2
.LVL455:
	.loc 1 152 0
	movw r22,r24
	subi r22,-1
	sbci r23,-1
.LVL456:
	ldi r18,lo8(109)
	movw r30,r24
	st Z,r18
	.loc 1 153 0
	ldd r24,Y+1
	call putChar_Dec2
.LVL457:
	movw r26,r24
.LVL458:
.L253:
	.loc 1 173 0
	ldd r25,Y+4
	cpi r25,lo8(64)
	breq .L260
.LVL459:
.L300:
	cpi r25,lo8(-128)
	brne .+2
	rjmp .L261
	cpi r25,lo8(32)
	brne .+2
	rjmp .L301
	.loc 1 184 0
	movw r30,r26
	adiw r30,1
.LVL460:
	ldi r24,lo8(63)
	st X,r24
.L263:
	.loc 1 188 0
	movw r22,r30
	subi r22,-1
	sbci r23,-1
.LVL461:
	ldd r24,Y+5
	st Z,r24
	.loc 1 190 0
	ldd r24,Y+6
	call putChar_hex
.LVL462:
	.loc 1 191 0
	movw r22,r24
	ldd r24,Y+7
.LVL463:
	call putChar_hex
.LVL464:
	.loc 1 192 0
	movw r22,r24
	subi r22,-1
	sbci r23,-1
.LVL465:
	ldi r18,lo8(45)
	movw r30,r24
	st Z,r18
	.loc 1 193 0
	ldd r24,Y+8
	ldd r25,Y+9
	call putChar_long
.LVL466:
	.loc 1 194 0
	movw r30,r24
	st Z,__zero_reg__
	.loc 1 195 0
	cpi r17,lo8(-1)
	brne .+2
	rjmp .L295
	.loc 1 197 0
	std Y+4,r17
.LBB150:
.LBB151:
.LBB152:
.LBB153:
	.loc 1 102 0
	lds r22,pLogEnd
	lds r23,pLogEnd+1
	lds r20,pLogStart
	lds r21,pLogStart+1
	.loc 1 103 0
	movw r24,r22
.LVL467:
	.loc 1 102 0
	cp r22,r20
	cpc r23,r21
	brsh .L296
	.loc 1 105 0
	subi r24,112
	sbci r25,-2
.L296:
	sub r24,r20
	sbc r25,r21
	asr r25
	ror r24
	ldi r25,lo8(-51)
	mul r24,r25
	mov r24,r0
	clr r1
.LBE153:
.LBE152:
	.loc 1 125 0
	sts log_unreadErrors,__zero_reg__
	.loc 1 126 0
	tst r24
	breq .L295
.LVL468:
	.loc 1 128 0
	subi r24,lo8(-(-1))
.LVL469:
.LBB154:
.LBB155:
.LBB156:
.LBB157:
	.loc 1 105 0
	movw r18,r22
	subi r18,112
	sbci r19,-2
	cp r22,r20
	cpc r23,r21
	brsh .+2
	rjmp .L273
	sub r22,r20
	sbc r23,r21
	asr r23
	ror r22
	ldi r25,lo8(-51)
	mul r22,r25
	mov r22,r0
	clr r1
	rjmp .L272
.LVL470:
.L287:
.LBE157:
.LBE156:
.LBE155:
.LBE154:
	.loc 1 128 0
	mov r24,r25
.LVL471:
.L272:
.LBB159:
.LBB158:
	.loc 1 110 0
	cp r24,r22
	brsh .L270
	.loc 1 114 0
	ldi r31,lo8(10)
	mul r24,r31
	movw r18,r0
	clr __zero_reg__
	movw r30,r20
	add r30,r18
	adc r31,r19
	ldi r25,hi8(log_List+390)
	cpi r30,lo8(log_List+390)
	cpc r31,r25
	breq .L271
	brlo .L271
	.loc 1 117 0
	movw r30,r18
	subi r30,-112
	sbci r31,1
	add r30,r20
	adc r31,r21
.L271:
.LVL472:
.LBE158:
.LBE159:
	.loc 1 130 0
	sbiw r30,0
	breq .L270
	.loc 1 130 0
	ldd r25,Z+4
	cpi r25,lo8(32)
	breq .L270
	ldd r25,Z+5
	cpi r25,lo8(69)
	breq .L302
.L270:
	.loc 1 128 0
	ldi r25,lo8(-1)
	add r25,r24
.LVL473:
	cpse r24,__zero_reg__
	rjmp .L287
.LVL474:
.L295:
.LBE151:
.LBE150:
	.loc 1 206 0
	ldi r24,lo8(Log_TextBuff)
	ldi r25,hi8(Log_TextBuff)
/* epilogue start */
	pop r29
	pop r28
.LVL475:
	pop r17
.LVL476:
	ret
.LVL477:
.L298:
	.loc 1 146 0
	ldi r22,lo8(Log_TextBuff)
	ldi r23,hi8(Log_TextBuff)
	call putChar_Dec2
.LVL478:
	.loc 1 147 0
	movw r22,r24
	subi r22,-1
	sbci r23,-1
.LVL479:
	ldi r18,lo8(104)
	movw r30,r24
	st Z,r18
	.loc 1 148 0
	ldd r24,Y+2
	call putChar_Dec2
.LVL480:
	movw r26,r24
.LVL481:
	rjmp .L253
.LVL482:
.L301:
	.loc 1 181 0
	movw r30,r26
	adiw r30,1
.LVL483:
	st X,r25
	.loc 1 182 0
	rjmp .L263
.LVL484:
.L261:
	.loc 1 175 0
	movw r30,r26
	adiw r30,1
.LVL485:
	ldi r24,lo8(42)
	st X,r24
	.loc 1 176 0
	rjmp .L263
.LVL486:
.L273:
	sub r18,r20
	sbc r19,r21
	asr r19
	ror r18
	ldi r22,lo8(-51)
	mul r18,r22
	mov r22,r0
	clr r1
	rjmp .L272
.LVL487:
.L251:
	.loc 1 202 0
	ldi r24,lo8(45)
.LVL488:
	sts Log_TextBuff,r24
	.loc 1 203 0
	sts Log_TextBuff+1,__zero_reg__
	.loc 1 206 0
	ldi r24,lo8(Log_TextBuff)
	ldi r25,hi8(Log_TextBuff)
/* epilogue start */
	pop r29
	pop r28
	pop r17
	ret
.LVL489:
.L302:
.LBB161:
.LBB160:
	.loc 1 132 0
	ldi r24,lo8(-1)
.LVL490:
	sts log_unreadErrors,r24
	rjmp .L295
.LVL491:
.L285:
.LBE160:
.LBE161:
.LBB162:
	.loc 1 166 0
	ldi r18,lo8(48)
	rjmp .L257
.LVL492:
.L275:
	.loc 1 159 0
	ldi r24,lo8(48)
	rjmp .L255
.LVL493:
.L276:
	mov r25,r24
	.loc 1 161 0
	ldi r24,lo8(1)
.LVL494:
	rjmp .L256
.LVL495:
.L277:
	.loc 1 159 0
	mov r25,r24
	.loc 1 161 0
	ldi r24,lo8(2)
.LVL496:
	rjmp .L256
.LVL497:
.L278:
	.loc 1 159 0
	mov r25,r24
	.loc 1 161 0
	ldi r24,lo8(3)
.LVL498:
	rjmp .L256
.LVL499:
.L283:
	.loc 1 159 0
	mov r25,r24
	.loc 1 161 0
	ldi r24,lo8(8)
.LVL500:
	rjmp .L256
.LVL501:
.L284:
	.loc 1 159 0
	mov r25,r24
	.loc 1 161 0
	ldi r24,lo8(9)
.LVL502:
	rjmp .L256
.LVL503:
.L279:
	.loc 1 159 0
	mov r25,r24
	.loc 1 161 0
	ldi r24,lo8(4)
.LVL504:
	rjmp .L256
.LVL505:
.L280:
	.loc 1 159 0
	mov r25,r24
	.loc 1 161 0
	ldi r24,lo8(5)
.LVL506:
	rjmp .L256
.LVL507:
.L281:
	.loc 1 159 0
	mov r25,r24
	.loc 1 161 0
	ldi r24,lo8(6)
.LVL508:
	rjmp .L256
.LVL509:
.L282:
	.loc 1 159 0
	mov r25,r24
	.loc 1 161 0
	ldi r24,lo8(7)
.LVL510:
	rjmp .L256
.LBE162:
	.cfi_endproc
.LFE15:
	.size	log_getShortTextFromPtr, .-log_getShortTextFromPtr
	.section	.text.log_getShortTextFromIndex,"ax",@progbits
.global	log_getShortTextFromIndex
	.type	log_getShortTextFromIndex, @function
log_getShortTextFromIndex:
.LFB16:
	.loc 1 210 0
	.cfi_startproc
.LVL511:
/* prologue: function */
/* frame size = 0 */
/* stack size = 0 */
.L__stack_usage = 0
.LBB163:
.LBB164:
.LBB165:
.LBB166:
	.loc 1 102 0
	lds r18,pLogEnd
	lds r19,pLogEnd+1
	lds r20,pLogStart
	lds r21,pLogStart+1
	cp r18,r20
	cpc r19,r21
	brsh .L311
	.loc 1 105 0
	subi r18,112
	sbci r19,-2
.L311:
	sub r18,r20
	sbc r19,r21
	asr r19
	ror r18
	ldi r25,lo8(-51)
	mul r18,r25
	mov r18,r0
	clr r1
.LBE166:
.LBE165:
	.loc 1 110 0
	cp r24,r18
	brlo .L312
.LVL512:
.L306:
.LBE164:
.LBE163:
	.loc 1 216 0
	ldi r24,lo8(45)
	sts Log_TextBuff,r24
	.loc 1 217 0
	sts Log_TextBuff+1,__zero_reg__
	.loc 1 220 0
	ldi r24,lo8(Log_TextBuff)
	ldi r25,hi8(Log_TextBuff)
	ret
.LVL513:
.L312:
.LBB169:
.LBB167:
	.loc 1 114 0
	ldi r23,lo8(10)
	mul r24,r23
	movw r18,r0
	clr __zero_reg__
	movw r24,r20
.LVL514:
	add r24,r18
	adc r25,r19
	ldi r23,hi8(log_List+390)
	cpi r24,lo8(log_List+390)
	cpc r25,r23
	breq .+2
	brsh .L313
.L307:
.LVL515:
.LBE167:
.LBE169:
	.loc 1 213 0
	sbiw r24,0
	breq .L306
	.loc 1 214 0
	jmp log_getShortTextFromPtr
.LVL516:
.L313:
.LBB170:
.LBB168:
	.loc 1 117 0
	subi r18,-112
	sbci r19,1
	movw r24,r20
	add r24,r18
	adc r25,r19
	rjmp .L307
.LBE168:
.LBE170:
	.cfi_endproc
.LFE16:
	.size	log_getShortTextFromIndex, .-log_getShortTextFromIndex
.global	nullLog
	.section	.progmem.data.nullLog,"a",@progbits
	.type	nullLog, @object
	.size	nullLog, 2
nullLog:
	.string	"-"
.global	stringLog
	.section	.progmem.data.stringLog,"a",@progbits
	.type	stringLog, @object
	.size	stringLog, 6
stringLog:
	.string	"Log: "
.global	ErrorText
	.section	.progmem.data.ErrorText,"a",@progbits
	.type	ErrorText, @object
	.size	ErrorText, 270
ErrorText:
	.byte	0
	.byte	0
	.string	"Initialisation"
	.zero	1
	.byte	1
	.byte	0
	.string	"EE:Module"
	.zero	6
	.byte	1
	.byte	1
	.string	"EE:Midi-In"
	.zero	5
	.byte	1
	.byte	2
	.string	"EE:Midi-Out"
	.zero	4
	.byte	1
	.byte	3
	.string	"EE:Man-Module"
	.zero	2
	.byte	1
	.byte	4
	.string	"EE:USB"
	.zero	9
	.byte	1
	.byte	5
	.string	"EE:Register"
	.zero	4
	.byte	1
	.byte	6
	.string	"EE:Programs"
	.zero	4
	.byte	1
	.byte	7
	.string	"EE:Softkeys"
	.zero	4
	.byte	2
	.byte	0
	.string	"Mod:Fail"
	.zero	7
	.byte	2
	.byte	1
	.string	"Mod:UnknowInp"
	.zero	2
	.byte	3
	.byte	0
	.string	"OVFL:MidiIn"
	.zero	4
	.byte	3
	.byte	1
	.string	"OVFL:MidiOut"
	.zero	3
	.byte	4
	.byte	0
	.string	"OVFL:PipeMsg"
	.zero	3
	.byte	5
	.byte	0
	.string	"Pwr:OuptutOn"
	.zero	3
	.comm	log_unreadErrors,1,1
	.comm	Log_TextBuff,40,1
	.comm	pLogEnd,2,1
	.comm	pLogStart,2,1
	.comm	log_List,400,1
	.text
.Letext0:
	.file 2 "c:\\program files (x86)\\atmel\\studio\\7.0\\toolchain\\avr8\\avr8-gnu-toolchain\\avr\\include\\stdint.h"
	.file 3 ".././log.h"
	.file 4 ".././utils.h"
	.file 5 ".././hwtimer.h"
	.file 6 ".././serial.h"