	.file	"menu.c"
__SP_H__ = 0x3e
__SP_L__ = 0x3d
__SREG__ = 0x3f
__RAMPZ__ = 0x3b
__tmp_reg__ = 0
__zero_reg__ = 1
	.text
.Ltext0:
	.cfi_sections	.debug_frame
	.section	.text.menu_enterWriteModule,"ax",@progbits
.global	menu_enterWriteModule
	.type	menu_enterWriteModule, @function
menu_enterWriteModule:
.LFB44:
	.file 1 ".././menu.c"
	.loc 1 723 0
	.cfi_startproc
.LVL0:
/* prologue: function */
/* frame size = 0 */
/* stack size = 0 */
.L__stack_usage = 0
	.loc 1 725 0
	sts menuModVal,__zero_reg__
	sts menuModVal+1,__zero_reg__
	sts menuModVal+2,__zero_reg__
	sts menuModVal+3,__zero_reg__
	.loc 1 726 0
	ldi r24,lo8(1)
	ldi r25,0
.LVL1:
	lds r0,menuVmodule
	rjmp 2f
	1:
	lsl r24
	rol r25
	2:
	dec r0
	brpl 1b
	mov r20,r24
.LVL2:
.LBB43:
	.loc 1 728 0
	ldi r19,0
.LBE43:
	.loc 1 727 0
	ldi r30,lo8(pipe+248)
	ldi r31,hi8(pipe+248)
.LVL3:
.LBB44:
	.loc 1 728 0
	rjmp .L2
.LVL4:
.L4:
	.loc 1 729 0
	lds r24,menuModVal
	lds r25,menuModVal+1
	lds r26,menuModVal+2
	lds r27,menuModVal+3
	lsl r24
	rol r25
	rol r26
	rol r27
	sts menuModVal,r24
	sts menuModVal+1,r25
	sts menuModVal+2,r26
	sts menuModVal+3,r27
	.loc 1 730 0
	ldd r18,Z+1
	and r18,r20
	breq .L3
	.loc 1 731 0
	ori r24,1
	sts menuModVal,r24
	sts menuModVal+1,r25
	sts menuModVal+2,r26
	sts menuModVal+3,r27
.L3:
	.loc 1 733 0 discriminator 2
	sbiw r30,8
.LVL5:
	.loc 1 728 0 discriminator 2
	subi r19,lo8(-(1))
.LVL6:
.L2:
	.loc 1 728 0 is_stmt 0 discriminator 1
	cpi r19,lo8(32)
	brlo .L4
.LBE44:
	.loc 1 736 0 is_stmt 1
	ldi r24,0
	ret
	.cfi_endproc
.LFE44:
	.size	menu_enterWriteModule, .-menu_enterWriteModule
	.section	.text.menu_exitWriteModule,"ax",@progbits
.global	menu_exitWriteModule
	.type	menu_exitWriteModule, @function
menu_exitWriteModule:
.LFB45:
	.loc 1 738 0
	.cfi_startproc
.LVL7:
/* prologue: function */
/* frame size = 0 */
/* stack size = 0 */
.L__stack_usage = 0
	.loc 1 739 0
	lds r20,menuModVal
	lds r21,menuModVal+1
	lds r22,menuModVal+2
	lds r23,menuModVal+3
.LVL8:
	.loc 1 740 0
	cpi r24,lo8(5)
	brne .L6
.LBB45:
	.loc 1 741 0
	ldi r26,lo8(1)
	ldi r27,0
	lds r0,menuVmodule
	rjmp 2f
	1:
	lsl r26
	rol r27
	2:
	dec r0
	brpl 1b
	mov r19,r26
.LVL9:
.LBB46:
	.loc 1 743 0
	ldi r25,0
.LBE46:
	.loc 1 742 0
	ldi r30,lo8(pipe+248)
	ldi r31,hi8(pipe+248)
.LVL10:
.LBB47:
	.loc 1 743 0
	rjmp .L7
.LVL11:
.L10:
	.loc 1 744 0
	tst r23
	brge .L8
	.loc 1 745 0
	ldd r24,Z+1
	or r24,r19
	std Z+1,r24
	rjmp .L9
.L8:
	.loc 1 747 0
	ldd r18,Z+1
	mov r24,r26
	com r24
	and r24,r18
	std Z+1,r24
.L9:
	.loc 1 749 0 discriminator 2
	lsl r20
	rol r21
	rol r22
	rol r23
.LVL12:
	.loc 1 750 0 discriminator 2
	sbiw r30,8
.LVL13:
	.loc 1 743 0 discriminator 2
	subi r25,lo8(-(1))
.LVL14:
.L7:
	.loc 1 743 0 is_stmt 0 discriminator 1
	cpi r25,lo8(32)
	brlo .L10
.LVL15:
.L6:
.LBE47:
.LBE45:
	.loc 1 754 0 is_stmt 1
	ldi r24,0
	ret
	.cfi_endproc
.LFE45:
	.size	menu_exitWriteModule, .-menu_exitWriteModule
	.section	.text.menuOnEnterModSel,"ax",@progbits
.global	menuOnEnterModSel
	.type	menuOnEnterModSel, @function
menuOnEnterModSel:
.LFB48:
	.loc 1 782 0
	.cfi_startproc
.LVL16:
/* prologue: function */
/* frame size = 0 */
/* stack size = 0 */
.L__stack_usage = 0
	.loc 1 784 0
	lds r30,currentMenu
	lds r31,currentMenu+1
	adiw r30,14
	lpm r24,Z+
	lpm r25,Z+
.LVL17:
	sts menuVmodule,r24
	.loc 1 786 0
	ldi r24,0
	ret
	.cfi_endproc
.LFE48:
	.size	menuOnEnterModSel, .-menuOnEnterModSel
	.section	.text.menuOnEnterMidiInCh,"ax",@progbits
.global	menuOnEnterMidiInCh
	.type	menuOnEnterMidiInCh, @function
menuOnEnterMidiInCh:
.LFB49:
	.loc 1 788 0
	.cfi_startproc
.LVL18:
/* prologue: function */
/* frame size = 0 */
/* stack size = 0 */
.L__stack_usage = 0
	.loc 1 790 0
	lds r30,currentMenu
	lds r31,currentMenu+1
	adiw r30,14
	lpm r24,Z+
	lpm r25,Z+
.LVL19:
	sts menuVmidiChan,r24
	.loc 1 792 0
	ldi r24,0
	ret
	.cfi_endproc
.LFE49:
	.size	menuOnEnterMidiInCh, .-menuOnEnterMidiInCh
	.section	.text.menuOnEnterMidiInSec,"ax",@progbits
.global	menuOnEnterMidiInSec
	.type	menuOnEnterMidiInSec, @function
menuOnEnterMidiInSec:
.LFB50:
	.loc 1 794 0
	.cfi_startproc
.LVL20:
/* prologue: function */
/* frame size = 0 */
/* stack size = 0 */
.L__stack_usage = 0
	.loc 1 796 0
	lds r30,currentMenu
	lds r31,currentMenu+1
	adiw r30,14
	lpm r18,Z+
	lpm r19,Z+
	sts menuVsection,r18
	.loc 1 797 0
	lds r24,menuVmidiChan
.LVL21:
	andi r24,lo8(15)
	ldi r25,0
	andi r18,lo8(3)
	lsl r24
	rol r25
	lsl r24
	rol r25
	add r24,r18
	adc r25,__zero_reg__
	lsl r24
	rol r25
	lsl r24
	rol r25
	sts DataAdressOffset+1,r25
	sts DataAdressOffset,r24
	.loc 1 799 0
	ldi r24,0
	ret
	.cfi_endproc
.LFE50:
	.size	menuOnEnterMidiInSec, .-menuOnEnterMidiInSec
	.section	.text.menuOnEnterModManual,"ax",@progbits
.global	menuOnEnterModManual
	.type	menuOnEnterModManual, @function
menuOnEnterModManual:
.LFB51:
	.loc 1 801 0
	.cfi_startproc
.LVL22:
/* prologue: function */
/* frame size = 0 */
/* stack size = 0 */
.L__stack_usage = 0
	.loc 1 803 0
	lds r30,currentMenu
	lds r31,currentMenu+1
	adiw r30,14
	lpm r24,Z+
	lpm r25,Z+
.LVL23:
	sts menuVmanual,r24
	.loc 1 805 0
	ldi r24,0
	ret
	.cfi_endproc
.LFE51:
	.size	menuOnEnterModManual, .-menuOnEnterModManual
	.section	.text.menuOnEnterModSec,"ax",@progbits
.global	menuOnEnterModSec
	.type	menuOnEnterModSec, @function
menuOnEnterModSec:
.LFB52:
	.loc 1 807 0
	.cfi_startproc
.LVL24:
/* prologue: function */
/* frame size = 0 */
/* stack size = 0 */
.L__stack_usage = 0
	.loc 1 809 0
	lds r30,currentMenu
	lds r31,currentMenu+1
	adiw r30,14
	lpm r24,Z+
	lpm r25,Z+
.LVL25:
	sts menuVsection,r24
	.loc 1 810 0
	lds r18,menuVmanual
	andi r18,lo8(15)
	ldi r19,0
	andi r24,lo8(3)
	ldi r25,0
	movw r20,r18
	lsl r20
	rol r21
	add r18,r20
	adc r19,r21
	lsl r18
	rol r19
	lsl r18
	rol r19
	movw r20,r24
	lsl r20
	rol r21
	add r24,r20
	adc r25,r21
	add r24,r18
	adc r25,r19
	sts DataAdressOffset+1,r25
	sts DataAdressOffset,r24
	.loc 1 812 0
	ldi r24,0
	ret
	.cfi_endproc
.LFE52:
	.size	menuOnEnterModSec, .-menuOnEnterModSec
	.section	.text.menuOnEnterModSecReg,"ax",@progbits
.global	menuOnEnterModSecReg
	.type	menuOnEnterModSecReg, @function
menuOnEnterModSecReg:
.LFB53:
	.loc 1 814 0
	.cfi_startproc
.LVL26:
/* prologue: function */
/* frame size = 0 */
/* stack size = 0 */
.L__stack_usage = 0
	.loc 1 816 0
	lds r30,currentMenu
	lds r31,currentMenu+1
	adiw r30,14
	lpm r24,Z+
	lpm r25,Z+
.LVL27:
	sts menuVsection,r24
	.loc 1 817 0
	andi r24,lo8(7)
	ldi r25,0
	movw r18,r24
	lsl r18
	rol r19
	add r24,r18
	adc r25,r19
	sts DataAdressOffset+1,r25
	sts DataAdressOffset,r24
	.loc 1 819 0
	ldi r24,0
	ret
	.cfi_endproc
.LFE53:
	.size	menuOnEnterModSecReg, .-menuOnEnterModSecReg
	.section	.text.menuOnEnterKey,"ax",@progbits
.global	menuOnEnterKey
	.type	menuOnEnterKey, @function
menuOnEnterKey:
.LFB54:
	.loc 1 822 0
	.cfi_startproc
.LVL28:
/* prologue: function */
/* frame size = 0 */
/* stack size = 0 */
.L__stack_usage = 0
	.loc 1 825 0
	lds r30,currentMenu
	lds r31,currentMenu+1
	adiw r30,14
	lpm r24,Z+
	lpm r25,Z+
.LVL29:
	.loc 1 826 0
	cpi r24,lo8(4)
	brsh .L18
	.loc 1 827 0
	movw r30,r24
	clr r31
	lsl r30
	rol r31
	subi r30,lo8(-(soft_KeyMenu))
	sbci r31,hi8(-(soft_KeyMenu))
	ld r24,Z
	ldd r25,Z+1
.LVL30:
	sts menuVMenuSoftKey+1,r25
	sts menuVMenuSoftKey,r24
.LVL31:
.L18:
	.loc 1 830 0
	ldi r24,0
	ret
	.cfi_endproc
.LFE54:
	.size	menuOnEnterKey, .-menuOnEnterKey
	.section	.text.menuOnExitRegisterEdit,"ax",@progbits
.global	menuOnExitRegisterEdit
	.type	menuOnExitRegisterEdit, @function
menuOnExitRegisterEdit:
.LFB13:
	.loc 1 426 0
	.cfi_startproc
.LVL32:
	push r17
.LCFI0:
	.cfi_def_cfa_offset 4
	.cfi_offset 17, -3
	push r28
.LCFI1:
	.cfi_def_cfa_offset 5
	.cfi_offset 28, -4
	push r29
.LCFI2:
	.cfi_def_cfa_offset 6
	.cfi_offset 29, -5
/* prologue: function */
/* frame size = 0 */
/* stack size = 3 */
.L__stack_usage = 3
	.loc 1 427 0
	cpi r24,lo8(6)
	breq .L20
.LBB48:
	.loc 1 429 0
	lds r30,currentMenu
	lds r31,currentMenu+1
	adiw r30,14
	lpm r0,Z+
	lpm r31,Z
	mov r30,r0
	movw r24,r30
.LVL33:
	subi r24,lo8(menuVRegisters)
	sbci r25,hi8(menuVRegisters)
	lsl r24
	lsl r24
	lsl r24
.LVL34:
	.loc 1 430 0
	ld r29,Z
.LVL35:
.LBB49:
	.loc 1 431 0
	ldi r28,0
	rjmp .L21
.LVL36:
.L22:
	.loc 1 432 0 discriminator 3
	ldi r17,lo8(1)
	add r17,r24
.LVL37:
	mov r22,r29
	rol r22
	clr r22
	rol r22
	call register_onOff
.LVL38:
	.loc 1 433 0 discriminator 3
	lsl r29
.LVL39:
	.loc 1 431 0 discriminator 3
	subi r28,lo8(-(1))
.LVL40:
	.loc 1 432 0 discriminator 3
	mov r24,r17
.LVL41:
.L21:
	.loc 1 431 0 discriminator 1
	cpi r28,lo8(8)
	brlo .L22
.LVL42:
.L20:
.LBE49:
.LBE48:
	.loc 1 437 0
	ldi r24,0
/* epilogue start */
	pop r29
	pop r28
	pop r17
	ret
	.cfi_endproc
.LFE13:
	.size	menuOnExitRegisterEdit, .-menuOnExitRegisterEdit
	.section	.text.menuOnExitCoupler,"ax",@progbits
.global	menuOnExitCoupler
	.type	menuOnExitCoupler, @function
menuOnExitCoupler:
.LFB15:
	.loc 1 446 0
	.cfi_startproc
.LVL43:
/* prologue: function */
/* frame size = 0 */
/* stack size = 0 */
.L__stack_usage = 0
	.loc 1 448 0
	lds r30,currentMenu
	lds r31,currentMenu+1
	adiw r30,14
	lpm r24,Z+
	lpm r25,Z+
.LVL44:
	subi r24,lo8(midi_Couplers)
	sbci r25,hi8(midi_Couplers)
.LVL45:
	.loc 1 449 0
	movw r30,r24
	clr r31
	subi r30,lo8(-(midi_Couplers))
	sbci r31,hi8(-(midi_Couplers))
	ld r18,Z
	cpse r18,__zero_reg__
	.loc 1 451 0
	call set_Coupler
.LVL46:
.L24:
	.loc 1 454 0
	ldi r24,0
	ret
	.cfi_endproc
.LFE15:
	.size	menuOnExitCoupler, .-menuOnExitCoupler
	.section	.text.menuOnExitSaveProgram,"ax",@progbits
.global	menuOnExitSaveProgram
	.type	menuOnExitSaveProgram, @function
menuOnExitSaveProgram:
.LFB35:
	.loc 1 593 0
	.cfi_startproc
.LVL47:
/* prologue: function */
/* frame size = 0 */
/* stack size = 0 */
.L__stack_usage = 0
	.loc 1 594 0
	cpi r24,lo8(6)
	breq .L26
	.loc 1 594 0 is_stmt 0 discriminator 1
	lds r24,menuVKombination
.LVL48:
	cpi r24,lo8(64)
	brsh .L26
	.loc 1 595 0 is_stmt 1
	ldi r22,lo8(-1)
	call register_toProgram
.LVL49:
.L26:
	.loc 1 598 0
	ldi r24,0
	ret
	.cfi_endproc
.LFE35:
	.size	menuOnExitSaveProgram, .-menuOnExitSaveProgram
	.section	.text.menuOnExitKeys,"ax",@progbits
.global	menuOnExitKeys
	.type	menuOnExitKeys, @function
menuOnExitKeys:
.LFB40:
	.loc 1 632 0
	.cfi_startproc
.LVL50:
/* prologue: function */
/* frame size = 0 */
/* stack size = 0 */
.L__stack_usage = 0
	.loc 1 634 0
	call eeprom_UpdateSoftkeys
.LVL51:
	.loc 1 636 0
	ldi r24,0
	ret
	.cfi_endproc
.LFE40:
	.size	menuOnExitKeys, .-menuOnExitKeys
	.section	.text.menu_readModule,"ax",@progbits
.global	menu_readModule
	.type	menu_readModule, @function
menu_readModule:
.LFB46:
	.loc 1 756 0
	.cfi_startproc
.LVL52:
	push r12
.LCFI3:
	.cfi_def_cfa_offset 4
	.cfi_offset 12, -3
	push r13
.LCFI4:
	.cfi_def_cfa_offset 5
	.cfi_offset 13, -4
	push r14
.LCFI5:
	.cfi_def_cfa_offset 6
	.cfi_offset 14, -5
	push r15
.LCFI6:
	.cfi_def_cfa_offset 7
	.cfi_offset 15, -6
/* prologue: function */
/* frame size = 0 */
/* stack size = 4 */
.L__stack_usage = 4
.LVL53:
	.loc 1 759 0
	ldi r24,lo8(1)
	ldi r25,0
.LVL54:
	lds r0,menuVmodule
	rjmp 2f
	1:
	lsl r24
	rol r25
	2:
	dec r0
	brpl 1b
	mov r18,r24
.LVL55:
.LBB50:
	.loc 1 761 0
	ldi r25,0
.LBE50:
	.loc 1 760 0
	ldi r30,lo8(pipe+248)
	ldi r31,hi8(pipe+248)
.LVL56:
	.loc 1 758 0
	mov r12,__zero_reg__
	mov r13,__zero_reg__
	movw r14,r12
.LBB51:
	.loc 1 761 0
	rjmp .L29
.LVL57:
.L31:
	.loc 1 762 0
	lsl r12
	rol r13
	rol r14
	rol r15
.LVL58:
	.loc 1 763 0
	ldd r24,Z+6
	and r24,r18
	breq .L30
	.loc 1 764 0
	set
	bld r12,0
.LVL59:
.L30:
	.loc 1 766 0 discriminator 2
	sbiw r30,8
.LVL60:
	.loc 1 761 0 discriminator 2
	subi r25,lo8(-(1))
.LVL61:
.L29:
	.loc 1 761 0 is_stmt 0 discriminator 1
	cpi r25,lo8(32)
	brlo .L31
.LBE51:
	.loc 1 768 0 is_stmt 1
	ldi r24,lo8(30)
	call lcd_goto
.LVL62:
	.loc 1 769 0
	sts editLong,r12
	sts editLong+1,r13
	sts editLong+2,r14
	sts editLong+3,r15
	.loc 1 770 0
	call lcd_longout
.LVL63:
	.loc 1 772 0
	ldi r24,0
/* epilogue start */
	pop r15
	pop r14
	pop r13
	pop r12
.LVL64:
	ret
	.cfi_endproc
.LFE46:
	.size	menu_readModule, .-menu_readModule
	.section	.text.menu_testModule,"ax",@progbits
.global	menu_testModule
	.type	menu_testModule, @function
menu_testModule:
.LFB47:
	.loc 1 774 0
	.cfi_startproc
.LVL65:
/* prologue: function */
/* frame size = 0 */
/* stack size = 0 */
.L__stack_usage = 0
	.loc 1 776 0
	ldi r24,lo8(30)
.LVL66:
	call lcd_goto
.LVL67:
	.loc 1 777 0
	lds r24,menuVmodule
	call test_PipeModule
.LVL68:
	sts editLong,r22
	sts editLong+1,r23
	sts editLong+2,r24
	sts editLong+3,r25
	.loc 1 778 0
	call lcd_longout
.LVL69:
	.loc 1 780 0
	ldi r24,0
	ret
	.cfi_endproc
.LFE47:
	.size	menu_testModule, .-menu_testModule
	.section	.text.menuOnEnterTune,"ax",@progbits
.global	menuOnEnterTune
	.type	menuOnEnterTune, @function
menuOnEnterTune:
.LFB56:
	.loc 1 842 0
	.cfi_startproc
.LVL70:
	push r28
.LCFI7:
	.cfi_def_cfa_offset 4
	.cfi_offset 28, -3
/* prologue: function */
/* frame size = 0 */
/* stack size = 1 */
.L__stack_usage = 1
.LVL71:
	.loc 1 849 0
	cpi r24,lo8(-1)
	breq .+2
	rjmp .L34
	.loc 1 851 0
	sts minManNote.2859,r24
	.loc 1 852 0
	sts maxManNote.2860,__zero_reg__
	.loc 1 853 0
	lds r30,currentMenu
	lds r31,currentMenu+1
	adiw r30,14
	lpm r24,Z+
	lpm r25,Z+
.LVL72:
	sts menuVmanual,r24
	.loc 1 854 0
	cpi r24,lo8(4)
	brlo .L35
	.loc 1 855 0
	sts menuVmanual,__zero_reg__
.L35:
	.loc 1 842 0 discriminator 1
	ldi r18,0
	rjmp .L36
.LVL73:
.L39:
.LBB52:
	.loc 1 858 0
	lds r24,menuVmanual
	ldi r25,0
	mov r30,r18
	ldi r31,0
	movw r26,r30
	lsl r26
	rol r27
	movw r20,r26
	add r20,r30
	adc r21,r31
	movw r26,r24
	lsl r26
	rol r27
	add r26,r24
	adc r27,r25
	lsl r26
	rol r27
	lsl r26
	rol r27
	add r26,r20
	adc r27,r21
	subi r26,lo8(-(manualMap))
	sbci r27,hi8(-(manualMap))
	ld r19,X
	lds r20,minManNote.2859
	cp r19,r20
	brsh .L37
	.loc 1 859 0
	sts minManNote.2859,r19
.L37:
	.loc 1 861 0
	movw r20,r30
	lsl r20
	rol r21
	add r30,r20
	adc r31,r21
	movw r20,r24
	lsl r20
	rol r21
	add r24,r20
	adc r25,r21
	lsl r24
	rol r25
	lsl r24
	rol r25
	add r30,r24
	adc r31,r25
	subi r30,lo8(-(manualMap))
	sbci r31,hi8(-(manualMap))
	ldd r24,Z+1
	lds r25,maxManNote.2860
	cp r25,r24
	brsh .L38
	.loc 1 862 0
	sts maxManNote.2860,r24
.L38:
	.loc 1 857 0 discriminator 2
	subi r18,lo8(-(1))
.LVL74:
.L36:
	.loc 1 857 0 is_stmt 0 discriminator 1
	cpi r18,lo8(4)
	brlo .L39
.LBE52:
	.loc 1 865 0 is_stmt 1
	lds r24,minManNote.2859
	tst r24
	brge .L40
	.loc 1 867 0
	ldi r24,lo8(30)
	call lcd_goto
.LVL75:
	.loc 1 868 0
	ldi r24,lo8(stringNotAssigen)
	ldi r25,hi8(stringNotAssigen)
	call lcd_puts_P
.LVL76:
	.loc 1 869 0
	ldi r24,lo8(-1)
	sts menuNote,r24
	rjmp .L41
.LVL77:
.L40:
	.loc 1 871 0
	sts menuNote,r24
	.loc 1 872 0
	sts notOnOff.2861,__zero_reg__
.LVL78:
.L41:
	.loc 1 874 0
	ldi r22,lo8(keylabel_exit)
	ldi r23,hi8(keylabel_exit)
	ldi r24,0
	call keylabel_set
.LVL79:
	.loc 1 875 0
	ldi r22,lo8(keylabel_onoff)
	ldi r23,hi8(keylabel_onoff)
	ldi r24,lo8(1)
	call keylabel_set
.LVL80:
	.loc 1 876 0
	ldi r22,lo8(keylabel_minus)
	ldi r23,hi8(keylabel_minus)
	ldi r24,lo8(2)
	call keylabel_set
.LVL81:
	.loc 1 877 0
	ldi r22,lo8(keylabel_plus)
	ldi r23,hi8(keylabel_plus)
	ldi r24,lo8(3)
	call keylabel_set
.LVL82:
	.loc 1 878 0
	call keylabel_toLCD
.LVL83:
	.loc 1 847 0
	ldi r28,lo8(-1)
	rjmp .L42
.LVL84:
.L34:
	.loc 1 879 0
	lds r22,menuNote
	cpi r22,lo8(-1)
	brne .+2
	rjmp .L55
	.loc 1 881 0
	cpi r24,lo8(1)
	brne .L43
	.loc 1 882 0
	lds r24,maxManNote.2860
.LVL85:
	cp r22,r24
	brlo .+2
	rjmp .L56
	.loc 1 883 0
	ldi r20,0
	lds r24,menuVmanual
	call manual_NoteOnOff
.LVL86:
	.loc 1 884 0
	lds r22,menuNote
	subi r22,lo8(-(1))
	sts menuNote,r22
	.loc 1 885 0
	lds r24,notOnOff.2861
	cpi r24,lo8(1)
	breq .+2
	rjmp .L57
	.loc 1 886 0
	ldi r20,lo8(1)
	lds r24,menuVmanual
	call manual_NoteOnOff
.LVL87:
	.loc 1 847 0
	ldi r28,lo8(-1)
	rjmp .L42
.LVL88:
.L43:
	.loc 1 889 0
	cpi r24,lo8(4)
	brne .L44
	.loc 1 890 0
	lds r24,minManNote.2859
.LVL89:
	cp r24,r22
	brlo .+2
	rjmp .L58
	.loc 1 891 0
	ldi r20,0
	lds r24,menuVmanual
	call manual_NoteOnOff
.LVL90:
	.loc 1 892 0
	lds r22,menuNote
	subi r22,lo8(-(-1))
	sts menuNote,r22
	.loc 1 893 0
	lds r24,notOnOff.2861
	cpi r24,lo8(1)
	brne .L59
	.loc 1 894 0
	ldi r20,lo8(1)
	lds r24,menuVmanual
	call manual_NoteOnOff
.LVL91:
	.loc 1 847 0
	ldi r28,lo8(-1)
	rjmp .L42
.LVL92:
.L44:
	.loc 1 897 0
	cpi r24,lo8(3)
	brne .L45
	.loc 1 898 0
	lds r24,notOnOff.2861
.LVL93:
	cpse r24,__zero_reg__
	rjmp .L46
	.loc 1 899 0
	ldi r24,lo8(1)
	sts notOnOff.2861,r24
	rjmp .L47
.L46:
	.loc 1 901 0
	sts notOnOff.2861,__zero_reg__
.L47:
	.loc 1 903 0
	lds r20,notOnOff.2861
	lds r24,menuVmanual
	call manual_NoteOnOff
.LVL94:
	.loc 1 847 0
	ldi r28,lo8(-1)
	rjmp .L42
.LVL95:
.L45:
	.loc 1 904 0
	cpi r24,lo8(2)
	breq .L48
	.loc 1 904 0 is_stmt 0 discriminator 1
	cpi r24,lo8(6)
	brne .L49
.L48:
	.loc 1 905 0 is_stmt 1
	ldi r20,0
	lds r24,menuVmanual
.LVL96:
	call manual_NoteOnOff
.LVL97:
	.loc 1 906 0
	ldi r28,0
	rjmp .L42
.LVL98:
.L49:
	.loc 1 907 0
	cpi r24,lo8(5)
	brne .L60
	.loc 1 908 0
	ldi r20,0
	lds r24,menuVmanual
.LVL99:
	call manual_NoteOnOff
.LVL100:
	.loc 1 909 0
	ldi r28,0
	rjmp .L42
.LVL101:
.L55:
	.loc 1 880 0
	ldi r28,0
	rjmp .L42
.LVL102:
.L56:
	.loc 1 847 0
	ldi r28,lo8(-1)
	rjmp .L42
.L57:
	ldi r28,lo8(-1)
	rjmp .L42
.L58:
	ldi r28,lo8(-1)
	rjmp .L42
.L59:
	ldi r28,lo8(-1)
	rjmp .L42
.LVL103:
.L60:
	ldi r28,lo8(-1)
.LVL104:
.L42:
	.loc 1 911 0
	cpi r28,lo8(-1)
	brne .L50
	.loc 1 913 0
	lds r24,menuNote
	cpi r24,lo8(-1)
	breq .L51
	.loc 1 915 0
	ldi r24,lo8(30)
	call lcd_goto
.LVL105:
	.loc 1 916 0
	lds r24,menuNote
	call lcd_noteOut
.LVL106:
	.loc 1 917 0
	ldi r24,lo8(32)
	call lcd_putc
.LVL107:
	.loc 1 918 0
	lds r24,notOnOff.2861
	cpse r24,__zero_reg__
	rjmp .L52
	.loc 1 919 0
	ldi r24,lo8(97)
	call lcd_putc
.LVL108:
	.loc 1 920 0
	ldi r24,lo8(117)
	call lcd_putc
.LVL109:
	.loc 1 921 0
	ldi r24,lo8(115)
	call lcd_putc
.LVL110:
	rjmp .L53
.L52:
	.loc 1 923 0
	ldi r24,lo8(101)
	call lcd_putc
.LVL111:
	.loc 1 924 0
	ldi r24,lo8(105)
	call lcd_putc
.LVL112:
	.loc 1 925 0
	ldi r24,lo8(110)
	call lcd_putc
.LVL113:
.L53:
	.loc 1 927 0
	ldi r22,lo8(1)
	lds r24,notOnOff.2861
	cpse r24,__zero_reg__
	rjmp .L54
	ldi r22,0
.L54:
	ldi r24,lo8(1)
	call keylabel_statcheck
.LVL114:
	cpse r24,__zero_reg__
	.loc 1 928 0
	call keylabel_toLCD
.LVL115:
.L51:
	.loc 1 931 0
	ldi r24,lo8(30)
	call lcd_goto
.LVL116:
.L50:
	.loc 1 934 0
	mov r24,r28
/* epilogue start */
	pop r28
.LVL117:
	ret
	.cfi_endproc
.LFE56:
	.size	menuOnEnterTune, .-menuOnEnterTune
	.section	.text.menuOnExitMidiActiveSense,"ax",@progbits
.global	menuOnExitMidiActiveSense
	.type	menuOnExitMidiActiveSense, @function
menuOnExitMidiActiveSense:
.LFB57:
	.loc 1 936 0
	.cfi_startproc
.LVL118:
/* prologue: function */
/* frame size = 0 */
/* stack size = 0 */
.L__stack_usage = 0
	.loc 1 938 0
	call eeprom_UpdateMidiOutMap
.LVL119:
	.loc 1 940 0
	ldi r24,0
	ret
	.cfi_endproc
.LFE57:
	.size	menuOnExitMidiActiveSense, .-menuOnExitMidiActiveSense
	.section	.text.menuOnExitMidiOut,"ax",@progbits
.global	menuOnExitMidiOut
	.type	menuOnExitMidiOut, @function
menuOnExitMidiOut:
.LFB61:
	.loc 1 1003 0
	.cfi_startproc
.LVL120:
/* prologue: function */
/* frame size = 0 */
/* stack size = 0 */
.L__stack_usage = 0
	.loc 1 1005 0
	call eeprom_UpdateMidiOutMap
.LVL121:
	.loc 1 1007 0
	ldi r24,0
	ret
	.cfi_endproc
.LFE61:
	.size	menuOnExitMidiOut, .-menuOnExitMidiOut
	.section	.text.menuOnExitMidiIn,"ax",@progbits
.global	menuOnExitMidiIn
	.type	menuOnExitMidiIn, @function
menuOnExitMidiIn:
.LFB60:
	.loc 1 997 0
	.cfi_startproc
.LVL122:
/* prologue: function */
/* frame size = 0 */
/* stack size = 0 */
.L__stack_usage = 0
	.loc 1 999 0
	call eeprom_UpdateMidiInMap
.LVL123:
	.loc 1 1001 0
	ldi r24,0
	ret
	.cfi_endproc
.LFE60:
	.size	menuOnExitMidiIn, .-menuOnExitMidiIn
	.section	.text.menuOnExitManual,"ax",@progbits
.global	menuOnExitManual
	.type	menuOnExitManual, @function
menuOnExitManual:
.LFB62:
	.loc 1 1009 0
	.cfi_startproc
.LVL124:
/* prologue: function */
/* frame size = 0 */
/* stack size = 0 */
.L__stack_usage = 0
	.loc 1 1011 0
	call eeprom_UpdateManualMap
.LVL125:
	.loc 1 1012 0
	call registers_CalcCount
.LVL126:
	.loc 1 1013 0
	call eeprom_UpdateReg
.LVL127:
	.loc 1 1014 0
	call Midi_updateManualRange
.LVL128:
	.loc 1 1016 0
	ldi r24,0
	ret
	.cfi_endproc
.LFE62:
	.size	menuOnExitManual, .-menuOnExitManual
	.section	.text.menuOnExitModules,"ax",@progbits
.global	menuOnExitModules
	.type	menuOnExitModules, @function
menuOnExitModules:
.LFB63:
	.loc 1 1018 0
	.cfi_startproc
.LVL129:
/* prologue: function */
/* frame size = 0 */
/* stack size = 0 */
.L__stack_usage = 0
	.loc 1 1020 0
	call eeprom_UpdateModules
.LVL130:
	.loc 1 1022 0
	ldi r24,0
	ret
	.cfi_endproc
.LFE63:
	.size	menuOnExitModules, .-menuOnExitModules
	.section	.text.menuOnEnterUSBprotokoll,"ax",@progbits
.global	menuOnEnterUSBprotokoll
	.type	menuOnEnterUSBprotokoll, @function
menuOnEnterUSBprotokoll:
.LFB69:
	.loc 1 1122 0
	.cfi_startproc
.LVL131:
	push r28
.LCFI8:
	.cfi_def_cfa_offset 4
	.cfi_offset 28, -3
/* prologue: function */
/* frame size = 0 */
/* stack size = 1 */
.L__stack_usage = 1
	.loc 1 1124 0
	ldi r24,lo8(usbLog)
	ldi r25,hi8(usbLog)
.LVL132:
	call serial0SER_USB_sendStringP
.LVL133:
	.loc 1 1125 0
	call log_count
.LVL134:
	.loc 1 1126 0
	cpse r24,__zero_reg__
	rjmp .L67
	.loc 1 1127 0
	ldi r24,lo8(usbEmpty)
	ldi r25,hi8(usbEmpty)
.LVL135:
	call serial0SER_USB_sendStringP
.LVL136:
	rjmp .L68
.LVL137:
.L69:
	.loc 1 1130 0
	ldi r22,lo8(-1)
	mov r24,r28
	call log_getShortTextFromIndex
.LVL138:
	call serial0SER_USB_sendString
.LVL139:
	.loc 1 1131 0
	ldi r24,lo8(cr_lf)
	ldi r25,hi8(cr_lf)
	call serial0SER_USB_sendStringP
.LVL140:
	.loc 1 1129 0
	mov r24,r28
.LVL141:
.L67:
	ldi r28,lo8(-1)
	add r28,r24
.LVL142:
	cpse r24,__zero_reg__
	rjmp .L69
.LVL143:
.L68:
	.loc 1 1135 0
	ldi r24,0
/* epilogue start */
	pop r28
	ret
	.cfi_endproc
.LFE69:
	.size	menuOnEnterUSBprotokoll, .-menuOnEnterUSBprotokoll
	.section	.text.menuOnExitUSBactive,"ax",@progbits
.global	menuOnExitUSBactive
	.type	menuOnExitUSBactive, @function
menuOnExitUSBactive:
.LFB70:
	.loc 1 1139 0
	.cfi_startproc
.LVL144:
/* prologue: function */
/* frame size = 0 */
/* stack size = 0 */
.L__stack_usage = 0
	.loc 1 1141 0
	call eeprom_UpdateUSB
.LVL145:
	.loc 1 1142 0
	lds r24,serusb_Active
	cpi r24,lo8(-1)
	brne .L71
	.loc 1 1143 0
	ldi r24,lo8(HelloMsg)
	ldi r25,hi8(HelloMsg)
	call serial0SER_USB_sendStringP
.LVL146:
	.loc 1 1144 0
	ldi r24,lo8(sw_version)
	ldi r25,hi8(sw_version)
	call serial0SER_USB_sendStringP
.LVL147:
	.loc 1 1145 0
	ldi r24,lo8(cr_lf)
	ldi r25,hi8(cr_lf)
	call serial0SER_USB_sendStringP
.LVL148:
.L71:
	.loc 1 1148 0
	ldi r24,0
	ret
	.cfi_endproc
.LFE70:
	.size	menuOnExitUSBactive, .-menuOnExitUSBactive
	.section	.text.menuOnEnterUSBsendHW,"ax",@progbits
.global	menuOnEnterUSBsendHW
	.type	menuOnEnterUSBsendHW, @function
menuOnEnterUSBsendHW:
.LFB71:
	.loc 1 1159 0
	.cfi_startproc
.LVL149:
	push r9
.LCFI9:
	.cfi_def_cfa_offset 4
	.cfi_offset 9, -3
	push r10
.LCFI10:
	.cfi_def_cfa_offset 5
	.cfi_offset 10, -4
	push r11
.LCFI11:
	.cfi_def_cfa_offset 6
	.cfi_offset 11, -5
	push r12
.LCFI12:
	.cfi_def_cfa_offset 7
	.cfi_offset 12, -6
	push r13
.LCFI13:
	.cfi_def_cfa_offset 8
	.cfi_offset 13, -7
	push r14
.LCFI14:
	.cfi_def_cfa_offset 9
	.cfi_offset 14, -8
	push r15
.LCFI15:
	.cfi_def_cfa_offset 10
	.cfi_offset 15, -9
	push r16
.LCFI16:
	.cfi_def_cfa_offset 11
	.cfi_offset 16, -10
	push r17
.LCFI17:
	.cfi_def_cfa_offset 12
	.cfi_offset 17, -11
	push r28
.LCFI18:
	.cfi_def_cfa_offset 13
	.cfi_offset 28, -12
	push r29
.LCFI19:
	.cfi_def_cfa_offset 14
	.cfi_offset 29, -13
/* prologue: function */
/* frame size = 0 */
/* stack size = 11 */
.L__stack_usage = 11
	.loc 1 1162 0
	ldi r24,lo8(usbHWtitel)
	ldi r25,hi8(usbHWtitel)
.LVL150:
	call serial0SER_USB_sendStringP
.LVL151:
	.loc 1 1163 0
	ldi r24,lo8(usbHWmodulInst)
	ldi r25,hi8(usbHWmodulInst)
	call serial0SER_USB_sendStringP
.LVL152:
	.loc 1 1164 0
	ldi r22,lo8(string_Buf)
	ldi r23,hi8(string_Buf)
	lds r24,pipe_ModuleAssnRead
	call putChar_hex
.LVL153:
	.loc 1 1165 0
	ldi r18,lo8(114)
	movw r30,r24
	st Z,r18
	.loc 1 1166 0
	movw r22,r24
	subi r22,-2
	sbci r23,-1
.LVL154:
	ldi r18,lo8(32)
	std Z+1,r18
	.loc 1 1167 0
	lds r24,pipe_ModuleAssnWrite
	call putChar_hex
.LVL155:
	.loc 1 1168 0
	ldi r18,lo8(119)
	movw r30,r24
	st Z,r18
	.loc 1 1169 0
	ldi r24,lo8(string_Buf)
	ldi r25,hi8(string_Buf)
.LVL156:
	call serial0SER_USB_sendString
.LVL157:
	.loc 1 1170 0
	call serial0SER_USB_sendCRLF
.LVL158:
	.loc 1 1171 0
	ldi r24,lo8(usbHWmodulCheck)
	ldi r25,hi8(usbHWmodulCheck)
	call serial0SER_USB_sendStringP
.LVL159:
	.loc 1 1172 0
	ldi r22,lo8(string_Buf)
	ldi r23,hi8(string_Buf)
	lds r24,pipe_ModuleTested
	call putChar_hex
.LVL160:
	.loc 1 1173 0
	ldi r24,lo8(string_Buf)
	ldi r25,hi8(string_Buf)
	call serial0SER_USB_sendString
.LVL161:
	.loc 1 1174 0
	call serial0SER_USB_sendCRLF
.LVL162:
.LBB53:
	.loc 1 1175 0
	mov r14,__zero_reg__
	rjmp .L73
.LVL163:
.L78:
	.loc 1 1177 0
	ldi r24,lo8(usbHWManual)
	ldi r25,hi8(usbHWManual)
	call serial0SER_USB_sendStringP
.LVL164:
	.loc 1 1178 0
	ldi r22,lo8(string_Buf)
	ldi r23,hi8(string_Buf)
	mov r24,r14
	call putChar_Manual
.LVL165:
	.loc 1 1179 0
	ldi r24,lo8(string_Buf)
	ldi r25,hi8(string_Buf)
	call serial0SER_USB_sendString
.LVL166:
	.loc 1 1180 0
	call serial0SER_USB_sendCRLF
.LVL167:
.LBB54:
	.loc 1 1181 0
	mov r15,__zero_reg__
	rjmp .L74
.LVL168:
.L77:
	.loc 1 1183 0
	ldi r24,lo8(usbHWRange)
	ldi r25,hi8(usbHWRange)
	call serial0SER_USB_sendStringP
.LVL169:
	.loc 1 1184 0
	ldi r24,lo8(48)
	add r24,r15
	call serial0SER_USBSend
.LVL170:
	.loc 1 1185 0
	ldi r24,lo8(45)
	call serial0SER_USBSend
.LVL171:
	.loc 1 1186 0
	ldi r24,lo8(32)
	call serial0SER_USBSend
.LVL172:
	.loc 1 1187 0
	mov r16,r14
	ldi r17,0
	mov r12,r15
	mov r13,__zero_reg__
	movw r28,r12
	lsl r28
	rol r29
	movw r24,r28
	add r24,r12
	adc r25,r13
	movw r28,r16
	lsl r28
	rol r29
	add r28,r16
	adc r29,r17
	lsl r28
	rol r29
	lsl r28
	rol r29
	add r28,r24
	adc r29,r25
	subi r28,lo8(-(manualMap))
	sbci r29,hi8(-(manualMap))
	ldi r22,lo8(string_Buf)
	ldi r23,hi8(string_Buf)
	ld r24,Y
	call putChar_hex
.LVL173:
	.loc 1 1188 0
	movw r22,r24
	subi r22,-1
	sbci r23,-1
.LVL174:
	set
	clr r11
	bld r11,5
	movw r30,r24
	st Z,r11
	.loc 1 1189 0
	ldd r24,Y+1
	call putChar_hex
.LVL175:
	.loc 1 1190 0
	movw r22,r24
	subi r22,-1
	sbci r23,-1
.LVL176:
	movw r30,r24
	st Z,r11
	.loc 1 1191 0
	ldd r24,Y+2
	call putChar_hex
.LVL177:
	.loc 1 1192 0
	ldi r18,lo8(61)
	movw r30,r24
	st Z,r18
	.loc 1 1193 0
	ldi r24,lo8(string_Buf)
	ldi r25,hi8(string_Buf)
.LVL178:
	call serial0SER_USB_sendString
.LVL179:
	.loc 1 1194 0
	ld r24,Y
	tst r24
	brge .L75
.LVL180:
	.loc 1 1195 0
	ldi r24,lo8(usbHWempty)
	ldi r25,hi8(usbHWempty)
	call serial0SER_USB_sendStringP
.LVL181:
	rjmp .L76
.L75:
	.loc 1 1197 0
	ldi r22,lo8(string_Buf)
	ldi r23,hi8(string_Buf)
	call putChar_Note
.LVL182:
	.loc 1 1198 0
	movw r22,r24
	subi r22,-1
	sbci r23,-1
.LVL183:
	mov __tmp_reg__,r31
	ldi r31,lo8(45)
	mov r9,r31
	mov r31,__tmp_reg__
	movw r30,r24
	st Z,r9
	.loc 1 1199 0
	movw r30,r12
	lsl r30
	rol r31
	add r12,r30
	adc r13,r31
.LVL184:
	movw r10,r16
	lsl r10
	rol r11
	movw r28,r10
	add r28,r16
	adc r29,r17
	lsl r28
	rol r29
	lsl r28
	rol r29
	add r28,r12
	adc r29,r13
	subi r28,lo8(-(manualMap))
	sbci r29,hi8(-(manualMap))
	ldd r24,Y+1
	call putChar_Note
.LVL185:
	.loc 1 1200 0
	ldi r18,lo8(32)
	movw r30,r24
	st Z,r18
	.loc 1 1201 0
	ldi r24,lo8(string_Buf)
	ldi r25,hi8(string_Buf)
.LVL186:
	call serial0SER_USB_sendString
.LVL187:
	.loc 1 1202 0
	ldi r24,lo8(usbHWmodule)
	ldi r25,hi8(usbHWmodule)
	call serial0SER_USB_sendStringP
.LVL188:
	.loc 1 1203 0
	ldd r24,Y+2
	swap r24
	lsr r24
	andi r24,lo8(7)
	subi r24,lo8(-(48))
	call serial0SER_USBSend
.LVL189:
	.loc 1 1204 0
	ldi r24,lo8(usbHWBits)
	ldi r25,hi8(usbHWBits)
	call serial0SER_USB_sendStringP
.LVL190:
	.loc 1 1205 0
	ldd r24,Y+2
	ldi r22,lo8(string_Buf)
	ldi r23,hi8(string_Buf)
	andi r24,lo8(31)
	call putChar_Dec2
.LVL191:
	.loc 1 1206 0
	movw r22,r24
	subi r22,-1
	sbci r23,-1
.LVL192:
	movw r30,r24
	st Z,r9
	.loc 1 1207 0
	ldd r24,Y+2
	ldd r25,Y+1
	ld r18,Y
	andi r24,lo8(31)
	add r24,r25
	sub r24,r18
	call putChar_Dec2
.LVL193:
	.loc 1 1208 0
	ldi r24,lo8(string_Buf)
	ldi r25,hi8(string_Buf)
	call serial0SER_USB_sendString
.LVL194:
.L76:
	.loc 1 1210 0 discriminator 2
	call serial0SER_USB_sendCRLF
.LVL195:
	.loc 1 1181 0 discriminator 2
	inc r15
.LVL196:
.L74:
	.loc 1 1181 0 is_stmt 0 discriminator 1
	ldi r31,lo8(3)
	cp r31,r15
	brlo .+2
	rjmp .L77
.LBE54:
	.loc 1 1175 0 is_stmt 1 discriminator 2
	inc r14
.LVL197:
.L73:
	.loc 1 1175 0 is_stmt 0 discriminator 1
	ldi r24,lo8(3)
	cp r24,r14
	brlo .+2
	rjmp .L78
.LBE53:
	.loc 1 1214 0 is_stmt 1
	ldi r24,0
/* epilogue start */
	pop r29
	pop r28
	pop r17
	pop r16
	pop r15
	pop r14
.LVL198:
	pop r13
	pop r12
	pop r11
	pop r10
	pop r9
	ret
	.cfi_endproc
.LFE71:
	.size	menuOnEnterUSBsendHW, .-menuOnEnterUSBsendHW
	.section	.text.reverseRegisterBits,"ax",@progbits
.global	reverseRegisterBits
	.type	reverseRegisterBits, @function
reverseRegisterBits:
.LFB11:
	.loc 1 413 0
	.cfi_startproc
	push r17
.LCFI20:
	.cfi_def_cfa_offset 4
	.cfi_offset 17, -3
	push r28
.LCFI21:
	.cfi_def_cfa_offset 5
	.cfi_offset 28, -4
	push r29
.LCFI22:
	.cfi_def_cfa_offset 6
	.cfi_offset 29, -5
/* prologue: function */
/* frame size = 0 */
/* stack size = 3 */
.L__stack_usage = 3
.LVL199:
.LBB55:
	.loc 1 414 0
	ldi r17,0
	rjmp .L80
.LVL200:
.L81:
	.loc 1 415 0 discriminator 3
	mov r28,r17
	ldi r29,0
	subi r28,lo8(-(menuVRegisters))
	sbci r29,hi8(-(menuVRegisters))
	ld r24,Y
	call reverse_Bits
.LVL201:
	st Y,r24
	.loc 1 414 0 discriminator 3
	subi r17,lo8(-(1))
.LVL202:
.L80:
	.loc 1 414 0 is_stmt 0 discriminator 1
	cpi r17,lo8(8)
	brlo .L81
/* epilogue start */
.LBE55:
	.loc 1 417 0 is_stmt 1
	pop r29
	pop r28
	pop r17
.LVL203:
	ret
	.cfi_endproc
.LFE11:
	.size	reverseRegisterBits, .-reverseRegisterBits
	.section	.text.menuOnUpdateRegister,"ax",@progbits
.global	menuOnUpdateRegister
	.type	menuOnUpdateRegister, @function
menuOnUpdateRegister:
.LFB12:
	.loc 1 419 0
	.cfi_startproc
.LVL204:
/* prologue: function */
/* frame size = 0 */
/* stack size = 0 */
.L__stack_usage = 0
	.loc 1 421 0
	ldi r24,lo8(menuVRegisters)
	ldi r25,hi8(menuVRegisters)
.LVL205:
	call read_allRegister
.LVL206:
	.loc 1 422 0
	call reverseRegisterBits
.LVL207:
	.loc 1 424 0
	ldi r24,0
	ret
	.cfi_endproc
.LFE12:
	.size	menuOnUpdateRegister, .-menuOnUpdateRegister
	.section	.text.menuOnEnterResetReg,"ax",@progbits
.global	menuOnEnterResetReg
	.type	menuOnEnterResetReg, @function
menuOnEnterResetReg:
.LFB14:
	.loc 1 439 0
	.cfi_startproc
.LVL208:
/* prologue: function */
/* frame size = 0 */
/* stack size = 0 */
.L__stack_usage = 0
	.loc 1 441 0
	call midi_resetRegisters
.LVL209:
	.loc 1 442 0
	ldi r24,0
	call menuOnUpdateRegister
.LVL210:
	.loc 1 444 0
	ldi r24,0
	ret
	.cfi_endproc
.LFE14:
	.size	menuOnEnterResetReg, .-menuOnEnterResetReg
	.section	.text.menuOnExitLoadProgran,"ax",@progbits
.global	menuOnExitLoadProgran
	.type	menuOnExitLoadProgran, @function
menuOnExitLoadProgran:
.LFB36:
	.loc 1 599 0
	.cfi_startproc
.LVL211:
/* prologue: function */
/* frame size = 0 */
/* stack size = 0 */
.L__stack_usage = 0
	.loc 1 600 0
	cpi r24,lo8(6)
	breq .L85
	.loc 1 600 0 is_stmt 0 discriminator 1
	lds r24,menuVKombination
.LVL212:
	cpi r24,lo8(64)
	brsh .L85
	.loc 1 601 0 is_stmt 1
	call program_toRegister
.LVL213:
.L85:
	.loc 1 603 0
	ldi r24,0
	call menuOnUpdateRegister
.LVL214:
	.loc 1 605 0
	ldi r24,0
	ret
	.cfi_endproc
.LFE36:
	.size	menuOnExitLoadProgran, .-menuOnExitLoadProgran
	.section	.text.softkeyCoupler,"ax",@progbits
.global	softkeyCoupler
	.type	softkeyCoupler, @function
softkeyCoupler:
.LFB16:
	.loc 1 456 0
	.cfi_startproc
.LVL215:
	push r28
.LCFI23:
	.cfi_def_cfa_offset 4
	.cfi_offset 28, -3
/* prologue: function */
/* frame size = 0 */
/* stack size = 1 */
.L__stack_usage = 1
	mov r28,r22
	.loc 1 458 0
	tst r24
	breq .L87
	.loc 1 459 0
	mov r30,r22
	ldi r31,0
	movw r26,r30
	subi r26,lo8(-(midi_Couplers))
	sbci r27,hi8(-(midi_Couplers))
	ld r24,X
.LVL216:
	cpse r24,__zero_reg__
	rjmp .L88
.LBB56:
	.loc 1 460 0
	mov r24,r22
	call set_Coupler
.LVL217:
	.loc 1 461 0
	tst r24
	breq .L87
	.loc 1 462 0
	call midi_ManualOff
.LVL218:
	rjmp .L87
.LVL219:
.L88:
.LBE56:
	.loc 1 465 0
	movw r26,r30
	subi r26,lo8(-(midi_Couplers))
	sbci r27,hi8(-(midi_Couplers))
	st X,__zero_reg__
	.loc 1 466 0
	lsl r30
	rol r31
	subi r30,lo8(-(cplInfo))
	sbci r31,hi8(-(cplInfo))
	lpm r24,Z
	call midi_ManualOff
.LVL220:
.L87:
	.loc 1 469 0
	mov r30,r28
	ldi r31,0
	subi r30,lo8(-(midi_Couplers))
	sbci r31,hi8(-(midi_Couplers))
	ld r24,Z
	cpse r24,__zero_reg__
	rjmp .L90
	ldi r24,lo8(-126)
	rjmp .L89
.L90:
	ldi r24,lo8(-127)
.L89:
/* epilogue start */
	.loc 1 470 0 discriminator 4
	pop r28
.LVL221:
	ret
	.cfi_endproc
.LFE16:
	.size	softkeyCoupler, .-softkeyCoupler
	.section	.text.softKeyCoupler2from3,"ax",@progbits
.global	softKeyCoupler2from3
	.type	softKeyCoupler2from3, @function
softKeyCoupler2from3:
.LFB17:
	.loc 1 472 0
	.cfi_startproc
.LVL222:
/* prologue: function */
/* frame size = 0 */
/* stack size = 0 */
.L__stack_usage = 0
	.loc 1 474 0
	ldi r22,0
	call softkeyCoupler
.LVL223:
	.loc 1 476 0
	ret
	.cfi_endproc
.LFE17:
	.size	softKeyCoupler2from3, .-softKeyCoupler2from3
	.section	.text.softKeyCoupler1from3,"ax",@progbits
.global	softKeyCoupler1from3
	.type	softKeyCoupler1from3, @function
softKeyCoupler1from3:
.LFB18:
	.loc 1 478 0
	.cfi_startproc
.LVL224:
/* prologue: function */
/* frame size = 0 */
/* stack size = 0 */
.L__stack_usage = 0
	.loc 1 479 0
	ldi r22,lo8(1)
	call softkeyCoupler
.LVL225:
	.loc 1 481 0
	ret
	.cfi_endproc
.LFE18:
	.size	softKeyCoupler1from3, .-softKeyCoupler1from3
	.section	.text.softKeyCouplerPfrom3,"ax",@progbits
.global	softKeyCouplerPfrom3
	.type	softKeyCouplerPfrom3, @function
softKeyCouplerPfrom3:
.LFB19:
	.loc 1 483 0
	.cfi_startproc
.LVL226:
/* prologue: function */
/* frame size = 0 */
/* stack size = 0 */
.L__stack_usage = 0
	.loc 1 484 0
	ldi r22,lo8(3)
	call softkeyCoupler
.LVL227:
	.loc 1 486 0
	ret
	.cfi_endproc
.LFE19:
	.size	softKeyCouplerPfrom3, .-softKeyCouplerPfrom3
	.section	.text.softKeyCoupler1from2,"ax",@progbits
.global	softKeyCoupler1from2
	.type	softKeyCoupler1from2, @function
softKeyCoupler1from2:
.LFB20:
	.loc 1 488 0
	.cfi_startproc
.LVL228:
/* prologue: function */
/* frame size = 0 */
/* stack size = 0 */
.L__stack_usage = 0
	.loc 1 489 0
	ldi r22,lo8(2)
	call softkeyCoupler
.LVL229:
	.loc 1 491 0
	ret
	.cfi_endproc
.LFE20:
	.size	softKeyCoupler1from2, .-softKeyCoupler1from2
	.section	.text.softKeyCouplerPfrom2,"ax",@progbits
.global	softKeyCouplerPfrom2
	.type	softKeyCouplerPfrom2, @function
softKeyCouplerPfrom2:
.LFB21:
	.loc 1 493 0
	.cfi_startproc
.LVL230:
/* prologue: function */
/* frame size = 0 */
/* stack size = 0 */
.L__stack_usage = 0
	.loc 1 494 0
	ldi r22,lo8(4)
	call softkeyCoupler
.LVL231:
	.loc 1 496 0
	ret
	.cfi_endproc
.LFE21:
	.size	softKeyCouplerPfrom2, .-softKeyCouplerPfrom2
	.section	.text.softKeyCouplerPfrom1,"ax",@progbits
.global	softKeyCouplerPfrom1
	.type	softKeyCouplerPfrom1, @function
softKeyCouplerPfrom1:
.LFB22:
	.loc 1 498 0
	.cfi_startproc
.LVL232:
/* prologue: function */
/* frame size = 0 */
/* stack size = 0 */
.L__stack_usage = 0
	.loc 1 499 0
	ldi r22,lo8(5)
	call softkeyCoupler
.LVL233:
	.loc 1 501 0
	ret
	.cfi_endproc
.LFE22:
	.size	softKeyCouplerPfrom1, .-softKeyCouplerPfrom1
	.section	.text.softKeyCoupler3from2,"ax",@progbits
.global	softKeyCoupler3from2
	.type	softKeyCoupler3from2, @function
softKeyCoupler3from2:
.LFB23:
	.loc 1 503 0
	.cfi_startproc
.LVL234:
/* prologue: function */
/* frame size = 0 */
/* stack size = 0 */
.L__stack_usage = 0
	.loc 1 505 0
	ldi r22,lo8(6)
	call softkeyCoupler
.LVL235:
	.loc 1 507 0
	ret
	.cfi_endproc
.LFE23:
	.size	softKeyCoupler3from2, .-softKeyCoupler3from2
	.section	.text.softKeyCoupler3from1,"ax",@progbits
.global	softKeyCoupler3from1
	.type	softKeyCoupler3from1, @function
softKeyCoupler3from1:
.LFB24:
	.loc 1 509 0
	.cfi_startproc
.LVL236:
/* prologue: function */
/* frame size = 0 */
/* stack size = 0 */
.L__stack_usage = 0
	.loc 1 510 0
	ldi r22,lo8(7)
	call softkeyCoupler
.LVL237:
	.loc 1 512 0
	ret
	.cfi_endproc
.LFE24:
	.size	softKeyCoupler3from1, .-softKeyCoupler3from1
	.section	.text.softKeyCoupler3fromP,"ax",@progbits
.global	softKeyCoupler3fromP
	.type	softKeyCoupler3fromP, @function
softKeyCoupler3fromP:
.LFB25:
	.loc 1 514 0
	.cfi_startproc
.LVL238:
/* prologue: function */
/* frame size = 0 */
/* stack size = 0 */
.L__stack_usage = 0
	.loc 1 515 0
	ldi r22,lo8(9)
	call softkeyCoupler
.LVL239:
	.loc 1 517 0
	ret
	.cfi_endproc
.LFE25:
	.size	softKeyCoupler3fromP, .-softKeyCoupler3fromP
	.section	.text.softKeyCoupler2from1,"ax",@progbits
.global	softKeyCoupler2from1
	.type	softKeyCoupler2from1, @function
softKeyCoupler2from1:
.LFB26:
	.loc 1 519 0
	.cfi_startproc
.LVL240:
/* prologue: function */
/* frame size = 0 */
/* stack size = 0 */
.L__stack_usage = 0
	.loc 1 520 0
	ldi r22,lo8(8)
	call softkeyCoupler
.LVL241:
	.loc 1 522 0
	ret
	.cfi_endproc
.LFE26:
	.size	softKeyCoupler2from1, .-softKeyCoupler2from1
	.section	.text.softKeyCoupler2fromP,"ax",@progbits
.global	softKeyCoupler2fromP
	.type	softKeyCoupler2fromP, @function
softKeyCoupler2fromP:
.LFB27:
	.loc 1 524 0
	.cfi_startproc
.LVL242:
/* prologue: function */
/* frame size = 0 */
/* stack size = 0 */
.L__stack_usage = 0
	.loc 1 525 0
	ldi r22,lo8(10)
	call softkeyCoupler
.LVL243:
	.loc 1 527 0
	ret
	.cfi_endproc
.LFE27:
	.size	softKeyCoupler2fromP, .-softKeyCoupler2fromP
	.section	.text.softKeyCoupler1fromP,"ax",@progbits
.global	softKeyCoupler1fromP
	.type	softKeyCoupler1fromP, @function
softKeyCoupler1fromP:
.LFB28:
	.loc 1 529 0
	.cfi_startproc
.LVL244:
/* prologue: function */
/* frame size = 0 */
/* stack size = 0 */
.L__stack_usage = 0
	.loc 1 530 0
	ldi r22,lo8(11)
	call softkeyCoupler
.LVL245:
	.loc 1 532 0
	ret
	.cfi_endproc
.LFE28:
	.size	softKeyCoupler1fromP, .-softKeyCoupler1fromP
	.section	.text.menu_Init,"ax",@progbits
.global	menu_Init
	.type	menu_Init, @function
menu_Init:
.LFB72:
	.loc 1 1219 0
	.cfi_startproc
.LVL246:
/* prologue: function */
/* frame size = 0 */
/* stack size = 0 */
.L__stack_usage = 0
	.loc 1 1220 0
	sts menuStackIndex,__zero_reg__
	.loc 1 1221 0
	sbiw r24,0
	brne .L104
	.loc 1 1222 0
	ldi r24,lo8(menu_main)
	ldi r25,hi8(menu_main)
.LVL247:
	sts currentMenu+1,r25
	sts currentMenu,r24
	.loc 1 1223 0
	ldi r24,lo8(initMenuText)
	ldi r25,hi8(initMenuText)
	sts pMenuTopTitle+1,r25
	sts pMenuTopTitle,r24
	rjmp .L105
.LVL248:
.L104:
	.loc 1 1225 0
	sts currentMenu+1,r25
	sts currentMenu,r24
	.loc 1 1226 0
	sts pMenuTopTitle+1,r23
	sts pMenuTopTitle,r22
.LVL249:
.L105:
	.loc 1 1228 0
	ldi r24,lo8(-1)
	sts nibbleIndex,r24
	.loc 1 1229 0
	ldi r24,lo8(nibbleInfo)
	ldi r25,hi8(nibbleInfo)
	sts pNibbleInfo+1,r25
	sts pNibbleInfo,r24
	ret
	.cfi_endproc
.LFE72:
	.size	menu_Init, .-menu_Init
	.section	.text.softkeyLeft,"ax",@progbits
.global	softkeyLeft
	.type	softkeyLeft, @function
softkeyLeft:
.LFB74:
	.loc 1 1244 0
	.cfi_startproc
/* prologue: function */
/* frame size = 0 */
/* stack size = 0 */
.L__stack_usage = 0
	.loc 1 1245 0
	ldi r22,lo8(keylabel_left)
	ldi r23,hi8(keylabel_left)
	ldi r24,lo8(2)
	call keylabel_set
.LVL250:
	ret
	.cfi_endproc
.LFE74:
	.size	softkeyLeft, .-softkeyLeft
	.section	.text.softkeyRight,"ax",@progbits
.global	softkeyRight
	.type	softkeyRight, @function
softkeyRight:
.LFB75:
	.loc 1 1248 0
	.cfi_startproc
/* prologue: function */
/* frame size = 0 */
/* stack size = 0 */
.L__stack_usage = 0
	.loc 1 1249 0
	ldi r22,lo8(keylabel_right)
	ldi r23,hi8(keylabel_right)
	ldi r24,lo8(3)
	call keylabel_set
.LVL251:
	ret
	.cfi_endproc
.LFE75:
	.size	softkeyRight, .-softkeyRight
	.section	.text.softkeyDown,"ax",@progbits
.global	softkeyDown
	.type	softkeyDown, @function
softkeyDown:
.LFB76:
	.loc 1 1252 0
	.cfi_startproc
/* prologue: function */
/* frame size = 0 */
/* stack size = 0 */
.L__stack_usage = 0
	.loc 1 1253 0
	ldi r22,lo8(keylabel_down)
	ldi r23,hi8(keylabel_down)
	ldi r24,lo8(1)
	call keylabel_set
.LVL252:
	ret
	.cfi_endproc
.LFE76:
	.size	softkeyDown, .-softkeyDown
	.section	.text.softkeyOn,"ax",@progbits
.global	softkeyOn
	.type	softkeyOn, @function
softkeyOn:
.LFB77:
	.loc 1 1256 0
	.cfi_startproc
/* prologue: function */
/* frame size = 0 */
/* stack size = 0 */
.L__stack_usage = 0
	.loc 1 1257 0
	ldi r22,lo8(keylabel_on)
	ldi r23,hi8(keylabel_on)
	ldi r24,lo8(1)
	call keylabel_set
.LVL253:
	ret
	.cfi_endproc
.LFE77:
	.size	softkeyOn, .-softkeyOn
	.section	.text.softkeyOff,"ax",@progbits
.global	softkeyOff
	.type	softkeyOff, @function
softkeyOff:
.LFB78:
	.loc 1 1259 0
	.cfi_startproc
/* prologue: function */
/* frame size = 0 */
/* stack size = 0 */
.L__stack_usage = 0
	.loc 1 1260 0
	ldi r22,lo8(keylabel_off)
	ldi r23,hi8(keylabel_off)
	ldi r24,lo8(1)
	call keylabel_set
.LVL254:
	ret
	.cfi_endproc
.LFE78:
	.size	softkeyOff, .-softkeyOff
	.section	.text.softkeyUp,"ax",@progbits
.global	softkeyUp
	.type	softkeyUp, @function
softkeyUp:
.LFB79:
	.loc 1 1263 0
	.cfi_startproc
/* prologue: function */
/* frame size = 0 */
/* stack size = 0 */
.L__stack_usage = 0
	.loc 1 1264 0
	ldi r22,lo8(keylabel_up)
	ldi r23,hi8(keylabel_up)
	ldi r24,0
	call keylabel_set
.LVL255:
	ret
	.cfi_endproc
.LFE79:
	.size	softkeyUp, .-softkeyUp
	.section	.text.softkeyPlus,"ax",@progbits
.global	softkeyPlus
	.type	softkeyPlus, @function
softkeyPlus:
.LFB80:
	.loc 1 1267 0
	.cfi_startproc
/* prologue: function */
/* frame size = 0 */
/* stack size = 0 */
.L__stack_usage = 0
	.loc 1 1268 0
	lds r24,dataType
	cpi r24,lo8(10)
	breq .L113
	.loc 1 1268 0 is_stmt 0 discriminator 1
	cpi r24,lo8(14)
	brne .L114
.L113:
	.loc 1 1269 0 is_stmt 1
	ldi r22,lo8(keylabel_1)
	ldi r23,hi8(keylabel_1)
	ldi r24,0
	call keylabel_set
.LVL256:
	ret
.L114:
	.loc 1 1271 0
	ldi r22,lo8(keylabel_plus)
	ldi r23,hi8(keylabel_plus)
	ldi r24,0
	call keylabel_set
.LVL257:
	ret
	.cfi_endproc
.LFE80:
	.size	softkeyPlus, .-softkeyPlus
	.section	.text.softkeyMinus,"ax",@progbits
.global	softkeyMinus
	.type	softkeyMinus, @function
softkeyMinus:
.LFB81:
	.loc 1 1275 0
	.cfi_startproc
/* prologue: function */
/* frame size = 0 */
/* stack size = 0 */
.L__stack_usage = 0
	.loc 1 1276 0
	lds r24,dataType
	cpi r24,lo8(10)
	breq .L117
	.loc 1 1276 0 is_stmt 0 discriminator 1
	cpi r24,lo8(14)
	brne .L118
.L117:
	.loc 1 1277 0 is_stmt 1
	ldi r22,lo8(keylabel_0)
	ldi r23,hi8(keylabel_0)
	ldi r24,lo8(1)
	call keylabel_set
.LVL258:
	ret
.L118:
	.loc 1 1279 0
	ldi r22,lo8(keylabel_minus)
	ldi r23,hi8(keylabel_minus)
	ldi r24,lo8(1)
	call keylabel_set
.LVL259:
	ret
	.cfi_endproc
.LFE81:
	.size	softkeyMinus, .-softkeyMinus
	.section	.text.dataToNibbles,"ax",@progbits
.global	dataToNibbles
	.type	dataToNibbles, @function
dataToNibbles:
.LFB82:
	.loc 1 1285 0
	.cfi_startproc
	push r28
.LCFI24:
	.cfi_def_cfa_offset 4
	.cfi_offset 28, -3
	push r29
.LCFI25:
	.cfi_def_cfa_offset 5
	.cfi_offset 29, -4
/* prologue: function */
/* frame size = 0 */
/* stack size = 2 */
.L__stack_usage = 2
	.loc 1 1287 0
	lds r30,dataType
	mov r24,r30
	ldi r25,0
	movw r30,r24
	sbiw r30,2
	cpi r30,13
	cpc r31,__zero_reg__
	brlo .+2
	rjmp .L120
	clr r24
	subi r30,pm_lo8(-(.L123))
	sbci r31,pm_hi8(-(.L123))
	sbci r24,pm_hh8(-(.L123))
	jmp __tablejump2__
	.section	.progmem.gcc_sw_table.dataToNibbles,"a",@progbits
	.p2align	1
.L123:
	.word gs(.L122)
	.word gs(.L124)
	.word gs(.L125)
	.word gs(.L126)
	.word gs(.L127)
	.word gs(.L128)
	.word gs(.L129)
	.word gs(.L130)
	.word gs(.L151)
	.word gs(.L152)
	.word gs(.L133)
	.word gs(.L134)
	.word gs(.L151)
	.section	.text.dataToNibbles
.L122:
.LBB57:
	.loc 1 1289 0
	lds r24,dataEntry
	ldi r30,lo8(nibble)
	ldi r31,hi8(nibble)
	mov r25,r24
	swap r25
	andi r25,lo8(15)
	st Z,r25
	.loc 1 1290 0
	andi r24,lo8(15)
	std Z+1,r24
	.loc 1 1292 0
	rjmp .L120
.L124:
	.loc 1 1295 0
	lds r24,dataEntry
	cpi r24,lo8(16)
	brlo .L135
	.loc 1 1296 0
	ldi r24,lo8(-1)
	sts nibble,r24
	rjmp .L120
.L135:
	.loc 1 1298 0
	subi r24,lo8(-(1))
	sts nibble,r24
	rjmp .L120
.L125:
	.loc 1 1303 0
	lds r24,dataEntry
	tst r24
	brge .L136
	.loc 1 1304 0
	ldi r30,lo8(nibble)
	ldi r31,hi8(nibble)
	st Z,__zero_reg__
	.loc 1 1305 0
	ldi r24,lo8(-1)
	std Z+1,r24
	rjmp .L120
.L136:
	.loc 1 1307 0
	sts nibble+1,__zero_reg__
	.loc 1 1308 0
	rjmp .L137
.L138:
	.loc 1 1309 0
	ldi r30,lo8(nibble)
	ldi r31,hi8(nibble)
	ldd r25,Z+1
	subi r25,lo8(-(1))
	std Z+1,r25
	.loc 1 1310 0
	subi r24,lo8(-(-12))
	sts dataEntry,r24
.L137:
	.loc 1 1308 0
	lds r24,dataEntry
	cpi r24,lo8(12)
	brsh .L138
	.loc 1 1312 0
	sts nibble,r24
	rjmp .L120
.L126:
	.loc 1 1317 0
	lds r24,dataEntry
	ldi r30,lo8(nibble)
	ldi r31,hi8(nibble)
	mov r25,r24
	swap r25
	lsr r25
	andi r25,lo8(7)
	st Z,r25
	.loc 1 1318 0
	andi r24,lo8(31)
	sts dataEntry,r24
	.loc 1 1319 0
	std Z+1,__zero_reg__
	.loc 1 1320 0
	rjmp .L139
.L140:
	.loc 1 1321 0
	ldi r30,lo8(nibble)
	ldi r31,hi8(nibble)
	ldd r25,Z+1
	subi r25,lo8(-(1))
	std Z+1,r25
	.loc 1 1322 0
	subi r24,lo8(-(-10))
	sts dataEntry,r24
.L139:
	.loc 1 1320 0
	lds r24,dataEntry
	cpi r24,lo8(10)
	brsh .L140
	.loc 1 1324 0
	sts nibble+2,r24
	.loc 1 1325 0
	rjmp .L120
.L127:
	.loc 1 1328 0
	ldi r30,lo8(nibble)
	ldi r31,hi8(nibble)
	st Z,__zero_reg__
	.loc 1 1329 0
	std Z+1,__zero_reg__
	.loc 1 1330 0
	rjmp .L141
.L142:
	.loc 1 1331 0
	ldi r30,lo8(nibble)
	ldi r31,hi8(nibble)
	ld r25,Z
	subi r25,lo8(-(1))
	st Z,r25
	.loc 1 1332 0
	subi r24,lo8(-(-100))
	sts dataEntry,r24
.L141:
	.loc 1 1330 0
	lds r24,dataEntry
	cpi r24,lo8(100)
	brsh .L142
	rjmp .L143
.L144:
	.loc 1 1335 0
	ldi r30,lo8(nibble)
	ldi r31,hi8(nibble)
	ldd r25,Z+1
	subi r25,lo8(-(1))
	std Z+1,r25
	.loc 1 1336 0
	subi r24,lo8(-(-10))
	sts dataEntry,r24
.L143:
	.loc 1 1334 0
	lds r24,dataEntry
	cpi r24,lo8(10)
	brsh .L144
	.loc 1 1338 0
	sts nibble+2,r24
	.loc 1 1339 0
	rjmp .L120
.L128:
	.loc 1 1342 0
	lds r24,dataEntry
	cpi r24,lo8(4)
	brlo .L145
	.loc 1 1343 0
	ldi r24,lo8(-1)
	sts nibble,r24
	rjmp .L120
.L145:
	.loc 1 1345 0
	sts nibble,r24
	rjmp .L120
.L129:
	.loc 1 1350 0
	lds r24,dataEntry
	cpi r24,lo8(4)
	brlo .L146
	.loc 1 1351 0
	ldi r24,lo8(3)
	sts nibble,r24
	rjmp .L120
.L146:
	.loc 1 1353 0
	sts nibble,r24
	rjmp .L120
.L130:
	.loc 1 1358 0
	lds r24,dataEntry
	sts nibble,r24
	.loc 1 1359 0
	rjmp .L120
.LVL260:
.L147:
.LBB58:
	.loc 1 1363 0 discriminator 3
	mov r30,r25
	ldi r31,0
	lds r24,dataEntry
	mov r18,r24
	rol r18
	clr r18
	rol r18
	subi r30,lo8(-(nibble))
	sbci r31,hi8(-(nibble))
	st Z,r18
	.loc 1 1364 0 discriminator 3
	lsl r24
	sts dataEntry,r24
	.loc 1 1362 0 discriminator 3
	subi r25,lo8(-(1))
.LVL261:
	rjmp .L131
.LVL262:
.L151:
.LBE58:
.LBE57:
	.loc 1 1287 0
	ldi r25,0
.L131:
.LVL263:
.LBB60:
.LBB59:
	.loc 1 1362 0 discriminator 1
	cpi r25,lo8(8)
	brlo .L147
	rjmp .L120
.LVL264:
.L148:
.LBE59:
	.loc 1 1372 0
	subi r24,lo8(-(-2))
.LVL265:
	ldi r31,0
	movw r26,r28
	ld r25,X+
	subi r30,lo8(-(nibble))
	sbci r31,hi8(-(nibble))
	andi r25,lo8(15)
	st Z,r25
	.loc 1 1373 0
	mov r30,r24
	ldi r31,0
.LVL266:
	ld r25,Y
	subi r30,lo8(-(nibble))
	sbci r31,hi8(-(nibble))
	swap r25
	andi r25,lo8(15)
	st Z,r25
	movw r28,r26
	rjmp .L132
.LVL267:
.L152:
.LBE60:
	.loc 1 1287 0
	ldi r28,lo8(dataEntry32)
	ldi r29,hi8(dataEntry32)
	ldi r24,lo8(8)
.L132:
.LVL268:
.LBB61:
	.loc 1 1371 0
	ldi r30,lo8(-1)
	add r30,r24
.LVL269:
	cpse r24,__zero_reg__
	rjmp .L148
	rjmp .L120
.LVL270:
.L133:
	.loc 1 1377 0
	lds r24,dataEntry
	ldi r30,lo8(nibble)
	ldi r31,hi8(nibble)
	mov r25,r24
	andi r25,lo8(7)
	subi r25,lo8(-(1))
	st Z,r25
	.loc 1 1378 0
	lsr r24
	lsr r24
	lsr r24
	subi r24,lo8(-(1))
	std Z+1,r24
	.loc 1 1379 0
	rjmp .L120
.L134:
	.loc 1 1382 0
	lds r24,dataEntry
	subi r24,lo8(-(1))
	sts dataEntry,r24
	.loc 1 1383 0
	sts nibble,__zero_reg__
	.loc 1 1384 0
	rjmp .L149
.L150:
	.loc 1 1385 0
	ldi r30,lo8(nibble)
	ldi r31,hi8(nibble)
	ld r25,Z
	subi r25,lo8(-(1))
	st Z,r25
	.loc 1 1386 0
	subi r24,lo8(-(-10))
	sts dataEntry,r24
.L149:
	.loc 1 1384 0
	lds r24,dataEntry
	cpi r24,lo8(10)
	brsh .L150
	.loc 1 1388 0
	sts nibble+1,r24
.L120:
/* epilogue start */
.LBE61:
	.loc 1 1391 0
	pop r29
	pop r28
	ret
	.cfi_endproc
.LFE82:
	.size	dataToNibbles, .-dataToNibbles
	.section	.text.nibbleToLCDstring,"ax",@progbits
.global	nibbleToLCDstring
	.type	nibbleToLCDstring, @function
nibbleToLCDstring:
.LFB83:
	.loc 1 1393 0
	.cfi_startproc
	push r16
.LCFI26:
	.cfi_def_cfa_offset 4
	.cfi_offset 16, -3
	push r17
.LCFI27:
	.cfi_def_cfa_offset 5
	.cfi_offset 17, -4
	push r28
.LCFI28:
	.cfi_def_cfa_offset 6
	.cfi_offset 28, -5
	push r29
.LCFI29:
	.cfi_def_cfa_offset 7
	.cfi_offset 29, -6
/* prologue: function */
/* frame size = 0 */
/* stack size = 4 */
.L__stack_usage = 4
	.loc 1 1394 0
	lds r30,dataType
	mov r24,r30
	ldi r25,0
	movw r30,r24
	sbiw r30,2
	cpi r30,13
	cpc r31,__zero_reg__
	brlo .+2
	rjmp .L153
	clr r24
	subi r30,pm_lo8(-(.L156))
	sbci r31,pm_hi8(-(.L156))
	sbci r24,pm_hh8(-(.L156))
	jmp __tablejump2__
	.section	.progmem.gcc_sw_table.nibbleToLCDstring,"a",@progbits
	.p2align	1
.L156:
	.word gs(.L155)
	.word gs(.L157)
	.word gs(.L158)
	.word gs(.L159)
	.word gs(.L160)
	.word gs(.L161)
	.word gs(.L162)
	.word gs(.L163)
	.word gs(.L189)
	.word gs(.L189)
	.word gs(.L165)
	.word gs(.L166)
	.word gs(.L190)
	.section	.text.nibbleToLCDstring
.L155:
	.loc 1 1396 0
	ldi r16,lo8(nibble)
	ldi r17,hi8(nibble)
	movw r30,r16
	ld r24,Z
	call nibbleToChr
.LVL271:
	ldi r28,lo8(lcdData)
	ldi r29,hi8(lcdData)
	st Y,r24
	.loc 1 1397 0
	movw r30,r16
	ldd r24,Z+1
	call nibbleToChr
.LVL272:
	std Y+1,r24
	.loc 1 1398 0
	std Y+2,__zero_reg__
	.loc 1 1399 0
	rjmp .L153
.L157:
	.loc 1 1401 0
	ldi r30,lo8(lcdData)
	ldi r31,hi8(lcdData)
	ldi r24,lo8(67)
	st Z,r24
	.loc 1 1402 0
	ldi r24,lo8(104)
	std Z+1,r24
	.loc 1 1403 0
	lds r24,nibble
	cpi r24,lo8(-1)
	brne .L168
	.loc 1 1404 0
	ldi r24,lo8(32)
	std Z+2,r24
	.loc 1 1405 0
	ldi r24,lo8(45)
	std Z+3,r24
	rjmp .L169
.L168:
	.loc 1 1407 0
	cpi r24,lo8(10)
	brlo .L170
	.loc 1 1408 0
	ldi r28,lo8(lcdData)
	ldi r29,hi8(lcdData)
	ldi r25,lo8(49)
	std Y+2,r25
	.loc 1 1409 0
	subi r24,lo8(-(-10))
	call nibbleToChr
.LVL273:
	std Y+3,r24
	rjmp .L169
.L170:
	.loc 1 1411 0
	ldi r28,lo8(lcdData)
	ldi r29,hi8(lcdData)
	ldi r25,lo8(48)
	std Y+2,r25
	.loc 1 1412 0
	call nibbleToChr
.LVL274:
	std Y+3,r24
.L169:
	.loc 1 1415 0
	sts lcdData+4,__zero_reg__
	.loc 1 1416 0
	rjmp .L153
.L158:
	.loc 1 1418 0
	lds r24,nibble
	cpi r24,lo8(-1)
	breq .L171
	.loc 1 1418 0 is_stmt 0 discriminator 1
	lds r25,nibble+1
	cpi r25,lo8(-1)
	brne .L172
.L171:
	.loc 1 1419 0 is_stmt 1
	ldi r30,lo8(lcdData)
	ldi r31,hi8(lcdData)
	ldi r24,lo8(110)
	st Z,r24
	.loc 1 1420 0
	ldi r25,lo8(111)
	std Z+1,r25
	.loc 1 1421 0
	std Z+2,r24
	.loc 1 1422 0
	ldi r24,lo8(101)
	std Z+3,r24
	.loc 1 1423 0
	std Z+4,__zero_reg__
	rjmp .L153
.L172:
	.loc 1 1425 0
	ldi r25,lo8(95)
	sts lcdData+1,r25
	.loc 1 1426 0
	cpi r24,lo8(11)
	brne .L173
	.loc 1 1427 0
	ldi r24,lo8(72)
	sts lcdData,r24
	rjmp .L174
.L173:
	.loc 1 1428 0
	cpi r24,lo8(5)
	brsh .L175
	.loc 1 1430 0
	mov r25,r24
	lsr r25
	subi r25,lo8(-(67))
	sts lcdData,r25
	.loc 1 1431 0
	sbrs r24,0
	rjmp .L174
	.loc 1 1432 0
	ldi r24,lo8(35)
	sts lcdData+1,r24
	rjmp .L174
.L175:
	.loc 1 1436 0
	mov r18,r24
	ldi r19,0
	subi r18,5
	sbc r19,__zero_reg__
	asr r19
	ror r18
	subi r18,lo8(-(70))
	sts lcdData,r18
	.loc 1 1437 0
	sbrc r24,0
	rjmp .L176
	.loc 1 1438 0
	ldi r24,lo8(35)
	sts lcdData+1,r24
.L176:
	.loc 1 1440 0
	cpi r18,lo8(72)
	brne .L174
	.loc 1 1441 0
	ldi r24,lo8(65)
	sts lcdData,r24
.L174:
	.loc 1 1444 0
	lds r24,nibble+1
	cpse r24,__zero_reg__
	rjmp .L177
	.loc 1 1445 0
	ldi r24,lo8(109)
	sts lcdData+2,r24
	rjmp .L178
.L177:
	.loc 1 1446 0
	cpi r24,lo8(12)
	brsh .L179
	.loc 1 1447 0
	subi r24,lo8(-(-1))
	call nibbleToChr
.LVL275:
	sts lcdData+2,r24
	rjmp .L178
.L179:
	.loc 1 1449 0
	ldi r24,lo8(45)
	sts lcdData+2,r24
.L178:
	.loc 1 1451 0
	sts lcdData+3,__zero_reg__
	rjmp .L153
.L159:
	.loc 1 1455 0
	ldi r28,lo8(lcdData)
	ldi r29,hi8(lcdData)
	ldi r24,lo8(77)
	st Y,r24
	.loc 1 1456 0
	ldi r16,lo8(nibble)
	ldi r17,hi8(nibble)
	movw r30,r16
	ld r24,Z
	call nibbleToChr
.LVL276:
	std Y+1,r24
	.loc 1 1457 0
	ldi r24,lo8(66)
	std Y+2,r24
	.loc 1 1458 0
	movw r30,r16
	ldd r24,Z+1
	call nibbleToChr
.LVL277:
	std Y+3,r24
	.loc 1 1459 0
	movw r30,r16
	ldd r24,Z+2
	call nibbleToChr
.LVL278:
	std Y+4,r24
	.loc 1 1460 0
	std Y+5,__zero_reg__
	.loc 1 1461 0
	rjmp .L153
.L160:
	.loc 1 1463 0
	ldi r16,lo8(nibble)
	ldi r17,hi8(nibble)
	movw r30,r16
	ld r24,Z
	call nibbleToChr
.LVL279:
	ldi r28,lo8(lcdData)
	ldi r29,hi8(lcdData)
	st Y,r24
	.loc 1 1464 0
	movw r30,r16
	ldd r24,Z+1
	call nibbleToChr
.LVL280:
	std Y+1,r24
	.loc 1 1465 0
	movw r30,r16
	ldd r24,Z+2
	call nibbleToChr
.LVL281:
	std Y+2,r24
	.loc 1 1466 0
	std Y+3,__zero_reg__
	.loc 1 1467 0
	rjmp .L153
.L161:
	.loc 1 1493 0
	lds r24,nibble
	cpi r24,lo8(3)
	brsh .L180
	.loc 1 1494 0
	ldi r30,lo8(lcdData)
	ldi r31,hi8(lcdData)
	ldi r25,lo8(51)
	sub r25,r24
	st Z,r25
	.loc 1 1495 0
	std Z+1,__zero_reg__
	rjmp .L153
.L180:
	.loc 1 1496 0
	cpi r24,lo8(3)
	brne .L181
	.loc 1 1497 0
	ldi r30,lo8(lcdData)
	ldi r31,hi8(lcdData)
	ldi r24,lo8(80)
	st Z,r24
	.loc 1 1498 0
	std Z+1,__zero_reg__
	rjmp .L153
.L181:
	.loc 1 1501 0
	ldi r30,lo8(lcdData)
	ldi r31,hi8(lcdData)
	ldi r24,lo8(45)
	st Z,r24
	.loc 1 1502 0
	std Z+1,__zero_reg__
	rjmp .L153
.L162:
	.loc 1 1507 0
	lds r24,nibble
	ldi r30,lo8(lcdData)
	ldi r31,hi8(lcdData)
	subi r24,lo8(-(48))
	st Z,r24
	.loc 1 1508 0
	std Z+1,__zero_reg__
	.loc 1 1509 0
	rjmp .L153
.L163:
	.loc 1 1511 0
	lds r24,nibble
	cpse r24,__zero_reg__
	rjmp .L182
	.loc 1 1512 0
	ldi r30,lo8(lcdData)
	ldi r31,hi8(lcdData)
	ldi r24,lo8(65)
	st Z,r24
	.loc 1 1513 0
	ldi r24,lo8(117)
	std Z+1,r24
	.loc 1 1514 0
	ldi r24,lo8(115)
	std Z+2,r24
	rjmp .L183
.L182:
	.loc 1 1516 0
	ldi r30,lo8(lcdData)
	ldi r31,hi8(lcdData)
	ldi r24,lo8(69)
	st Z,r24
	.loc 1 1517 0
	ldi r24,lo8(105)
	std Z+1,r24
	.loc 1 1518 0
	ldi r24,lo8(110)
	std Z+2,r24
.L183:
	.loc 1 1520 0
	sts lcdData+3,__zero_reg__
	.loc 1 1521 0
	rjmp .L153
.LVL282:
.L184:
.LBB62:
	.loc 1 1525 0 discriminator 3
	mov r28,r17
	ldi r29,0
	movw r30,r28
	subi r30,lo8(-(nibble))
	sbci r31,hi8(-(nibble))
	ld r24,Z
	call nibbleToChr
.LVL283:
	subi r28,lo8(-(lcdData))
	sbci r29,hi8(-(lcdData))
	st Y,r24
	.loc 1 1524 0 discriminator 3
	subi r17,lo8(-(1))
.LVL284:
	rjmp .L164
.LVL285:
.L189:
.LBE62:
	.loc 1 1394 0
	ldi r17,0
.L164:
.LVL286:
.LBB63:
	.loc 1 1524 0 discriminator 1
	cpi r17,lo8(8)
	brlo .L184
	rjmp .L153
.LVL287:
.L186:
.LBE63:
.LBB64:
	.loc 1 1530 0
	mov r24,r18
	ldi r25,0
	movw r30,r24
	subi r30,lo8(-(nibble))
	sbci r31,hi8(-(nibble))
	ld r19,Z
	cpse r19,__zero_reg__
	rjmp .L191
	ldi r19,lo8(111)
	rjmp .L185
.L191:
	ldi r19,lo8(73)
.L185:
	.loc 1 1530 0 is_stmt 0 discriminator 4
	movw r30,r24
	subi r30,lo8(-(lcdData))
	sbci r31,hi8(-(lcdData))
	st Z,r19
	.loc 1 1529 0 is_stmt 1 discriminator 4
	subi r18,lo8(-(1))
.LVL288:
	rjmp .L167
.LVL289:
.L190:
.LBE64:
	.loc 1 1394 0
	ldi r18,0
.L167:
.LVL290:
.LBB65:
	.loc 1 1529 0 discriminator 2
	cpi r18,lo8(8)
	brlo .L186
	rjmp .L153
.LVL291:
.L165:
.LBE65:
	.loc 1 1534 0
	ldi r26,lo8(nibble)
	ldi r27,hi8(nibble)
	ld r24,X
	ldi r30,lo8(lcdData)
	ldi r31,hi8(lcdData)
	subi r24,lo8(-(48))
	st Z,r24
	.loc 1 1535 0
	adiw r26,1
	ld r24,X
	subi r24,lo8(-(64))
	std Z+1,r24
	.loc 1 1536 0
	std Z+2,__zero_reg__
	.loc 1 1537 0
	rjmp .L153
.L166:
	.loc 1 1539 0
	ldi r30,lo8(nibble)
	ldi r31,hi8(nibble)
	ld r25,Z
	ldd r24,Z+1
	mov r18,r25
	or r18,r24
	brne .L187
	.loc 1 1541 0
	ldi r30,lo8(lcdData)
	ldi r31,hi8(lcdData)
	ldi r24,lo8(45)
	st Z,r24
	.loc 1 1542 0
	std Z+1,r24
	rjmp .L188
.L187:
	.loc 1 1544 0
	ldi r30,lo8(lcdData)
	ldi r31,hi8(lcdData)
	subi r25,lo8(-(48))
	st Z,r25
	.loc 1 1545 0
	subi r24,lo8(-(48))
	std Z+1,r24
.L188:
	.loc 1 1547 0
	sts lcdData+2,__zero_reg__
.L153:
/* epilogue start */
	.loc 1 1550 0
	pop r29
	pop r28
	pop r17
	pop r16
	ret
	.cfi_endproc
.LFE83:
	.size	nibbleToLCDstring, .-nibbleToLCDstring
	.section	.text.LCDStringOut,"ax",@progbits
.global	LCDStringOut
	.type	LCDStringOut, @function
LCDStringOut:
.LFB84:
	.loc 1 1552 0
	.cfi_startproc
	push r16
.LCFI30:
	.cfi_def_cfa_offset 4
	.cfi_offset 16, -3
	push r17
.LCFI31:
	.cfi_def_cfa_offset 5
	.cfi_offset 17, -4
	push r28
.LCFI32:
	.cfi_def_cfa_offset 6
	.cfi_offset 28, -5
/* prologue: function */
/* frame size = 0 */
/* stack size = 3 */
.L__stack_usage = 3
	.loc 1 1553 0
	ldi r24,lo8(30)
	call lcd_goto
.LVL292:
.LBB66:
	.loc 1 1556 0
	ldi r28,0
.LBE66:
	.loc 1 1554 0
	ldi r16,lo8(lcdData)
	ldi r17,hi8(lcdData)
.LBB67:
	.loc 1 1556 0
	rjmp .L193
.LVL293:
.L195:
	.loc 1 1557 0
	movw r30,r16
	ld r24,Z
.LVL294:
	tst r24
	breq .L196
	.loc 1 1560 0
	subi r16,-1
	sbci r17,-1
.LVL295:
	rjmp .L194
.L196:
	.loc 1 1558 0
	ldi r24,lo8(32)
.LVL296:
.L194:
	.loc 1 1562 0 discriminator 2
	call lcd_putc
.LVL297:
	.loc 1 1556 0 discriminator 2
	subi r28,lo8(-(1))
.LVL298:
.L193:
	.loc 1 1556 0 is_stmt 0 discriminator 1
	cpi r28,lo8(10)
	brlo .L195
/* epilogue start */
.LBE67:
	.loc 1 1564 0 is_stmt 1
	pop r28
.LVL299:
	pop r17
	pop r16
.LVL300:
	ret
	.cfi_endproc
.LFE84:
	.size	LCDStringOut, .-LCDStringOut
	.section	.text.nibbleCheckOvfl,"ax",@progbits
.global	nibbleCheckOvfl
	.type	nibbleCheckOvfl, @function
nibbleCheckOvfl:
.LFB85:
	.loc 1 1566 0
	.cfi_startproc
.LVL301:
/* prologue: function */
/* frame size = 0 */
/* stack size = 0 */
.L__stack_usage = 0
	.loc 1 1568 0
	cpi r24,lo8(10)
	brge .L199
	.loc 1 1570 0
	tst r24
	brlt .L200
	.loc 1 1573 0
	ret
.L199:
	.loc 1 1569 0
	ldi r24,0
.LVL302:
	ret
.LVL303:
.L200:
	.loc 1 1571 0
	ldi r24,lo8(9)
.LVL304:
	.loc 1 1574 0
	ret
	.cfi_endproc
.LFE85:
	.size	nibbleCheckOvfl, .-nibbleCheckOvfl
	.section	.text.nibbleChange,"ax",@progbits
.global	nibbleChange
	.type	nibbleChange, @function
nibbleChange:
.LFB86:
	.loc 1 1576 0
	.cfi_startproc
.LVL305:
	push r16
.LCFI33:
	.cfi_def_cfa_offset 4
	.cfi_offset 16, -3
	push r17
.LCFI34:
	.cfi_def_cfa_offset 5
	.cfi_offset 17, -4
	push r28
.LCFI35:
	.cfi_def_cfa_offset 6
	.cfi_offset 28, -5
	push r29
.LCFI36:
	.cfi_def_cfa_offset 7
	.cfi_offset 29, -6
/* prologue: function */
/* frame size = 0 */
/* stack size = 4 */
.L__stack_usage = 4
	mov r28,r24
	.loc 1 1579 0
	lds r30,currentMenu
	lds r31,currentMenu+1
	adiw r30,1
	lpm r24,Z
.LVL306:
	mov r18,r24
	andi r18,lo8(16)
.LVL307:
	.loc 1 1580 0
	lds r30,dataType
	mov r24,r30
	ldi r25,0
	movw r30,r24
	sbiw r30,2
	cpi r30,13
	cpc r31,__zero_reg__
	brlo .+2
	rjmp .L201
	clr r24
	subi r30,pm_lo8(-(.L204))
	sbci r31,pm_hi8(-(.L204))
	sbci r24,pm_hh8(-(.L204))
	jmp __tablejump2__
	.section	.progmem.gcc_sw_table.nibbleChange,"a",@progbits
	.p2align	1
.L204:
	.word gs(.L203)
	.word gs(.L205)
	.word gs(.L206)
	.word gs(.L207)
	.word gs(.L208)
	.word gs(.L209)
	.word gs(.L210)
	.word gs(.L211)
	.word gs(.L212)
	.word gs(.L203)
	.word gs(.L213)
	.word gs(.L214)
	.word gs(.L212)
	.section	.text.nibbleChange
.L203:
.LBB68:
	.loc 1 1583 0
	ldi r29,0
	subi r28,lo8(-(nibble))
	sbci r29,hi8(-(nibble))
.LVL308:
	ld r24,Y
	add r22,r24
.LVL309:
	andi r22,lo8(15)
	st Y,r22
	.loc 1 1584 0
	rjmp .L201
.LVL310:
.L205:
	.loc 1 1586 0
	cpse r18,__zero_reg__
	rjmp .L215
	.loc 1 1588 0
	cpi r22,lo8(1)
	brne .L216
	.loc 1 1588 0 is_stmt 0 discriminator 1
	lds r24,nibble
	cpi r24,lo8(16)
	brne .L216
	.loc 1 1589 0 is_stmt 1
	ldi r24,lo8(1)
	sts nibble,r24
	rjmp .L201
.L216:
	.loc 1 1590 0
	cpi r22,lo8(-1)
	brne .L217
	.loc 1 1590 0 is_stmt 0 discriminator 1
	lds r24,nibble
	cpi r24,lo8(1)
	brne .L217
	.loc 1 1591 0 is_stmt 1
	ldi r24,lo8(16)
	sts nibble,r24
	rjmp .L201
.L217:
	.loc 1 1593 0
	ldi r30,lo8(nibble)
	ldi r31,hi8(nibble)
	ld r24,Z
	add r22,r24
.LVL311:
	st Z,r22
	rjmp .L201
.LVL312:
.L215:
	.loc 1 1597 0
	cpi r22,lo8(1)
	brne .L218
	.loc 1 1597 0 is_stmt 0 discriminator 1
	lds r24,nibble
	cpi r24,lo8(16)
	brne .L218
	.loc 1 1598 0 is_stmt 1
	ldi r24,lo8(-1)
	sts nibble,r24
	rjmp .L201
.L218:
	.loc 1 1599 0
	cpi r22,lo8(1)
	brne .L219
	.loc 1 1599 0 is_stmt 0 discriminator 1
	lds r24,nibble
	cpi r24,lo8(-1)
	brne .L219
	.loc 1 1600 0 is_stmt 1
	ldi r24,lo8(1)
	sts nibble,r24
	rjmp .L201
.L219:
	.loc 1 1601 0
	cpi r22,lo8(-1)
	brne .L220
	.loc 1 1601 0 is_stmt 0 discriminator 1
	lds r24,nibble
	cpi r24,lo8(-1)
	brne .L220
	.loc 1 1602 0 is_stmt 1
	ldi r24,lo8(16)
	sts nibble,r24
	rjmp .L201
.L220:
	.loc 1 1603 0
	cpi r22,lo8(-1)
	brne .L221
	.loc 1 1603 0 is_stmt 0 discriminator 1
	lds r24,nibble
	cpi r24,lo8(1)
	brne .L221
	.loc 1 1604 0 is_stmt 1
	ldi r24,lo8(-1)
	sts nibble,r24
	rjmp .L201
.L221:
	.loc 1 1606 0
	ldi r30,lo8(nibble)
	ldi r31,hi8(nibble)
	ld r24,Z
	add r22,r24
.LVL313:
	st Z,r22
	rjmp .L201
.LVL314:
.L206:
	.loc 1 1611 0
	lds r24,nibble+1
	cpi r24,lo8(-1)
	brne .L222
	.loc 1 1613 0
	ldi r28,lo8(1)
.LVL315:
.L222:
	.loc 1 1615 0
	cpse r28,__zero_reg__
	rjmp .L223
.LBB69:
	.loc 1 1617 0
	lds r24,nibble
.LVL316:
	.loc 1 1618 0
	cpi r24,lo8(12)
	brsh .L250
	.loc 1 1621 0
	cpi r24,lo8(11)
	brne .L225
	.loc 1 1621 0 is_stmt 0 discriminator 1
	cpi r22,lo8(1)
	breq .L251
.L225:
	.loc 1 1623 0 is_stmt 1
	cpse r24,__zero_reg__
	rjmp .L226
	.loc 1 1623 0 is_stmt 0 discriminator 1
	cpi r22,lo8(-1)
	breq .L252
.L226:
	.loc 1 1626 0 is_stmt 1
	add r22,r24
.LVL317:
	rjmp .L224
.LVL318:
.L250:
	.loc 1 1620 0
	ldi r22,0
.LVL319:
	rjmp .L224
.LVL320:
.L251:
	.loc 1 1622 0
	ldi r22,0
.LVL321:
	rjmp .L224
.LVL322:
.L252:
	.loc 1 1624 0
	ldi r22,lo8(11)
.LVL323:
.L224:
	.loc 1 1628 0
	sts nibble,r22
.LBE69:
	rjmp .L227
.LVL324:
.L223:
.LBB70:
	.loc 1 1632 0
	cpse r18,__zero_reg__
	rjmp .L228
	.loc 1 1633 0
	cpse r24,__zero_reg__
	rjmp .L229
	.loc 1 1633 0 is_stmt 0 discriminator 1
	cpi r22,lo8(-1)
	breq .L253
.L229:
	.loc 1 1635 0 is_stmt 1
	cpi r24,lo8(10)
	brne .L231
	.loc 1 1635 0 is_stmt 0 discriminator 1
	cpi r22,lo8(1)
	breq .L254
.L231:
	.loc 1 1638 0 is_stmt 1
	add r22,r24
.LVL325:
	rjmp .L230
.LVL326:
.L228:
	.loc 1 1641 0
	cpse r24,__zero_reg__
	rjmp .L232
	.loc 1 1641 0 is_stmt 0 discriminator 1
	cpi r22,lo8(-1)
	breq .L255
.L232:
	.loc 1 1643 0 is_stmt 1
	cpi r24,lo8(10)
	brne .L233
	.loc 1 1643 0 is_stmt 0 discriminator 1
	cpi r22,lo8(1)
	breq .L256
.L233:
	.loc 1 1645 0 is_stmt 1
	cpi r24,lo8(-1)
	brne .L234
	.loc 1 1645 0 is_stmt 0 discriminator 1
	cpi r22,lo8(1)
	breq .L257
.L234:
	.loc 1 1647 0 is_stmt 1
	cpi r24,lo8(-1)
	brne .L235
	.loc 1 1647 0 is_stmt 0 discriminator 1
	cpi r22,lo8(-1)
	breq .L258
.L235:
	.loc 1 1650 0 is_stmt 1
	add r22,r24
.LVL327:
	rjmp .L230
.LVL328:
.L253:
	.loc 1 1634 0
	ldi r22,lo8(10)
.LVL329:
	rjmp .L230
.LVL330:
.L254:
	.loc 1 1636 0
	ldi r22,0
.LVL331:
	rjmp .L230
.LVL332:
.L255:
	.loc 1 1642 0
	ldi r22,lo8(-1)
.LVL333:
	rjmp .L230
.LVL334:
.L256:
	.loc 1 1644 0
	ldi r22,lo8(-1)
.LVL335:
	rjmp .L230
.LVL336:
.L257:
	.loc 1 1646 0
	ldi r22,0
.LVL337:
	rjmp .L230
.LVL338:
.L258:
	.loc 1 1648 0
	ldi r22,lo8(10)
.LVL339:
.L230:
	.loc 1 1653 0
	sts nibble+1,r22
.LVL340:
.L227:
.LBE70:
	.loc 1 1655 0
	lds r25,nibble
	cpi r25,lo8(-1)
	brne .+2
	rjmp .L201
	.loc 1 1655 0 is_stmt 0 discriminator 1
	lds r24,nibble+1
	cpi r24,lo8(-1)
	brne .+2
	rjmp .L201
.LBB71:
	.loc 1 1657 0 is_stmt 1
	mov r18,r24
.LVL341:
	lsl r18
	add r24,r18
	mov r18,r24
	lsl r18
	lsl r18
	add r25,r18
.LVL342:
	.loc 1 1658 0
	brmi .+2
	rjmp .L201
	.loc 1 1659 0
	ldi r30,lo8(nibble)
	ldi r31,hi8(nibble)
	ldi r24,lo8(7)
	st Z,r24
	.loc 1 1660 0
	ldi r24,lo8(10)
	std Z+1,r24
	rjmp .L201
.LVL343:
.L207:
.LBE71:
	.loc 1 1665 0
	cpse r28,__zero_reg__
	rjmp .L236
	.loc 1 1667 0
	ldi r30,lo8(nibble)
	ldi r31,hi8(nibble)
	ld r24,Z
	add r22,r24
.LVL344:
	andi r22,lo8(7)
	st Z,r22
	rjmp .L201
.LVL345:
.L236:
.LBB72:
	.loc 1 1669 0
	ldi r29,0
	ldi r16,lo8(nibble)
	ldi r17,hi8(nibble)
	subi r28,lo8(-(nibble))
	sbci r29,hi8(-(nibble))
.LVL346:
	ld r24,Y
	add r24,r22
	call nibbleCheckOvfl
.LVL347:
	st Y,r24
	.loc 1 1670 0
	movw r30,r16
	ldd r24,Z+1
	ldd r25,Z+2
	lsl r24
	mov r18,r24
	lsl r18
	lsl r18
	add r24,r18
	add r24,r25
.LVL348:
	.loc 1 1671 0
	cpi r24,lo8(32)
	brlt .L237
	.loc 1 1672 0
	ldi r24,lo8(3)
.LVL349:
	std Z+1,r24
.LVL350:
	.loc 1 1673 0
	ldi r24,lo8(1)
	std Z+2,r24
	rjmp .L201
.LVL351:
.L237:
	.loc 1 1674 0
	tst r24
	brlt .+2
	rjmp .L201
	.loc 1 1675 0
	ldi r30,lo8(nibble)
	ldi r31,hi8(nibble)
	std Z+1,__zero_reg__
	.loc 1 1676 0
	std Z+2,__zero_reg__
	rjmp .L201
.LVL352:
.L208:
.LBE72:
	.loc 1 1681 0
	ldi r29,0
	ldi r16,lo8(nibble)
	ldi r17,hi8(nibble)
	subi r28,lo8(-(nibble))
	sbci r29,hi8(-(nibble))
.LVL353:
	ld r24,Y
	add r24,r22
	call nibbleCheckOvfl
.LVL354:
	st Y,r24
	.loc 1 1682 0
	movw r30,r16
	ld r18,Z
	ldd r24,Z+1
	ldi r25,0
	movw r20,r24
	lsl r20
	rol r21
	lsl r24
	rol r25
	lsl r24
	rol r25
	lsl r24
	rol r25
	add r24,r20
	adc r25,r21
	ldi r31,lo8(100)
	mul r18,r31
	add r24,r0
	adc r25,r1
	clr __zero_reg__
	movw r30,r16
	ldd r18,Z+2
	add r24,r18
	adc r25,__zero_reg__
.LVL355:
	.loc 1 1683 0
	cpi r24,-1
	cpc r25,__zero_reg__
	breq .+2
	brge .+2
	rjmp .L201
	.loc 1 1684 0
	ldi r24,lo8(2)
.LVL356:
	st Z,r24
	.loc 1 1685 0
	ldi r24,lo8(5)
	std Z+1,r24
	.loc 1 1686 0
	std Z+2,r24
	rjmp .L201
.LVL357:
.L209:
	.loc 1 1690 0
	tst r18
	breq .L238
	.loc 1 1691 0
	ldi r29,0
	movw r30,r28
	subi r30,lo8(-(nibble))
	sbci r31,hi8(-(nibble))
	ld r24,Z
	add r22,r24
.LVL358:
	st Z,r22
	.loc 1 1693 0
	cpi r22,lo8(4)
	brne .L239
	.loc 1 1695 0
	ldi r24,lo8(-1)
	st Z,r24
	rjmp .L201
.L239:
	.loc 1 1696 0
	cpi r22,lo8(-2)
	breq .+2
	rjmp .L201
	.loc 1 1697 0
	subi r28,lo8(-(nibble))
	sbci r29,hi8(-(nibble))
.LVL359:
	ldi r24,lo8(3)
	st Y,r24
	rjmp .L201
.LVL360:
.L238:
	.loc 1 1700 0
	ldi r29,0
	movw r30,r28
	subi r30,lo8(-(nibble))
	sbci r31,hi8(-(nibble))
	ld r24,Z
	cpse r24,__zero_reg__
	rjmp .L240
	.loc 1 1700 0 is_stmt 0 discriminator 1
	cpi r22,lo8(-1)
	brne .L240
	.loc 1 1701 0 is_stmt 1
	ldi r24,lo8(3)
	st Z,r24
	rjmp .L201
.L240:
	.loc 1 1702 0
	cpi r24,lo8(3)
	brne .L241
	.loc 1 1702 0 is_stmt 0 discriminator 1
	cpi r22,lo8(1)
	brne .L241
	.loc 1 1703 0 is_stmt 1
	subi r28,lo8(-(nibble))
	sbci r29,hi8(-(nibble))
.LVL361:
	st Y,__zero_reg__
	rjmp .L201
.LVL362:
.L241:
	.loc 1 1705 0
	subi r28,lo8(-(nibble))
	sbci r29,hi8(-(nibble))
.LVL363:
	add r22,r24
.LVL364:
	st Y,r22
	rjmp .L201
.LVL365:
.L210:
	.loc 1 1710 0
	ldi r29,0
	subi r28,lo8(-(nibble))
	sbci r29,hi8(-(nibble))
.LVL366:
	ld r24,Y
	add r22,r24
.LVL367:
	andi r22,lo8(3)
	st Y,r22
	.loc 1 1711 0
	rjmp .L201
.LVL368:
.L211:
	.loc 1 1713 0
	ldi r30,lo8(nibble)
	ldi r31,hi8(nibble)
	ld r24,Z
	com r24
	st Z,r24
	.loc 1 1714 0
	rjmp .L201
.L212:
	.loc 1 1717 0
	ldi r29,0
	ldi r24,lo8(1)
	sbrc r22,1
	ldi r24,0
.L242:
	subi r28,lo8(-(nibble))
	sbci r29,hi8(-(nibble))
.LVL369:
	st Y,r24
	.loc 1 1718 0
	rjmp .L201
.LVL370:
.L213:
	.loc 1 1720 0
	cpi r22,lo8(1)
	brne .L243
	.loc 1 1721 0
	ldi r29,0
	subi r28,lo8(-(nibble))
	sbci r29,hi8(-(nibble))
.LVL371:
	ld r24,Y
	andi r24,lo8(7)
	subi r24,lo8(-(1))
	st Y,r24
	rjmp .L201
.LVL372:
.L243:
	.loc 1 1723 0
	mov r30,r28
	ldi r31,0
	subi r30,lo8(-(nibble))
	sbci r31,hi8(-(nibble))
	ld r24,Z
	subi r24,lo8(-(-2))
	andi r24,lo8(7)
	subi r24,lo8(-(1))
	st Z,r24
	rjmp .L201
.L214:
	.loc 1 1728 0
	ldi r30,lo8(nibble)
	ldi r31,hi8(nibble)
	ld r25,Z
	ldd r24,Z+1
	lsl r25
	mov r18,r25
.LVL373:
	lsl r18
	lsl r18
	add r25,r18
	add r24,r25
.LVL374:
	.loc 1 1729 0
	cpse r28,__zero_reg__
	rjmp .L244
	.loc 1 1731 0
	lsl r22
.LVL375:
	mov r25,r22
	lsl r25
	lsl r25
	add r22,r25
	add r22,r24
.LVL376:
	rjmp .L245
.LVL377:
.L244:
	.loc 1 1734 0
	add r22,r24
.LVL378:
.L245:
	.loc 1 1736 0
	tst r22
	brlt .L259
	.loc 1 1738 0
	cpi r22,lo8(65)
	brge .L260
	rjmp .L246
.L259:
	.loc 1 1737 0
	ldi r22,0
.LVL379:
	rjmp .L246
.LVL380:
.L260:
	.loc 1 1739 0
	ldi r22,0
.LVL381:
.L246:
	.loc 1 1741 0
	sts nibble,__zero_reg__
.LVL382:
	.loc 1 1742 0
	rjmp .L247
.L248:
	.loc 1 1743 0
	ldi r30,lo8(nibble)
	ldi r31,hi8(nibble)
	ld r24,Z
	subi r24,lo8(-(1))
	st Z,r24
	.loc 1 1744 0
	subi r22,lo8(-(-10))
.LVL383:
.L247:
	.loc 1 1742 0
	cpi r22,lo8(10)
	brge .L248
	.loc 1 1746 0
	sts nibble+1,r22
.LVL384:
.L201:
/* epilogue start */
.LBE68:
	.loc 1 1750 0
	pop r29
	pop r28
	pop r17
	pop r16
	ret
	.cfi_endproc
.LFE86:
	.size	nibbleChange, .-nibbleChange
	.section	.text.nibbleToData,"ax",@progbits
.global	nibbleToData
	.type	nibbleToData, @function
nibbleToData:
.LFB87:
	.loc 1 1752 0
	.cfi_startproc
/* prologue: function */
/* frame size = 0 */
/* stack size = 0 */
.L__stack_usage = 0
	.loc 1 1756 0
	lds r30,dataType
	mov r24,r30
	ldi r25,0
	movw r30,r24
	sbiw r30,2
	cpi r30,13
	cpc r31,__zero_reg__
	brlo .+2
	rjmp .L261
	clr r24
	subi r30,pm_lo8(-(.L264))
	sbci r31,pm_hi8(-(.L264))
	sbci r24,pm_hh8(-(.L264))
	jmp __tablejump2__
	.section	.progmem.gcc_sw_table.nibbleToData,"a",@progbits
	.p2align	1
.L264:
	.word gs(.L263)
	.word gs(.L265)
	.word gs(.L266)
	.word gs(.L267)
	.word gs(.L268)
	.word gs(.L269)
	.word gs(.L270)
	.word gs(.L271)
	.word gs(.L272)
	.word gs(.L273)
	.word gs(.L274)
	.word gs(.L275)
	.word gs(.L272)
	.section	.text.nibbleToData
.L263:
.LBB73:
	.loc 1 1758 0
	ldi r30,lo8(nibble)
	ldi r31,hi8(nibble)
	ld r24,Z
	ldi r18,lo8(16)
	mul r24,r18
	movw r24,r0
	clr __zero_reg__
	ldd r25,Z+1
	andi r25,lo8(15)
	or r24,r25
	sts dataEntry,r24
	.loc 1 1759 0
	ret
.L265:
	.loc 1 1761 0
	lds r24,nibble
	cpi r24,lo8(-1)
	brne .L276
	.loc 1 1762 0
	sts dataEntry,r24
	ret
.L276:
	.loc 1 1764 0
	subi r24,lo8(-(-1))
	sts dataEntry,r24
	ret
.L266:
	.loc 1 1768 0
	lds r25,nibble
	cpi r25,lo8(-1)
	breq .L277
	.loc 1 1768 0 is_stmt 0 discriminator 1
	lds r24,nibble+1
	cpi r24,lo8(-1)
	brne .L278
.L277:
	.loc 1 1769 0 is_stmt 1
	ldi r24,lo8(-1)
	sts dataEntry,r24
	ret
.L278:
	.loc 1 1771 0
	mov r18,r24
	lsl r18
	add r24,r18
	lsl r24
	lsl r24
	add r24,r25
	sts dataEntry,r24
	ret
.L267:
	.loc 1 1775 0
	ldi r30,lo8(nibble)
	ldi r31,hi8(nibble)
	ld r24,Z
	ldi r19,lo8(32)
	mul r24,r19
	movw r24,r0
	clr __zero_reg__
	.loc 1 1776 0
	ldd r18,Z+1
	ldd r19,Z+2
	lsl r18
	mov r20,r18
	lsl r20
	lsl r20
	add r18,r20
	add r18,r19
.LVL385:
	.loc 1 1777 0
	cpi r18,lo8(32)
	brlo .L279
	.loc 1 1778 0
	ori r24,lo8(31)
	sts dataEntry,r24
	ret
.L279:
	.loc 1 1780 0
	or r24,r18
	sts dataEntry,r24
	ret
.LVL386:
.L268:
	.loc 1 1784 0
	ldi r30,lo8(nibble)
	ldi r31,hi8(nibble)
	ld r18,Z
	ldd r24,Z+1
	ldi r25,0
	movw r20,r24
	lsl r20
	rol r21
	lsl r24
	rol r25
	lsl r24
	rol r25
	lsl r24
	rol r25
	add r24,r20
	adc r25,r21
	ldi r19,lo8(100)
	mul r18,r19
	add r24,r0
	adc r25,r1
	clr __zero_reg__
	ldd r18,Z+2
	add r24,r18
	adc r25,__zero_reg__
.LVL387:
	.loc 1 1785 0
	cpi r24,-1
	cpc r25,__zero_reg__
	breq .L280
	brlo .L280
	.loc 1 1786 0
	ldi r24,lo8(-1)
.LVL388:
	sts dataEntry,r24
	ret
.LVL389:
.L280:
	.loc 1 1788 0
	sts dataEntry,r24
	ret
.LVL390:
.L269:
	.loc 1 1792 0
	lds r24,nibble
	sts dataEntry,r24
	.loc 1 1793 0
	cpi r24,lo8(4)
	brsh .+2
	rjmp .L261
	.loc 1 1794 0
	ldi r24,lo8(-1)
	sts dataEntry,r24
	ret
.L270:
	.loc 1 1798 0
	lds r24,nibble
	andi r24,lo8(3)
	sts dataEntry,r24
	.loc 1 1799 0
	ret
.L271:
	.loc 1 1801 0
	lds r24,nibble
	sts dataEntry,r24
	.loc 1 1802 0
	ret
.L272:
	.loc 1 1805 0
	sts dataEntry,__zero_reg__
.LVL391:
.LBB74:
	.loc 1 1806 0
	ldi r24,0
	rjmp .L281
.LVL392:
.L282:
	.loc 1 1807 0 discriminator 3
	lds r25,dataEntry
	lsl r25
	.loc 1 1808 0 discriminator 3
	mov r30,r24
	ldi r31,0
	subi r30,lo8(-(nibble))
	sbci r31,hi8(-(nibble))
	ld r18,Z
	add r25,r18
	sts dataEntry,r25
	.loc 1 1806 0 discriminator 3
	subi r24,lo8(-(1))
.LVL393:
.L281:
	.loc 1 1806 0 is_stmt 0 discriminator 1
	cpi r24,lo8(8)
	brlo .L282
	ret
.LVL394:
.L273:
.LBE74:
	.loc 1 1812 0 is_stmt 1
	sts dataEntry32,__zero_reg__
	sts dataEntry32+1,__zero_reg__
	sts dataEntry32+2,__zero_reg__
	sts dataEntry32+3,__zero_reg__
.LVL395:
	.loc 1 1814 0
	ldi r26,lo8(dataEntry32)
	ldi r27,hi8(dataEntry32)
	.loc 1 1813 0
	ldi r24,lo8(8)
	.loc 1 1815 0
	rjmp .L283
.LVL396:
.L284:
.LBB75:
	.loc 1 1817 0
	subi r24,lo8(-(-2))
.LVL397:
	ldi r31,0
	subi r30,lo8(-(nibble))
	sbci r31,hi8(-(nibble))
	ld r25,Z
.LVL398:
	.loc 1 1818 0
	mov r30,r24
	ldi r31,0
	subi r30,lo8(-(nibble))
	sbci r31,hi8(-(nibble))
	ld r18,Z
	ldi r19,lo8(16)
	mul r18,r19
	add r25,r0
	clr __zero_reg__
.LVL399:
	.loc 1 1819 0
	st X,r25
	adiw r26,1
.LVL400:
.L283:
.LBE75:
	.loc 1 1815 0
	ldi r30,lo8(-1)
	add r30,r24
.LVL401:
	cpse r24,__zero_reg__
	rjmp .L284
	ret
.LVL402:
.L274:
	.loc 1 1823 0
	ldi r30,lo8(nibble)
	ldi r31,hi8(nibble)
	ld r18,Z
	ldd r25,Z+1
	mov r24,r25
	ldi r25,0
	sbiw r24,1
	lsl r24
	rol r25
	lsl r24
	rol r25
	lsl r24
	rol r25
	ldi r25,lo8(-1)
	add r25,r18
	or r24,r25
	sts dataEntry,r24
	.loc 1 1824 0
	ret
.L275:
	.loc 1 1826 0
	ldi r30,lo8(nibble)
	ldi r31,hi8(nibble)
	ld r24,Z
	ldd r25,Z+1
	lsl r24
	mov r18,r24
	lsl r18
	lsl r18
	add r24,r18
	add r24,r25
	subi r24,lo8(-(-1))
	sts dataEntry,r24
.L261:
	ret
.LBE73:
	.cfi_endproc
.LFE87:
	.size	nibbleToData, .-nibbleToData
	.section	.text.menuTextOutVar,"ax",@progbits
.global	menuTextOutVar
	.type	menuTextOutVar, @function
menuTextOutVar:
.LFB88:
	.loc 1 1831 0
	.cfi_startproc
.LVL403:
	push r16
.LCFI37:
	.cfi_def_cfa_offset 4
	.cfi_offset 16, -3
	push r17
.LCFI38:
	.cfi_def_cfa_offset 5
	.cfi_offset 17, -4
	push r28
.LCFI39:
	.cfi_def_cfa_offset 6
	.cfi_offset 28, -5
	push r29
.LCFI40:
	.cfi_def_cfa_offset 7
	.cfi_offset 29, -6
/* prologue: function */
/* frame size = 0 */
/* stack size = 4 */
.L__stack_usage = 4
	movw r16,r24
	mov r29,r22
.LVL404:
.LBB76:
	.loc 1 1833 0
	ldi r28,0
	rjmp .L286
.LVL405:
.L288:
.LBB77:
	.loc 1 1834 0
	movw r30,r16
	ld r24,Z
.LVL406:
	.loc 1 1835 0
	tst r24
	breq .L289
	.loc 1 1839 0
	subi r16,-1
	sbci r17,-1
.LVL407:
	rjmp .L287
.L289:
	.loc 1 1836 0
	mov r24,r29
.LVL408:
	.loc 1 1837 0
	ldi r29,lo8(32)
.LVL409:
.L287:
	.loc 1 1841 0 discriminator 2
	call lcd_putc
.LVL410:
.LBE77:
	.loc 1 1833 0 discriminator 2
	subi r28,lo8(-(1))
.LVL411:
.L286:
	.loc 1 1833 0 is_stmt 0 discriminator 1
	cpi r28,lo8(10)
	brlo .L288
/* epilogue start */
.LBE76:
	.loc 1 1843 0 is_stmt 1
	pop r29
.LVL412:
	pop r28
.LVL413:
	pop r17
	pop r16
.LVL414:
	ret
	.cfi_endproc
.LFE88:
	.size	menuTextOutVar, .-menuTextOutVar
	.section	.text.menuTextOut,"ax",@progbits
.global	menuTextOut
	.type	menuTextOut, @function
menuTextOut:
.LFB89:
	.loc 1 1846 0
	.cfi_startproc
.LVL415:
	push r16
.LCFI41:
	.cfi_def_cfa_offset 4
	.cfi_offset 16, -3
	push r17
.LCFI42:
	.cfi_def_cfa_offset 5
	.cfi_offset 17, -4
	push r28
.LCFI43:
	.cfi_def_cfa_offset 6
	.cfi_offset 28, -5
	push r29
.LCFI44:
	.cfi_def_cfa_offset 7
	.cfi_offset 29, -6
/* prologue: function */
/* frame size = 0 */
/* stack size = 4 */
.L__stack_usage = 4
	movw r16,r24
	mov r29,r22
.LVL416:
.LBB78:
	.loc 1 1848 0
	ldi r28,0
	rjmp .L291
.LVL417:
.L293:
.LBB79:
	.loc 1 1849 0
	movw r30,r16
	lpm r24,Z
.LVL418:
	.loc 1 1850 0
	tst r24
	breq .L294
	.loc 1 1854 0
	subi r16,-1
	sbci r17,-1
.LVL419:
	rjmp .L292
.L294:
	.loc 1 1851 0
	mov r24,r29
.LVL420:
	.loc 1 1852 0
	ldi r29,lo8(32)
.LVL421:
.L292:
	.loc 1 1856 0 discriminator 2
	call lcd_putc
.LVL422:
.LBE79:
	.loc 1 1848 0 discriminator 2
	subi r28,lo8(-(1))
.LVL423:
.L291:
	.loc 1 1848 0 is_stmt 0 discriminator 1
	cpi r28,lo8(10)
	brlo .L293
/* epilogue start */
.LBE78:
	.loc 1 1858 0 is_stmt 1
	pop r29
.LVL424:
	pop r28
.LVL425:
	pop r17
	pop r16
.LVL426:
	ret
	.cfi_endproc
.LFE89:
	.size	menuTextOut, .-menuTextOut
	.section	.text.menuParentMenuToLCD,"ax",@progbits
.global	menuParentMenuToLCD
	.type	menuParentMenuToLCD, @function
menuParentMenuToLCD:
.LFB90:
	.loc 1 1860 0
	.cfi_startproc
/* prologue: function */
/* frame size = 0 */
/* stack size = 0 */
.L__stack_usage = 0
	.loc 1 1861 0
	ldi r24,lo8(64)
	call lcd_goto
.LVL427:
	.loc 1 1862 0
	lds r30,menuStackIndex
	cpse r30,__zero_reg__
	rjmp .L296
	.loc 1 1864 0
	ldi r22,lo8(58)
	lds r24,pMenuTopTitle
	lds r25,pMenuTopTitle+1
	call menuTextOut
.LVL428:
	ret
.L296:
.LBB80:
	.loc 1 1867 0
	ldi r31,0
	sbiw r30,1
	lsl r30
	rol r31
	subi r30,lo8(-(menuStack))
	sbci r31,hi8(-(menuStack))
	ld r24,Z
	ldd r25,Z+1
.LVL429:
	.loc 1 1868 0
	ldi r22,lo8(58)
	adiw r24,2
.LVL430:
	call menuTextOut
.LVL431:
	ret
.LBE80:
	.cfi_endproc
.LFE90:
	.size	menuParentMenuToLCD, .-menuParentMenuToLCD
	.section	.text.menuDisplayValue,"ax",@progbits
.global	menuDisplayValue
	.type	menuDisplayValue, @function
menuDisplayValue:
.LFB92:
	.loc 1 1900 0
	.cfi_startproc
/* prologue: function */
/* frame size = 0 */
/* stack size = 0 */
.L__stack_usage = 0
	.loc 1 1902 0
	lds r30,currentMenu
	lds r31,currentMenu+1
	lpm r24,Z
	andi r24,lo8(63)
	ldi r25,0
	sbiw r24,2
	brlt .L298
	.loc 1 1903 0
	call dataToNibbles
.LVL432:
	.loc 1 1904 0
	call nibbleToLCDstring
.LVL433:
	.loc 1 1905 0
	call LCDStringOut
.LVL434:
.L298:
	ret
	.cfi_endproc
.LFE92:
	.size	menuDisplayValue, .-menuDisplayValue
	.section	.text.menuCursorSetDataNibble,"ax",@progbits
.global	menuCursorSetDataNibble
	.type	menuCursorSetDataNibble, @function
menuCursorSetDataNibble:
.LFB93:
	.loc 1 1909 0
	.cfi_startproc
/* prologue: function */
/* frame size = 0 */
/* stack size = 0 */
.L__stack_usage = 0
	.loc 1 1911 0
	lds r30,pNibbleInfo
	lds r31,pNibbleInfo+1
	lds r24,nibbleIndex
	add r30,r24
	adc r31,__zero_reg__
	adiw r30,1
	lpm r24,Z
	subi r24,lo8(-(30))
	call lcd_goto
.LVL435:
	.loc 1 1912 0
	lds r18,nibbleIndex
	ldi r19,0
	lds r30,pNibbleInfo
	lds r31,pNibbleInfo+1
	lpm r24,Z
	ldi r25,0
	sbiw r24,1
	cp r18,r24
	cpc r19,r25
	brge .L301
	.loc 1 1913 0
	call softkeyRight
.LVL436:
	rjmp .L302
.L301:
	.loc 1 1915 0
	ldi r24,lo8(3)
	call keylabel_clr
.LVL437:
.L302:
	.loc 1 1917 0
	lds r24,nibbleIndex
	tst r24
	breq .L303
	.loc 1 1918 0
	call softkeyLeft
.LVL438:
	rjmp .L304
.L303:
	.loc 1 1920 0
	ldi r24,lo8(2)
	call keylabel_clr
.LVL439:
.L304:
	.loc 1 1922 0
	call softkeyPlus
.LVL440:
	.loc 1 1923 0
	call softkeyMinus
.LVL441:
	.loc 1 1924 0
	call keylabel_toLCD
.LVL442:
	ret
	.cfi_endproc
.LFE93:
	.size	menuCursorSetDataNibble, .-menuCursorSetDataNibble
	.section	.text.menuCursorSetExtra,"ax",@progbits
.global	menuCursorSetExtra
	.type	menuCursorSetExtra, @function
menuCursorSetExtra:
.LFB95:
	.loc 1 1934 0
	.cfi_startproc
/* prologue: function */
/* frame size = 0 */
/* stack size = 0 */
.L__stack_usage = 0
	.loc 1 1936 0
	ldi r24,lo8(20)
	call lcd_goto
.LVL443:
	ret
	.cfi_endproc
.LFE95:
	.size	menuCursorSetExtra, .-menuCursorSetExtra
	.section	.text.menuOnEnterStatusMidiIn,"ax",@progbits
.global	menuOnEnterStatusMidiIn
	.type	menuOnEnterStatusMidiIn, @function
menuOnEnterStatusMidiIn:
.LFB58:
	.loc 1 942 0
	.cfi_startproc
.LVL444:
	push r16
.LCFI45:
	.cfi_def_cfa_offset 4
	.cfi_offset 16, -3
	push r17
.LCFI46:
	.cfi_def_cfa_offset 5
	.cfi_offset 17, -4
	push r28
.LCFI47:
	.cfi_def_cfa_offset 6
	.cfi_offset 28, -5
/* prologue: function */
/* frame size = 0 */
/* stack size = 3 */
.L__stack_usage = 3
	.loc 1 946 0
	call menuCursorSetExtra
.LVL445:
	.loc 1 947 0
	ldi r24,lo8(MenuMIDIInText)
	ldi r25,hi8(MenuMIDIInText)
	call lcd_puts_P
.LVL446:
	.loc 1 948 0
	lds r24,midiRxBytesCount
	lds r25,midiRxBytesCount+1
	call lcd_wordout
.LVL447:
	.loc 1 949 0
	ldi r24,lo8(45)
	call lcd_putc
.LVL448:
	.loc 1 951 0
	lds r24,midiRxBytesCount
	lds r25,midiRxBytesCount+1
	sbiw r24,4
	brsh .L312
	.loc 1 952 0
	lds r24,midiRxBytesCount
	lds r25,midiRxBytesCount+1
	mov r28,r24
.LVL449:
	rjmp .L307
.L312:
	.loc 1 954 0
	ldi r28,lo8(4)
.L307:
.LVL450:
	.loc 1 956 0
	lds r16,midiRxInIndex
	ldi r17,0
.LVL451:
	.loc 1 957 0
	subi r16,lo8(-(midiRxBuffer-1))
	sbci r17,hi8(-(midiRxBuffer-1))
.LVL452:
	.loc 1 958 0
	rjmp .L308
.L311:
	.loc 1 959 0
	ldi r24,hi8(midiRxBuffer)
	cpi r16,lo8(midiRxBuffer)
	cpc r17,r24
	brlo .L313
	movw r30,r16
	rjmp .L309
.L313:
	.loc 1 960 0
	ldi r30,lo8(midiRxBuffer+31)
	ldi r31,hi8(midiRxBuffer+31)
.L309:
.LVL453:
	.loc 1 962 0
	movw r16,r30
	subi r16,1
	sbc r17,__zero_reg__
.LVL454:
	ld r24,Z
	call lcd_hexout
.LVL455:
	.loc 1 963 0
	subi r28,lo8(-(-1))
.LVL456:
	breq .L308
	.loc 1 964 0
	ldi r24,lo8(32)
	call lcd_putc
.LVL457:
.L308:
	.loc 1 958 0
	cpse r28,__zero_reg__
	rjmp .L311
	.loc 1 968 0
	ldi r24,0
/* epilogue start */
	pop r28
.LVL458:
	pop r17
	pop r16
.LVL459:
	ret
	.cfi_endproc
.LFE58:
	.size	menuOnEnterStatusMidiIn, .-menuOnEnterStatusMidiIn
	.section	.text.menuOnEnterStatusMidiOut,"ax",@progbits
.global	menuOnEnterStatusMidiOut
	.type	menuOnEnterStatusMidiOut, @function
menuOnEnterStatusMidiOut:
.LFB59:
	.loc 1 969 0
	.cfi_startproc
.LVL460:
	push r16
.LCFI48:
	.cfi_def_cfa_offset 4
	.cfi_offset 16, -3
	push r17
.LCFI49:
	.cfi_def_cfa_offset 5
	.cfi_offset 17, -4
	push r28
.LCFI50:
	.cfi_def_cfa_offset 6
	.cfi_offset 28, -5
/* prologue: function */
/* frame size = 0 */
/* stack size = 3 */
.L__stack_usage = 3
	.loc 1 973 0
	call menuCursorSetExtra
.LVL461:
	.loc 1 974 0
	ldi r24,lo8(MenuMIDIOutText)
	ldi r25,hi8(MenuMIDIOutText)
	call lcd_puts_P
.LVL462:
	.loc 1 975 0
	lds r24,midiTxBytesCount
	lds r25,midiTxBytesCount+1
	call lcd_wordout
.LVL463:
	.loc 1 976 0
	ldi r24,lo8(45)
	call lcd_putc
.LVL464:
	.loc 1 978 0
	lds r24,midiTxBytesCount
	lds r25,midiTxBytesCount+1
	sbiw r24,4
	brsh .L320
	.loc 1 979 0
	lds r24,midiTxBytesCount
	lds r25,midiTxBytesCount+1
	mov r28,r24
.LVL465:
	rjmp .L315
.L320:
	.loc 1 981 0
	ldi r28,lo8(4)
.L315:
.LVL466:
	.loc 1 983 0
	lds r16,midiTxInIndex
	ldi r17,0
.LVL467:
	.loc 1 984 0
	subi r16,lo8(-(midiTxBuffer-1))
	sbci r17,hi8(-(midiTxBuffer-1))
.LVL468:
	.loc 1 985 0
	rjmp .L316
.L319:
	.loc 1 986 0
	ldi r24,hi8(midiTxBuffer)
	cpi r16,lo8(midiTxBuffer)
	cpc r17,r24
	brlo .L321
	movw r30,r16
	rjmp .L317
.L321:
	.loc 1 987 0
	ldi r30,lo8(midiTxBuffer+31)
	ldi r31,hi8(midiTxBuffer+31)
.L317:
.LVL469:
	.loc 1 989 0
	movw r16,r30
	subi r16,1
	sbc r17,__zero_reg__
.LVL470:
	ld r24,Z
	call lcd_hexout
.LVL471:
	.loc 1 990 0
	subi r28,lo8(-(-1))
.LVL472:
	breq .L316
	.loc 1 991 0
	ldi r24,lo8(32)
	call lcd_putc
.LVL473:
.L316:
	.loc 1 985 0
	cpse r28,__zero_reg__
	rjmp .L319
	.loc 1 995 0
	ldi r24,0
/* epilogue start */
	pop r28
.LVL474:
	pop r17
	pop r16
.LVL475:
	ret
	.cfi_endproc
.LFE59:
	.size	menuOnEnterStatusMidiOut, .-menuOnEnterStatusMidiOut
	.section	.text.menuOnEnterLogDisp,"ax",@progbits
.global	menuOnEnterLogDisp
	.type	menuOnEnterLogDisp, @function
menuOnEnterLogDisp:
.LFB64:
	.loc 1 1026 0
	.cfi_startproc
.LVL476:
	push r16
.LCFI51:
	.cfi_def_cfa_offset 4
	.cfi_offset 16, -3
	push r17
.LCFI52:
	.cfi_def_cfa_offset 5
	.cfi_offset 17, -4
	push r28
.LCFI53:
	.cfi_def_cfa_offset 6
	.cfi_offset 28, -5
/* prologue: function */
/* frame size = 0 */
/* stack size = 3 */
.L__stack_usage = 3
.LVL477:
	.loc 1 1032 0
	cpi r24,lo8(-1)
	brne .L323
	.loc 1 1033 0
	call log_count
.LVL478:
	subi r24,lo8(-(-1))
	sts logEntryNr.2902,r24
	.loc 1 1034 0
	sts showText.2903,__zero_reg__
	.loc 1 1035 0
	ldi r22,lo8(keylabel_exit)
	ldi r23,hi8(keylabel_exit)
	ldi r24,0
	call keylabel_set
.LVL479:
	.loc 1 1036 0
	ldi r22,lo8(keylabel_text)
	ldi r23,hi8(keylabel_text)
	ldi r24,lo8(1)
	call keylabel_set
.LVL480:
	.loc 1 1037 0
	call keylabel_toLCD
.LVL481:
	.loc 1 1030 0
	ldi r28,lo8(-1)
	rjmp .L324
.LVL482:
.L323:
	.loc 1 1038 0
	cpi r24,lo8(4)
	brne .L325
	.loc 1 1039 0
	lds r24,logEntryNr.2902
.LVL483:
	tst r24
	breq .L338
	.loc 1 1040 0
	subi r24,lo8(-(-1))
	sts logEntryNr.2902,r24
	.loc 1 1030 0
	ldi r28,lo8(-1)
	rjmp .L324
.LVL484:
.L325:
	.loc 1 1042 0
	cpi r24,lo8(1)
	brne .L326
	.loc 1 1043 0
	lds r16,logEntryNr.2902
	ldi r17,0
	subi r16,-1
	sbci r17,-1
	call log_count
.LVL485:
	ldi r25,0
	cp r16,r24
	cpc r17,r25
	brge .L339
	.loc 1 1044 0
	lds r24,logEntryNr.2902
	subi r24,lo8(-(1))
	sts logEntryNr.2902,r24
	.loc 1 1030 0
	ldi r28,lo8(-1)
	rjmp .L324
.LVL486:
.L326:
	.loc 1 1046 0
	cpi r24,lo8(3)
	breq .L327
	.loc 1 1046 0 is_stmt 0 discriminator 1
	cpi r24,lo8(5)
	brne .L340
.L327:
	.loc 1 1047 0 is_stmt 1
	lds r24,showText.2903
.LVL487:
	com r24
	sts showText.2903,r24
	.loc 1 1030 0
	ldi r28,lo8(-1)
	.loc 1 1047 0
	rjmp .L324
.L338:
	.loc 1 1030 0
	ldi r28,lo8(-1)
	rjmp .L324
.L339:
	ldi r28,lo8(-1)
	rjmp .L324
.LVL488:
.L340:
	.loc 1 1049 0
	ldi r28,0
.LVL489:
.L324:
	.loc 1 1051 0
	cpi r28,lo8(-1)
	breq .+2
	rjmp .L328
	.loc 1 1053 0
	call menuCursorSetExtra
.LVL490:
	.loc 1 1054 0
	call log_count
.LVL491:
	cpse r24,__zero_reg__
	rjmp .L329
	.loc 1 1055 0
	ldi r24,lo8(logNone)
	ldi r25,hi8(logNone)
	call lcd_puts_P
.LVL492:
	.loc 1 1056 0
	ldi r28,0
	rjmp .L330
.LVL493:
.L329:
	.loc 1 1058 0
	lds r24,logEntryNr.2902
	subi r24,lo8(-(1))
	call lcd_dec2out
.LVL494:
	.loc 1 1059 0
	ldi r24,lo8(58)
	call lcd_putc
.LVL495:
	.loc 1 1060 0
	lds r24,showText.2903
	cpse r24,__zero_reg__
	rjmp .L331
	.loc 1 1061 0
	ldi r22,lo8(32)
	lds r24,logEntryNr.2902
	call log_getShortTextFromIndex
.LVL496:
	call lcd_puts
.LVL497:
	rjmp .L332
.L331:
	.loc 1 1063 0
	lds r24,logEntryNr.2902
	call getErrorText
.LVL498:
	call lcd_puts_P
.LVL499:
.L332:
	.loc 1 1065 0
	call lcd_clrEol
.LVL500:
	.loc 1 1066 0
	call menuCursorSetExtra
.LVL501:
.L330:
	.loc 1 1068 0
	ldi r22,lo8(1)
	lds r24,showText.2903
	cpi r24,lo8(-1)
	breq .L333
	ldi r22,0
.L333:
	ldi r24,lo8(1)
	call keylabel_statcheck
.LVL502:
	.loc 1 1069 0
	lds r16,logEntryNr.2902
	ldi r17,0
	subi r16,-1
	sbci r17,-1
	call log_count
.LVL503:
	ldi r25,0
	cp r16,r24
	cpc r17,r25
	brge .L334
	.loc 1 1070 0
	ldi r22,lo8(keylabel_right)
	ldi r23,hi8(keylabel_right)
	ldi r24,lo8(3)
	call keylabel_set
.LVL504:
	rjmp .L335
.L334:
	.loc 1 1072 0
	ldi r24,lo8(3)
	call keylabel_clr
.LVL505:
.L335:
	.loc 1 1074 0
	lds r24,logEntryNr.2902
	tst r24
	breq .L336
	.loc 1 1075 0
	ldi r22,lo8(keylabel_left)
	ldi r23,hi8(keylabel_left)
	ldi r24,lo8(2)
	call keylabel_set
.LVL506:
	rjmp .L337
.L336:
	.loc 1 1077 0
	ldi r24,lo8(2)
	call keylabel_clr
.LVL507:
.L337:
	.loc 1 1079 0
	call keylabel_toLCD
.LVL508:
.L328:
	.loc 1 1082 0
	mov r24,r28
/* epilogue start */
	pop r28
.LVL509:
	pop r17
	pop r16
	ret
	.cfi_endproc
.LFE64:
	.size	menuOnEnterLogDisp, .-menuOnEnterLogDisp
	.section	.text.menuCursorSetMenu,"ax",@progbits
.global	menuCursorSetMenu
	.type	menuCursorSetMenu, @function
menuCursorSetMenu:
.LFB96:
	.loc 1 1939 0
	.cfi_startproc
/* prologue: function */
/* frame size = 0 */
/* stack size = 0 */
.L__stack_usage = 0
	.loc 1 1941 0
	ldi r24,lo8(74)
	call lcd_goto
.LVL510:
	ret
	.cfi_endproc
.LFE96:
	.size	menuCursorSetMenu, .-menuCursorSetMenu
	.section	.text.menuClearExtraDisp,"ax",@progbits
.global	menuClearExtraDisp
	.type	menuClearExtraDisp, @function
menuClearExtraDisp:
.LFB98:
	.loc 1 1948 0
	.cfi_startproc
/* prologue: function */
/* frame size = 0 */
/* stack size = 0 */
.L__stack_usage = 0
	.loc 1 1949 0
	call menuCursorSetExtra
.LVL511:
	.loc 1 1950 0
	ldi r24,lo8(10)
	call lcd_blank
.LVL512:
	ret
	.cfi_endproc
.LFE98:
	.size	menuClearExtraDisp, .-menuClearExtraDisp
	.section	.text.menu_ClearDataDisp,"ax",@progbits
.global	menu_ClearDataDisp
	.type	menu_ClearDataDisp, @function
menu_ClearDataDisp:
.LFB99:
	.loc 1 1953 0
	.cfi_startproc
/* prologue: function */
/* frame size = 0 */
/* stack size = 0 */
.L__stack_usage = 0
.LBB81:
.LBB82:
	.loc 1 1930 0
	ldi r24,lo8(30)
	call lcd_goto
.LVL513:
.LBE82:
.LBE81:
	.loc 1 1955 0
	ldi r24,lo8(10)
	call lcd_blank
.LVL514:
	ret
	.cfi_endproc
.LFE99:
	.size	menu_ClearDataDisp, .-menu_ClearDataDisp
	.section	.text.menuClearMenuDisp,"ax",@progbits
.global	menuClearMenuDisp
	.type	menuClearMenuDisp, @function
menuClearMenuDisp:
.LFB100:
	.loc 1 1958 0
	.cfi_startproc
/* prologue: function */
/* frame size = 0 */
/* stack size = 0 */
.L__stack_usage = 0
.LBB83:
.LBB84:
	.loc 1 1945 0
	ldi r24,lo8(64)
	call lcd_goto
.LVL515:
.LBE84:
.LBE83:
	.loc 1 1960 0
	ldi r24,lo8(10)
	call lcd_blank
.LVL516:
	.loc 1 1961 0
	call menuCursorSetMenu
.LVL517:
	.loc 1 1962 0
	ldi r24,lo8(10)
	call lcd_blank
.LVL518:
	ret
	.cfi_endproc
.LFE100:
	.size	menuClearMenuDisp, .-menuClearMenuDisp
	.section	.text.menu_ClearAllDisp,"ax",@progbits
.global	menu_ClearAllDisp
	.type	menu_ClearAllDisp, @function
menu_ClearAllDisp:
.LFB101:
	.loc 1 1965 0
	.cfi_startproc
/* prologue: function */
/* frame size = 0 */
/* stack size = 0 */
.L__stack_usage = 0
	.loc 1 1966 0
	call menuClearMenuDisp
.LVL519:
	.loc 1 1967 0
	call menu_ClearDataDisp
.LVL520:
	.loc 1 1968 0
	call menuClearExtraDisp
.LVL521:
	ret
	.cfi_endproc
.LFE101:
	.size	menu_ClearAllDisp, .-menu_ClearAllDisp
	.section	.text.menuCheckArrowDown,"ax",@progbits
.global	menuCheckArrowDown
	.type	menuCheckArrowDown, @function
menuCheckArrowDown:
.LFB102:
	.loc 1 1971 0
	.cfi_startproc
/* prologue: function */
/* frame size = 0 */
/* stack size = 0 */
.L__stack_usage = 0
	.loc 1 1972 0
	lds r30,currentMenu
	lds r31,currentMenu+1
	lpm r24,Z
	andi r24,lo8(63)
.LVL522:
	.loc 1 1974 0
	cpi r24,lo8(1)
	brne .L347
	.loc 1 1975 0
	call softkeyDown
.LVL523:
	ret
.LVL524:
.L347:
	.loc 1 1976 0
	adiw r30,14
	lpm r0,Z+
	lpm r31,Z
	mov r30,r0
	sbiw r30,0
	breq .L349
	.loc 1 1978 0
	cpi r24,lo8(9)
	brne .L350
	.loc 1 1980 0
	ld r24,Z
.LVL525:
	cpse r24,__zero_reg__
	rjmp .L351
	.loc 1 1981 0
	call softkeyOn
.LVL526:
	ret
.LVL527:
.L351:
	.loc 1 1983 0
	call softkeyOff
.LVL528:
	ret
.LVL529:
.L350:
	.loc 1 1987 0
	call softkeyDown
.LVL530:
	ret
.LVL531:
.L349:
	.loc 1 1991 0
	ldi r24,lo8(1)
.LVL532:
	call keylabel_clr
.LVL533:
	ret
	.cfi_endproc
.LFE102:
	.size	menuCheckArrowDown, .-menuCheckArrowDown
	.section	.text.menuCurrMenuToLCD,"ax",@progbits
.global	menuCurrMenuToLCD
	.type	menuCurrMenuToLCD, @function
menuCurrMenuToLCD:
.LFB91:
	.loc 1 1872 0
	.cfi_startproc
	push r28
.LCFI54:
	.cfi_def_cfa_offset 4
	.cfi_offset 28, -3
/* prologue: function */
/* frame size = 0 */
/* stack size = 1 */
.L__stack_usage = 1
	.loc 1 1874 0
	ldi r24,lo8(73)
	call lcd_goto
.LVL534:
	.loc 1 1875 0
	lds r30,currentMenu
	lds r31,currentMenu+1
	lpm r28,Z
	andi r28,lo8(-64)
.LVL535:
	.loc 1 1877 0
	cpi r28,lo8(-128)
	brne .L353
	.loc 1 1878 0
	ldi r24,lo8(32)
	call lcd_putc
.LVL536:
	.loc 1 1879 0
	ldi r24,lo8(2)
	call keylabel_clr
.LVL537:
	rjmp .L354
.L353:
	.loc 1 1881 0
	ldi r24,lo8(127)
	call lcd_putc
.LVL538:
	.loc 1 1882 0
	call softkeyLeft
.LVL539:
.L354:
	.loc 1 1886 0
	cpi r28,lo8(-64)
	brne .L355
.LVL540:
	.loc 1 1888 0
	ldi r24,lo8(3)
	call keylabel_clr
.LVL541:
	.loc 1 1887 0
	ldi r28,lo8(32)
.LVL542:
	rjmp .L356
.LVL543:
.L355:
	.loc 1 1891 0
	call softkeyRight
.LVL544:
	.loc 1 1890 0
	ldi r28,lo8(126)
.LVL545:
.L356:
	.loc 1 1893 0
	call softkeyUp
.LVL546:
	.loc 1 1894 0
	call menuCheckArrowDown
.LVL547:
	.loc 1 1895 0
	lds r24,currentMenu
	lds r25,currentMenu+1
	mov r22,r28
	adiw r24,2
	call menuTextOut
.LVL548:
	.loc 1 1896 0
	call keylabel_toLCD
.LVL549:
	.loc 1 1897 0
	call menuCursorSetMenu
.LVL550:
/* epilogue start */
	.loc 1 1898 0
	pop r28
.LVL551:
	ret
	.cfi_endproc
.LFE91:
	.size	menuCurrMenuToLCD, .-menuCurrMenuToLCD
	.section	.text.menuItemChanged,"ax",@progbits
.global	menuItemChanged
	.type	menuItemChanged, @function
menuItemChanged:
.LFB103:
	.loc 1 1996 0
	.cfi_startproc
/* prologue: function */
/* frame size = 0 */
/* stack size = 0 */
.L__stack_usage = 0
	.loc 1 1999 0
	ldi r24,lo8(-1)
	sts swTimer+14,r24
	.loc 1 2000 0
	lds r24,currentMenu
	lds r25,currentMenu+1
	movw r30,r24
	lpm r18,Z
	mov r22,r18
	andi r22,lo8(63)
.LVL552:
	.loc 1 2001 0
	cpi r22,lo8(2)
	brsh .+2
	rjmp .L358
	.loc 1 2001 0 is_stmt 0 discriminator 1
	movw r18,r24
	subi r18,-14
	sbci r19,-1
	movw r30,r18
	lpm r20,Z+
	lpm r21,Z+
	cp r20,__zero_reg__
	cpc r21,__zero_reg__
	brne .+2
	rjmp .L358
.LBB85:
	.loc 1 2003 0 is_stmt 1
	mov r30,r22
	ldi r31,0
	sbiw r30,1
	movw r18,r30
	lsl r18
	rol r19
	lsl r18
	rol r19
	lsl r18
	rol r19
	add r30,r18
	adc r31,r19
	subi r30,lo8(-(nibbleInfo))
	sbci r31,hi8(-(nibbleInfo))
	sts pNibbleInfo+1,r31
	sts pNibbleInfo,r30
	.loc 1 2004 0
	lpm r18,Z
	sts nibbleCount,r18
	.loc 1 2005 0
	movw r30,r24
	lpm r18,Z+
	andi r18,lo8(63)
	sts dataType,r18
	.loc 1 2006 0
	lpm r18,Z
	tst r18
	brge .L363
	.loc 1 2006 0 is_stmt 0 discriminator 1
	lds r18,DataAdressOffset
	lds r19,DataAdressOffset+1
	rjmp .L359
.L363:
	.loc 1 2006 0
	ldi r18,0
	ldi r19,0
.L359:
	.loc 1 2006 0 discriminator 4
	add r18,r20
	adc r19,r21
.LVL553:
	.loc 1 2007 0 is_stmt 1 discriminator 4
	movw r30,r24
	lpm r24,Z
	andi r24,lo8(63)
	cpi r24,lo8(11)
	brne .L360
	.loc 1 2008 0
	movw r30,r18
	ld r24,Z
	ldd r25,Z+1
	ldd r26,Z+2
	ldd r27,Z+3
	sts dataEntry32,r24
	sts dataEntry32+1,r25
	sts dataEntry32+2,r26
	sts dataEntry32+3,r27
	rjmp .L361
.L360:
	.loc 1 2010 0
	movw r30,r18
	ld r24,Z
	sts dataEntry,r24
.L361:
	.loc 1 2012 0
	call menuDisplayValue
.LVL554:
.LBE85:
	.loc 1 2001 0
	rjmp .L362
.LVL555:
.L358:
	.loc 1 2014 0
	call menu_ClearDataDisp
.LVL556:
	.loc 1 2015 0
	ldi r24,lo8(nibbleInfo)
	ldi r25,hi8(nibbleInfo)
	sts pNibbleInfo+1,r25
	sts pNibbleInfo,r24
.L362:
	.loc 1 2017 0
	call menuCheckArrowDown
.LVL557:
	.loc 1 2018 0
	call menuCursorSetMenu
.LVL558:
	ret
	.cfi_endproc
.LFE103:
	.size	menuItemChanged, .-menuItemChanged
	.section	.text.menu_InitLCD,"ax",@progbits
.global	menu_InitLCD
	.type	menu_InitLCD, @function
menu_InitLCD:
.LFB73:
	.loc 1 1232 0
	.cfi_startproc
/* prologue: function */
/* frame size = 0 */
/* stack size = 0 */
.L__stack_usage = 0
	.loc 1 1233 0
	call menuClearExtraDisp
.LVL559:
	.loc 1 1234 0
	call menuItemChanged
.LVL560:
	.loc 1 1235 0
	call menuParentMenuToLCD
.LVL561:
	.loc 1 1236 0
	call menuCurrMenuToLCD
.LVL562:
	.loc 1 1237 0
	call lcd_cursosblink
.LVL563:
	ret
	.cfi_endproc
.LFE73:
	.size	menu_InitLCD, .-menu_InitLCD
	.section	.text.menuResetVars,"ax",@progbits
.global	menuResetVars
	.type	menuResetVars, @function
menuResetVars:
.LFB104:
	.loc 1 2021 0
	.cfi_startproc
/* prologue: function */
/* frame size = 0 */
/* stack size = 0 */
.L__stack_usage = 0
	.loc 1 2023 0
	sts menuMidiChan,__zero_reg__
	.loc 1 2024 0
	sts menuSection,__zero_reg__
	.loc 1 2025 0
	sts DataAdressOffset+1,__zero_reg__
	sts DataAdressOffset,__zero_reg__
	ret
	.cfi_endproc
.LFE104:
	.size	menuResetVars, .-menuResetVars
	.section	.text.menu_ProcessMessage,"ax",@progbits
.global	menu_ProcessMessage
	.type	menu_ProcessMessage, @function
menu_ProcessMessage:
.LFB105:
	.loc 1 2028 0
	.cfi_startproc
.LVL564:
	push r28
.LCFI55:
	.cfi_def_cfa_offset 4
	.cfi_offset 28, -3
/* prologue: function */
/* frame size = 0 */
/* stack size = 1 */
.L__stack_usage = 1
	mov r28,r24
.LVL565:
	.loc 1 2034 0
	call lcd_cursosblink
.LVL566:
	.loc 1 2035 0
	lds r30,currentMenu
	lds r31,currentMenu+1
	lpm r24,Z
	andi r24,lo8(63)
	cpi r24,lo8(1)
	breq .L367
	.loc 1 2035 0 is_stmt 0 discriminator 1
	lds r24,nibbleIndex
	cpi r24,lo8(-1)
	breq .+2
	rjmp .L368
.L367:
	.loc 1 2037 0 is_stmt 1
	adiw r30,1
	lpm r24,Z
	sbrs r24,6
	rjmp .L369
	.loc 1 2038 0
	call menuClearExtraDisp
.LVL567:
	.loc 1 2039 0
	call menuCursorSetMenu
.LVL568:
.L369:
	.loc 1 2041 0
	lds r22,currentMenu
	lds r23,currentMenu+1
	movw r24,r22
	adiw r24,1
	movw r30,r24
	lpm r24,Z
	mov r25,r24
	andi r25,lo8(32)
	sbrs r24,5
	rjmp .L370
	.loc 1 2041 0 is_stmt 0 discriminator 1
	movw r18,r22
	subi r18,-16
	sbci r19,-1
	movw r30,r18
	lpm r18,Z+
	lpm r19,Z+
	cp r18,__zero_reg__
	cpc r19,__zero_reg__
	breq .L370
	.loc 1 2041 0 is_stmt 1 discriminator 2
	lds r20,nibbleIndex
	cpi r20,lo8(-1)
	breq .L370
	.loc 1 2044 0
	mov r24,r28
	movw r30,r18
	eicall
.LVL569:
	cpi r24,lo8(-1)
	brne .L371
	.loc 1 2046 0
	sts nibbleIndex,__zero_reg__
	.loc 1 2033 0
	ldi r24,0
	rjmp .L372
.L371:
	.loc 1 2049 0
	call menuClearExtraDisp
.LVL570:
	.loc 1 2050 0
	call menu_ClearDataDisp
.LVL571:
	.loc 1 2051 0
	call menuCursorSetMenu
.LVL572:
	.loc 1 2052 0
	ldi r24,lo8(-1)
	sts nibbleIndex,r24
	.loc 1 2053 0
	call menuCurrMenuToLCD
.LVL573:
	.loc 1 2033 0
	ldi r24,0
	rjmp .L372
.L370:
	.loc 1 2057 0
	cpi r28,lo8(3)
	brne .+2
	rjmp .L373
	brsh .L374
	cpi r28,lo8(1)
	breq .L375
	cpi r28,lo8(2)
	breq .L376
	rjmp .L405
.L374:
	cpi r28,lo8(5)
	brne .+2
	rjmp .L373
	brlo .L377
	cpi r28,lo8(6)
	breq .L376
	rjmp .L405
.L375:
	.loc 1 2060 0
	movw r30,r22
	lpm r24,Z
	andi r24,lo8(-64)
	cpi r24,lo8(-64)
	brne .+2
	rjmp .L406
	.loc 1 2062 0
	adiw r30,20
	sts currentMenu+1,r31
	sts currentMenu,r30
	.loc 1 2063 0
	call menuItemChanged
.LVL574:
	.loc 1 2064 0
	call menuCurrMenuToLCD
.LVL575:
	.loc 1 2033 0
	ldi r24,0
	rjmp .L372
.L377:
	.loc 1 2069 0
	movw r30,r22
	lpm r24,Z
	andi r24,lo8(-64)
	cpi r24,lo8(-128)
	brne .+2
	rjmp .L407
	.loc 1 2071 0
	sbiw r30,20
	sts currentMenu+1,r31
	sts currentMenu,r30
	.loc 1 2072 0
	call menuItemChanged
.LVL576:
	.loc 1 2073 0
	call menuCurrMenuToLCD
.LVL577:
	.loc 1 2033 0
	ldi r24,0
	rjmp .L372
.L376:
	.loc 1 2079 0
	sbrs r24,4
	rjmp .L378
	.loc 1 2081 0
	sts menuVMenuSoftKey+1,__zero_reg__
	sts menuVMenuSoftKey,__zero_reg__
.L378:
	.loc 1 2083 0
	lds r30,menuStackIndex
	tst r30
	breq .L379
	.loc 1 2085 0
	subi r30,lo8(-(-1))
	sts menuStackIndex,r30
	ldi r31,0
	lsl r30
	rol r31
	subi r30,lo8(-(menuStack))
	sbci r31,hi8(-(menuStack))
	ld __tmp_reg__,Z+
	ld r31,Z
	mov r30,__tmp_reg__
	sts currentMenu+1,r31
	sts currentMenu,r30
	.loc 1 2086 0
	adiw r30,18
	lpm r0,Z+
	lpm r31,Z
	mov r30,r0
	sbiw r30,0
	breq .L380
	.loc 1 2088 0
	ldi r24,0
	eicall
.LVL578:
.L380:
	.loc 1 2090 0
	call menuClearExtraDisp
.LVL579:
	.loc 1 2091 0
	call menuParentMenuToLCD
.LVL580:
	.loc 1 2092 0
	call menuCurrMenuToLCD
.LVL581:
	.loc 1 2094 0
	call menuItemChanged
.LVL582:
	.loc 1 2033 0
	ldi r24,0
	rjmp .L372
.L379:
.LVL583:
	.loc 1 2097 0
	ldi r24,0
	call keylabel_clr
.LVL584:
	.loc 1 2098 0
	ldi r24,lo8(1)
	call keylabel_clr
.LVL585:
	.loc 1 2099 0
	ldi r24,lo8(2)
	call keylabel_clr
.LVL586:
	.loc 1 2100 0
	ldi r24,lo8(3)
	call keylabel_clr
.LVL587:
	.loc 1 2101 0
	call keylabel_toLCD
.LVL588:
	.loc 1 2102 0
	call lcd_cursoroff
.LVL589:
	.loc 1 2096 0
	ldi r24,lo8(-1)
	rjmp .L372
.LVL590:
.L373:
	.loc 1 2108 0
	movw r30,r22
	lpm r18,Z
	andi r18,lo8(63)
	ldi r19,0
	cpi r18,2
	cpc r19,__zero_reg__
	brge .+2
	rjmp .L381
	.loc 1 2110 0
	adiw r30,16
	lpm r0,Z+
	lpm r31,Z
	mov r30,r0
	sbiw r30,0
	breq .L382
	.loc 1 2111 0
	mov r24,r28
	eicall
.LVL591:
	.loc 1 2112 0
	call menuItemChanged
.LVL592:
.L382:
	.loc 1 2114 0
	lds r18,currentMenu
	lds r19,currentMenu+1
	movw r24,r18
	adiw r24,1
	movw r30,r24
	lpm r24,Z
	sbrc r24,3
	rjmp .L408
	.loc 1 2114 0 is_stmt 0 discriminator 1
	movw r24,r18
	adiw r24,14
	movw r30,r24
	lpm r24,Z+
	lpm r25,Z+
	or r24,r25
	brne .+2
	rjmp .L409
	.loc 1 2115 0 is_stmt 1
	movw r30,r18
	lpm r24,Z
	andi r24,lo8(63)
	cpi r24,lo8(9)
	brne .L383
	.loc 1 2117 0
	ldi r22,lo8(1)
	ldi r24,0
	call nibbleChange
.LVL593:
	.loc 1 2118 0
	call nibbleToData
.LVL594:
	.loc 1 2119 0
	lds r30,currentMenu
	lds r31,currentMenu+1
	adiw r30,14
	lpm r0,Z+
	lpm r31,Z
	mov r30,r0
	lds r24,dataEntry
	st Z,r24
	.loc 1 2120 0
	call menuDisplayValue
.LVL595:
	.loc 1 2121 0
	call menuCheckArrowDown
.LVL596:
	.loc 1 2122 0
	call keylabel_toLCD
.LVL597:
	.loc 1 2123 0
	call menuCursorSetMenu
.LVL598:
	.loc 1 2033 0
	ldi r24,0
	rjmp .L372
.L383:
	.loc 1 2126 0
	sts nibbleIndex,__zero_reg__
	.loc 1 2127 0
	call menuCursorSetDataNibble
.LVL599:
	.loc 1 2033 0
	ldi r24,0
	rjmp .L372
.L381:
	.loc 1 2132 0
	ldi r18,lo8(-1)
	sts nibbleIndex,r18
	.loc 1 2133 0
	sbrs r24,4
	rjmp .L384
	.loc 1 2135 0
	sts menuVMenuSoftKey+1,r23
	sts menuVMenuSoftKey,r22
	.loc 1 2136 0
	lds r30,menuStackIndex
	tst r30
	brne .+2
	rjmp .L410
	.loc 1 2138 0
	subi r30,lo8(-(-1))
	sts menuStackIndex,r30
	ldi r31,0
	lsl r30
	rol r31
	subi r30,lo8(-(menuStack))
	sbci r31,hi8(-(menuStack))
	ld __tmp_reg__,Z+
	ld r31,Z
	mov r30,__tmp_reg__
	sts currentMenu+1,r31
	sts currentMenu,r30
	.loc 1 2139 0
	adiw r30,18
	lpm r0,Z+
	lpm r31,Z
	mov r30,r0
	sbiw r30,0
	breq .L385
	.loc 1 2141 0
	ldi r24,0
	eicall
.LVL600:
.L385:
	.loc 1 2143 0
	call menuClearExtraDisp
.LVL601:
	.loc 1 2144 0
	call menuParentMenuToLCD
.LVL602:
	.loc 1 2145 0
	call menuCurrMenuToLCD
.LVL603:
	.loc 1 2147 0
	call menuItemChanged
.LVL604:
	.loc 1 2033 0
	ldi r24,0
	rjmp .L372
.L384:
	.loc 1 2151 0
	movw r30,r22
	adiw r30,16
	lpm r0,Z+
	lpm r31,Z
	mov r30,r0
	sbiw r30,0
	breq .L386
	.loc 1 2153 0
	tst r25
	breq .L387
	.loc 1 2156 0
	ldi r24,lo8(-1)
	eicall
.LVL605:
	cpi r24,lo8(-1)
	brne .L388
	.loc 1 2157 0
	sts nibbleIndex,__zero_reg__
	rjmp .L386
.L388:
	.loc 1 2160 0
	call menuClearExtraDisp
.LVL606:
	.loc 1 2161 0
	call menu_ClearDataDisp
.LVL607:
	.loc 1 2162 0
	call menuCursorSetMenu
.LVL608:
	.loc 1 2163 0
	ldi r24,lo8(-1)
	sts nibbleIndex,r24
	rjmp .L386
.L387:
	.loc 1 2168 0
	ldi r24,lo8(5)
	eicall
.LVL609:
	.loc 1 2169 0
	call menuCursorSetMenu
.LVL610:
.L386:
	.loc 1 2172 0
	lds r18,currentMenu
	lds r19,currentMenu+1
	movw r24,r18
	adiw r24,12
	movw r30,r24
	lpm r24,Z+
	lpm r25,Z+
	or r24,r25
	brne .+2
	rjmp .L411
	.loc 1 2174 0
	lds r26,menuStackIndex
	cpi r26,lo8(16)
	brlo .+2
	rjmp .L412
	.loc 1 2175 0
	ldi r24,lo8(1)
	add r24,r26
	sts menuStackIndex,r24
	ldi r27,0
	lsl r26
	rol r27
	subi r26,lo8(-(menuStack))
	sbci r27,hi8(-(menuStack))
	st X+,r18
	st X,r19
	.loc 1 2176 0
	movw r24,r18
	adiw r24,1
	movw r30,r24
	lpm r24,Z
	sbrs r24,3
	rjmp .L389
	.loc 1 2176 0 is_stmt 0 discriminator 1
	lds r24,menuVMenuSoftKey
	lds r25,menuVMenuSoftKey+1
	sbiw r24,0
	breq .L389
	.loc 1 2178 0 is_stmt 1
	sts currentMenu+1,r25
	sts currentMenu,r24
	rjmp .L390
.L389:
	.loc 1 2181 0
	movw r30,r18
	adiw r30,12
	lpm r24,Z+
	lpm r25,Z+
	sts currentMenu+1,r25
	sts currentMenu,r24
.L390:
	.loc 1 2183 0
	call menuClearExtraDisp
.LVL611:
	.loc 1 2184 0
	call menuParentMenuToLCD
.LVL612:
	.loc 1 2185 0
	call menuCurrMenuToLCD
.LVL613:
	.loc 1 2187 0
	call menuItemChanged
.LVL614:
	.loc 1 2033 0
	ldi r24,0
	rjmp .L372
.L368:
	.loc 1 2197 0
	cpi r28,lo8(3)
	brne .+2
	rjmp .L391
	brsh .L392
	cpi r28,lo8(1)
	breq .L393
	cpi r28,lo8(2)
	breq .L394
	rjmp .L413
.L392:
	cpi r28,lo8(5)
	brne .+2
	rjmp .L395
	brlo .L396
	cpi r28,lo8(6)
	brne .+2
	rjmp .L397
	rjmp .L413
.L393:
	.loc 1 2200 0
	mov r20,r24
	ldi r21,0
	lds r30,pNibbleInfo
	lds r31,pNibbleInfo+1
	lpm r18,Z
	ldi r19,0
	subi r18,1
	sbc r19,__zero_reg__
	cp r20,r18
	cpc r21,r19
	brlt .+2
	rjmp .L414
	.loc 1 2201 0
	subi r24,lo8(-(1))
	sts nibbleIndex,r24
	.loc 1 2202 0
	call menuCursorSetDataNibble
.LVL615:
	.loc 1 2033 0
	ldi r24,0
	rjmp .L372
.L396:
	.loc 1 2207 0
	tst r24
	brne .+2
	rjmp .L415
	.loc 1 2208 0
	subi r24,lo8(-(-1))
	sts nibbleIndex,r24
	.loc 1 2209 0
	call menuCursorSetDataNibble
.LVL616:
	.loc 1 2033 0
	ldi r24,0
	rjmp .L372
.L394:
	.loc 1 2214 0
	ldi r22,lo8(1)
	call nibbleChange
.LVL617:
	.loc 1 2215 0
	call nibbleToData
.LVL618:
	.loc 1 2216 0
	call menuDisplayValue
.LVL619:
	.loc 1 2217 0
	lds r24,dataType
	cpi r24,lo8(10)
	breq .L398
	.loc 1 2217 0 is_stmt 0 discriminator 1
	cpi r24,lo8(14)
	brne .L399
.L398:
	.loc 1 2219 0 is_stmt 1
	lds r18,nibbleIndex
	mov r20,r18
	ldi r21,0
	lds r30,pNibbleInfo
	lds r31,pNibbleInfo+1
	lpm r24,Z
	ldi r25,0
	sbiw r24,1
	cp r20,r24
	cpc r21,r25
	brge .L399
	.loc 1 2220 0
	subi r18,lo8(-(1))
	sts nibbleIndex,r18
.L399:
	.loc 1 2223 0
	call menuCursorSetDataNibble
.LVL620:
	.loc 1 2033 0
	ldi r24,0
	.loc 1 2224 0
	rjmp .L372
.L391:
	.loc 1 2227 0
	ldi r22,lo8(-1)
	call nibbleChange
.LVL621:
	.loc 1 2228 0
	call nibbleToData
.LVL622:
	.loc 1 2229 0
	call menuDisplayValue
.LVL623:
	.loc 1 2230 0
	lds r24,dataType
	cpi r24,lo8(10)
	breq .L400
	.loc 1 2230 0 is_stmt 0 discriminator 1
	cpi r24,lo8(14)
	brne .L401
.L400:
	.loc 1 2231 0 is_stmt 1
	lds r18,nibbleIndex
	mov r20,r18
	ldi r21,0
	lds r30,pNibbleInfo
	lds r31,pNibbleInfo+1
	lpm r24,Z
	ldi r25,0
	sbiw r24,1
	cp r20,r24
	cpc r21,r25
	brge .L401
	.loc 1 2232 0
	subi r18,lo8(-(1))
	sts nibbleIndex,r18
.L401:
	.loc 1 2235 0
	call menuCursorSetDataNibble
.LVL624:
	.loc 1 2033 0
	ldi r24,0
	.loc 1 2236 0
	rjmp .L372
.L395:
	.loc 1 2239 0
	call nibbleToData
.LVL625:
	.loc 1 2240 0
	lds r18,currentMenu
	lds r19,currentMenu+1
	movw r24,r18
	adiw r24,14
	movw r30,r24
	lpm r26,Z+
	lpm r27,Z+
	sbiw r26,0
	breq .L397
.LBB86:
	.loc 1 2241 0
	sbiw r24,13
	movw r30,r24
	lpm r24,Z
	tst r24
	brge .L416
	.loc 1 2241 0 is_stmt 0 discriminator 1
	lds r24,DataAdressOffset
	lds r25,DataAdressOffset+1
	rjmp .L402
.L416:
	.loc 1 2241 0
	ldi r24,0
	ldi r25,0
.L402:
	.loc 1 2241 0 discriminator 4
	add r26,r24
	adc r27,r25
.LVL626:
	.loc 1 2242 0 is_stmt 1 discriminator 4
	movw r30,r18
	lpm r24,Z
	andi r24,lo8(63)
	cpi r24,lo8(11)
	brne .L403
	.loc 1 2243 0
	lds r20,dataEntry32
	lds r21,dataEntry32+1
	lds r22,dataEntry32+2
	lds r23,dataEntry32+3
	st X+,r20
	st X+,r21
	st X+,r22
	st X,r23
	sbiw r26,3
	rjmp .L397
.L403:
	.loc 1 2245 0
	lds r24,dataEntry
	st X,r24
.LVL627:
.L397:
.LBE86:
	.loc 1 2249 0
	lds r30,currentMenu
	lds r31,currentMenu+1
	adiw r30,18
	lpm r0,Z+
	lpm r31,Z
	mov r30,r0
	sbiw r30,0
	breq .L404
	.loc 1 2250 0
	mov r24,r28
	eicall
.LVL628:
.L404:
	.loc 1 2252 0
	ldi r24,lo8(-1)
	sts nibbleIndex,r24
	.loc 1 2253 0
	call menuCurrMenuToLCD
.LVL629:
	.loc 1 2254 0
	call menuItemChanged
.LVL630:
	.loc 1 2033 0
	ldi r24,0
	.loc 1 2255 0
	rjmp .L372
.L405:
	.loc 1 2033 0
	ldi r24,0
	rjmp .L372
.L406:
	ldi r24,0
	rjmp .L372
.L407:
	ldi r24,0
	rjmp .L372
.L408:
	ldi r24,0
	rjmp .L372
.L409:
	ldi r24,0
	rjmp .L372
.L410:
	ldi r24,0
	rjmp .L372
.L411:
	ldi r24,0
	rjmp .L372
.L412:
	ldi r24,0
	rjmp .L372
.L413:
	ldi r24,0
	rjmp .L372
.L414:
	ldi r24,0
	rjmp .L372
.L415:
	ldi r24,0
.LVL631:
.L372:
/* epilogue start */
	.loc 1 2259 0
	pop r28
.LVL632:
	ret
	.cfi_endproc
.LFE105:
	.size	menu_ProcessMessage, .-menu_ProcessMessage
	.section	.text.displayMenuMessage_P,"ax",@progbits
.global	displayMenuMessage_P
	.type	displayMenuMessage_P, @function
displayMenuMessage_P:
.LFB106:
	.loc 1 2261 0
	.cfi_startproc
.LVL633:
	push r16
.LCFI56:
	.cfi_def_cfa_offset 4
	.cfi_offset 16, -3
	push r17
.LCFI57:
	.cfi_def_cfa_offset 5
	.cfi_offset 17, -4
	push r28
.LCFI58:
	.cfi_def_cfa_offset 6
	.cfi_offset 28, -5
	push r29
.LCFI59:
	.cfi_def_cfa_offset 7
	.cfi_offset 29, -6
/* prologue: function */
/* frame size = 0 */
/* stack size = 4 */
.L__stack_usage = 4
	movw r16,r24
	.loc 1 2263 0
	lds r29,lcd_cursorPos
.LVL634:
	.loc 1 2265 0
	lds r30,currentMenu
	lds r31,currentMenu+1
	lpm r24,Z
.LVL635:
	andi r24,lo8(63)
	cpi r24,lo8(1)
	brne .L418
	.loc 1 2267 0
	ldi r24,lo8(30)
	call lcd_goto
.LVL636:
	.loc 1 2268 0
	ldi r24,lo8(1)
	sts displayMessageArea,r24
	rjmp .L419
.L418:
	.loc 1 2271 0
	ldi r24,lo8(20)
	call lcd_goto
.LVL637:
	.loc 1 2272 0
	sts displayMessageArea,__zero_reg__
.L419:
	.loc 1 2274 0
	lds r28,lcd_cursorPos
.LVL638:
	.loc 1 2275 0
	movw r24,r16
	call lcd_puts_P
.LVL639:
	.loc 1 2276 0
	mov r24,r29
	call lcd_goto
.LVL640:
.LBB87:
	.loc 1 2277 0
	in r25,__SREG__
.LVL641:
.LBB88:
.LBB89:
	.file 2 "c:\\program files (x86)\\atmel\\studio\\7.0\\toolchain\\avr8\\avr8-gnu-toolchain\\avr\\include\\util\\atomic.h"
	.loc 2 50 0
/* #APP */
 ;  50 "c:\program files (x86)\atmel\studio\7.0\toolchain\avr8\avr8-gnu-toolchain\avr\include\util\atomic.h" 1
	cli
 ;  0 "" 2
/* #NOAPP */
.LBE89:
.LBE88:
	.loc 1 2277 0
	ldi r24,lo8(1)
	rjmp .L420
.LVL642:
.L421:
	.loc 1 2277 0 discriminator 3
	ldi r30,lo8(swTimer)
	ldi r31,hi8(swTimer)
	ldi r24,lo8(100)
.LVL643:
	std Z+14,r24
	std Z+15,__zero_reg__
.LVL644:
	.loc 1 2277 0 discriminator 3
	ldi r24,0
.LVL645:
.L420:
	.loc 1 2277 0 is_stmt 0 discriminator 1
	cpse r24,__zero_reg__
	rjmp .L421
.LVL646:
.LBB90:
.LBB91:
	.loc 2 70 0 is_stmt 1
	out __SREG__,r25
	.loc 2 71 0
.LVL647:
.LBE91:
.LBE90:
.LBE87:
	.loc 1 2279 0
	mov r24,r28
.LVL648:
/* epilogue start */
	pop r29
.LVL649:
	pop r28
.LVL650:
	pop r17
	pop r16
.LVL651:
	ret
	.cfi_endproc
.LFE106:
	.size	displayMenuMessage_P, .-displayMenuMessage_P
	.section	.text.menu_OnEnterMidiPanic,"ax",@progbits
.global	menu_OnEnterMidiPanic
	.type	menu_OnEnterMidiPanic, @function
menu_OnEnterMidiPanic:
.LFB41:
	.loc 1 640 0
	.cfi_startproc
.LVL652:
/* prologue: function */
/* frame size = 0 */
/* stack size = 0 */
.L__stack_usage = 0
	.loc 1 642 0
	ldi r24,lo8(menuMessageMIDIpanic)
	ldi r25,hi8(menuMessageMIDIpanic)
.LVL653:
	call displayMenuMessage_P
.LVL654:
	.loc 1 643 0
	call midiSendAllNotesOff
.LVL655:
	.loc 1 644 0
	call menuCursorSetMenu
.LVL656:
	.loc 1 646 0
	ldi r24,0
	ret
	.cfi_endproc
.LFE41:
	.size	menu_OnEnterMidiPanic, .-menu_OnEnterMidiPanic
	.section	.text.menu_ModuleTestExecute,"ax",@progbits
.global	menu_ModuleTestExecute
	.type	menu_ModuleTestExecute, @function
menu_ModuleTestExecute:
.LFB43:
	.loc 1 660 0
	.cfi_startproc
/* prologue: function */
/* frame size = 0 */
/* stack size = 0 */
.L__stack_usage = 0
	.loc 1 663 0
	lds r24,menu_TestModuleBitCounter
	cpi r24,lo8(-1)
	breq .L424
	.loc 1 663 0 is_stmt 0 discriminator 1
	cpi r24,lo8(-3)
	brne .L425
.L424:
.LBB92:
	.loc 1 665 0 is_stmt 1
	call lcd_cursoroff
.LVL657:
	.loc 1 666 0
	call menu_ClearDataDisp
.LVL658:
	.loc 1 667 0
	sts msgPipe_Handling,__zero_reg__
.LVL659:
.LBB93:
	.loc 1 670 0
	ldi r25,0
.LBE93:
	.loc 1 668 0
	ldi r30,lo8(pipe)
	ldi r31,hi8(pipe)
.LBB94:
	.loc 1 670 0
	rjmp .L426
.LVL660:
.L427:
	.loc 1 671 0 discriminator 3
	ldd r18,Z+1
	lds r24,menu_TestModulePattern
	or r24,r18
	std Z+1,r24
	.loc 1 672 0 discriminator 3
	adiw r30,8
.LVL661:
	.loc 1 670 0 discriminator 3
	subi r25,lo8(-(1))
.LVL662:
.L426:
	.loc 1 670 0 is_stmt 0 discriminator 1
	cpi r25,lo8(32)
	brlo .L427
.LBE94:
	.loc 1 674 0 is_stmt 1
	lds r24,menu_TestModuleBitCounter
	cpi r24,lo8(-1)
	brne .L428
	.loc 1 675 0
	sts menu_TestModuleBitCounter,__zero_reg__
	rjmp .L429
.L428:
	.loc 1 677 0
	ldi r24,lo8(menuMessageAbort)
	ldi r25,hi8(menuMessageAbort)
	call displayMenuMessage_P
.LVL663:
	.loc 1 678 0
	ldi r24,lo8(-2)
	sts menu_TestModuleBitCounter,r24
.LBB95:
	.loc 1 679 0
	in r25,__SREG__
.LVL664:
.LBB96:
.LBB97:
	.loc 2 50 0
/* #APP */
 ;  50 "c:\program files (x86)\atmel\studio\7.0\toolchain\avr8\avr8-gnu-toolchain\avr\include\util\atomic.h" 1
	cli
 ;  0 "" 2
/* #NOAPP */
.LBE97:
.LBE96:
	.loc 1 679 0
	ldi r24,lo8(1)
	rjmp .L430
.LVL665:
.L431:
	.loc 1 679 0 discriminator 3
	ldi r30,lo8(swTimer)
	ldi r31,hi8(swTimer)
	ldi r24,lo8(2)
.LVL666:
	std Z+12,r24
	std Z+13,r24
.LVL667:
	.loc 1 679 0 discriminator 3
	ldi r24,0
.LVL668:
.L430:
	.loc 1 679 0 is_stmt 0 discriminator 1
	cpse r24,__zero_reg__
	rjmp .L431
.LVL669:
.LBB98:
.LBB99:
	.loc 2 70 0 is_stmt 1
	out __SREG__,r25
	.loc 2 71 0
.LVL670:
.LBE99:
.LBE98:
.LBE95:
	.loc 1 680 0
	call menuCursorSetMenu
.LVL671:
	rjmp .L429
.L425:
.LBE92:
	.loc 1 682 0
	cpi r24,lo8(-2)
	brne .L432
	.loc 1 683 0
	ldi r24,lo8(-1)
	sts msgPipe_Handling,r24
	.loc 1 684 0
	sts menu_TestModulePattern,__zero_reg__
	.loc 1 686 0
	call lcd_cursosblink
.LVL672:
	rjmp .L429
.L432:
	.loc 1 690 0
	lds r20,menu_TestModuleErrorList
	lds r21,menu_TestModuleErrorList+1
	lds r22,menu_TestModuleErrorList+2
	lds r23,menu_TestModuleErrorList+3
	lsr r23
	ror r22
	ror r21
	ror r20
	sts menu_TestModuleErrorList,r20
	sts menu_TestModuleErrorList+1,r21
	sts menu_TestModuleErrorList+2,r22
	sts menu_TestModuleErrorList+3,r23
	.loc 1 691 0
	mov r30,r24
	ldi r31,0
	movw r26,r30
	lsl r26
	rol r27
	lsl r26
	rol r27
	lsl r26
	rol r27
	subi r26,lo8(-(pipe))
	sbci r27,hi8(-(pipe))
	adiw r26,6
	ld r18,X
	lds r25,menu_TestModulePattern
	and r18,r25
	brne .L433
	.loc 1 693 0
	ori r23,128
	sts menu_TestModuleErrorList,r20
	sts menu_TestModuleErrorList+1,r21
	sts menu_TestModuleErrorList+2,r22
	sts menu_TestModuleErrorList+3,r23
.L433:
	.loc 1 696 0
	lsl r30
	rol r31
	lsl r30
	rol r31
	lsl r30
	rol r31
	subi r30,lo8(-(pipe))
	sbci r31,hi8(-(pipe))
	ldd r18,Z+1
	or r25,r18
	std Z+1,r25
	.loc 1 697 0
	subi r24,lo8(-(1))
	sts menu_TestModuleBitCounter,r24
.L429:
	.loc 1 700 0
	lds r30,menu_TestModuleBitCounter
	cpi r30,lo8(32)
	brsh .L434
	.loc 1 702 0
	ldi r31,0
	lsl r30
	rol r31
	lsl r30
	rol r31
	lsl r30
	rol r31
	subi r30,lo8(-(pipe))
	sbci r31,hi8(-(pipe))
	lds r24,menu_TestModulePattern
	mov r25,r24
	com r25
	ldd r24,Z+1
	and r24,r25
	std Z+1,r24
	.loc 1 703 0
	ldi r24,lo8(30)
	call lcd_goto
.LVL673:
	.loc 1 704 0
	lds r24,menu_TestModuleBitCounter
	call lcd_dec2out
.LVL674:
.LBB100:
	.loc 1 706 0
	in r25,__SREG__
.LVL675:
.LBB101:
.LBB102:
	.loc 2 50 0
/* #APP */
 ;  50 "c:\program files (x86)\atmel\studio\7.0\toolchain\avr8\avr8-gnu-toolchain\avr\include\util\atomic.h" 1
	cli
 ;  0 "" 2
/* #NOAPP */
.LBE102:
.LBE101:
	.loc 1 706 0
	ldi r24,lo8(1)
	rjmp .L435
.LVL676:
.L436:
	.loc 1 706 0 discriminator 3
	ldi r30,lo8(swTimer)
	ldi r31,hi8(swTimer)
	ldi r24,lo8(8)
.LVL677:
	std Z+12,r24
	std Z+13,__zero_reg__
.LVL678:
	.loc 1 706 0 discriminator 3
	ldi r24,0
.LVL679:
.L435:
	.loc 1 706 0 is_stmt 0 discriminator 1
	cpse r24,__zero_reg__
	rjmp .L436
.LVL680:
.LBB103:
.LBB104:
	.loc 2 70 0 is_stmt 1
	out __SREG__,r25
	.loc 2 71 0
.LVL681:
.LBE104:
.LBE103:
.LBE100:
	ret
.LVL682:
.L434:
	.loc 1 707 0
	cpi r30,lo8(32)
	brne .L423
	.loc 1 709 0
	lds r24,menu_TestModuleErrorList
	lds r25,menu_TestModuleErrorList+1
	lds r26,menu_TestModuleErrorList+2
	lds r27,menu_TestModuleErrorList+3
	sbiw r24,0
	cpc r26,__zero_reg__
	cpc r27,__zero_reg__
	brne .L438
	.loc 1 710 0
	ldi r24,lo8(menuMessageOK)
	ldi r25,hi8(menuMessageOK)
	call displayMenuMessage_P
.LVL683:
	rjmp .L439
.L438:
	.loc 1 712 0
	sts editLong,r24
	sts editLong+1,r25
	sts editLong+2,r26
	sts editLong+3,r27
	.loc 1 713 0
	ldi r24,lo8(menuMessageE)
	ldi r25,hi8(menuMessageE)
	call displayMenuMessage_P
.LVL684:
	call lcd_goto
.LVL685:
	.loc 1 714 0
	call lcd_longout
.LVL686:
.L439:
	.loc 1 716 0
	ldi r24,lo8(-2)
	sts menu_TestModuleBitCounter,r24
.LBB105:
	.loc 1 717 0
	in r25,__SREG__
.LVL687:
.LBB106:
.LBB107:
	.loc 2 50 0
/* #APP */
 ;  50 "c:\program files (x86)\atmel\studio\7.0\toolchain\avr8\avr8-gnu-toolchain\avr\include\util\atomic.h" 1
	cli
 ;  0 "" 2
/* #NOAPP */
.LBE107:
.LBE106:
	.loc 1 717 0
	ldi r24,lo8(1)
	rjmp .L440
.LVL688:
.L441:
	.loc 1 717 0 discriminator 3
	ldi r30,lo8(swTimer)
	ldi r31,hi8(swTimer)
	ldi r24,lo8(2)
.LVL689:
	std Z+12,r24
	std Z+13,r24
.LVL690:
	.loc 1 717 0 discriminator 3
	ldi r24,0
.LVL691:
.L440:
	.loc 1 717 0 is_stmt 0 discriminator 1
	cpse r24,__zero_reg__
	rjmp .L441
.LVL692:
.LBB108:
.LBB109:
	.loc 2 70 0 is_stmt 1
	out __SREG__,r25
	.loc 2 71 0
.LVL693:
.LBE109:
.LBE108:
.LBE105:
	.loc 1 718 0
	call menuCursorSetMenu
.LVL694:
.L423:
	ret
	.cfi_endproc
.LFE43:
	.size	menu_ModuleTestExecute, .-menu_ModuleTestExecute
	.section	.text.menu_ModuleTestPattern,"ax",@progbits
.global	menu_ModuleTestPattern
	.type	menu_ModuleTestPattern, @function
menu_ModuleTestPattern:
.LFB42:
	.loc 1 648 0
	.cfi_startproc
.LVL695:
/* prologue: function */
/* frame size = 0 */
/* stack size = 0 */
.L__stack_usage = 0
	.loc 1 650 0
	ldi r24,lo8(1)
	ldi r25,0
.LVL696:
	lds r0,menuVmodule
	rjmp 2f
	1:
	lsl r24
	rol r25
	2:
	dec r0
	brpl 1b
	sts menu_TestModulePattern,r24
	.loc 1 651 0
	ldi r24,lo8(-1)
	sts menu_TestModuleBitCounter,r24
	.loc 1 652 0
	sts menu_TestModuleErrorList,__zero_reg__
	sts menu_TestModuleErrorList+1,__zero_reg__
	sts menu_TestModuleErrorList+2,__zero_reg__
	sts menu_TestModuleErrorList+3,__zero_reg__
	.loc 1 653 0
	call menu_ModuleTestExecute
.LVL697:
	.loc 1 655 0
	ldi r24,0
	ret
	.cfi_endproc
.LFE42:
	.size	menu_ModuleTestPattern, .-menu_ModuleTestPattern
	.section	.text.menuLCDwriteOK,"ax",@progbits
.global	menuLCDwriteOK
	.type	menuLCDwriteOK, @function
menuLCDwriteOK:
.LFB65:
	.loc 1 1088 0
	.cfi_startproc
/* prologue: function */
/* frame size = 0 */
/* stack size = 0 */
.L__stack_usage = 0
	.loc 1 1089 0
	ldi r24,lo8(menuMessageOK)
	ldi r25,hi8(menuMessageOK)
	call displayMenuMessage_P
.LVL698:
	ret
	.cfi_endproc
.LFE65:
	.size	menuLCDwriteOK, .-menuLCDwriteOK
	.section	.text.menuOnEnterEEBackup,"ax",@progbits
.global	menuOnEnterEEBackup
	.type	menuOnEnterEEBackup, @function
menuOnEnterEEBackup:
.LFB66:
	.loc 1 1092 0
	.cfi_startproc
.LVL699:
/* prologue: function */
/* frame size = 0 */
/* stack size = 0 */
.L__stack_usage = 0
	.loc 1 1094 0
	ldi r24,lo8(30)
.LVL700:
	call lcd_goto
.LVL701:
	.loc 1 1095 0
	ldi r24,lo8(msg_programming1)
	ldi r25,hi8(msg_programming1)
	call lcd_puts_P
.LVL702:
	.loc 1 1096 0
	call eeprom_Backup
.LVL703:
	.loc 1 1097 0
	call menuLCDwriteOK
.LVL704:
	.loc 1 1099 0
	ldi r24,0
	ret
	.cfi_endproc
.LFE66:
	.size	menuOnEnterEEBackup, .-menuOnEnterEEBackup
	.section	.text.menuOnEnterEERestore,"ax",@progbits
.global	menuOnEnterEERestore
	.type	menuOnEnterEERestore, @function
menuOnEnterEERestore:
.LFB67:
	.loc 1 1101 0
	.cfi_startproc
.LVL705:
/* prologue: function */
/* frame size = 0 */
/* stack size = 0 */
.L__stack_usage = 0
	.loc 1 1103 0
	ldi r24,lo8(30)
.LVL706:
	call lcd_goto
.LVL707:
	.loc 1 1104 0
	ldi r24,lo8(msg_programming1)
	ldi r25,hi8(msg_programming1)
	call lcd_puts_P
.LVL708:
	.loc 1 1105 0
	call eeprom_Restore
.LVL709:
	.loc 1 1106 0
	call menuLCDwriteOK
.LVL710:
	.loc 1 1108 0
	ldi r24,0
	ret
	.cfi_endproc
.LFE67:
	.size	menuOnEnterEERestore, .-menuOnEnterEERestore
	.section	.text.menuOnEnterEEUpdate,"ax",@progbits
.global	menuOnEnterEEUpdate
	.type	menuOnEnterEEUpdate, @function
menuOnEnterEEUpdate:
.LFB68:
	.loc 1 1110 0
	.cfi_startproc
.LVL711:
/* prologue: function */
/* frame size = 0 */
/* stack size = 0 */
.L__stack_usage = 0
	.loc 1 1112 0
	ldi r24,lo8(msg_programming1)
	ldi r25,hi8(msg_programming1)
.LVL712:
	call displayMenuMessage_P
.LVL713:
	.loc 1 1113 0
	ldi r24,lo8(30)
	call lcd_goto
.LVL714:
	.loc 1 1114 0
	call eeprom_UpdateALL
.LVL715:
	.loc 1 1115 0
	call menuLCDwriteOK
.LVL716:
	.loc 1 1117 0
	ldi r24,0
	ret
	.cfi_endproc
.LFE68:
	.size	menuOnEnterEEUpdate, .-menuOnEnterEEUpdate
	.section	.text.menudeleteMainMessage,"ax",@progbits
.global	menudeleteMainMessage
	.type	menudeleteMainMessage, @function
menudeleteMainMessage:
.LFB107:
	.loc 1 2281 0
	.cfi_startproc
	push r28
.LCFI60:
	.cfi_def_cfa_offset 4
	.cfi_offset 28, -3
/* prologue: function */
/* frame size = 0 */
/* stack size = 1 */
.L__stack_usage = 1
	.loc 1 2282 0
	lds r28,lcd_cursorPos
.LVL717:
	.loc 1 2283 0
	ldi r24,lo8(64)
	call lcd_goto
.LVL718:
	.loc 1 2284 0
	ldi r24,lo8(20)
	call lcd_blank
.LVL719:
	.loc 1 2285 0
	mov r24,r28
	call lcd_goto
.LVL720:
/* epilogue start */
	.loc 1 2286 0
	pop r28
.LVL721:
	ret
	.cfi_endproc
.LFE107:
	.size	menudeleteMainMessage, .-menudeleteMainMessage
	.section	.text.menu_deleteMessage,"ax",@progbits
.global	menu_deleteMessage
	.type	menu_deleteMessage, @function
menu_deleteMessage:
.LFB108:
	.loc 1 2288 0
	.cfi_startproc
/* prologue: function */
/* frame size = 0 */
/* stack size = 0 */
.L__stack_usage = 0
	.loc 1 2289 0
	lds r24,displayMessageArea
	cpse r24,__zero_reg__
	rjmp .L449
	.loc 1 2290 0
	call menuClearExtraDisp
.LVL722:
	ret
.L449:
	.loc 1 2291 0
	cpi r24,lo8(1)
	brne .L451
	.loc 1 2292 0
	call menu_ClearDataDisp
.LVL723:
	ret
.L451:
	.loc 1 2294 0
	call menudeleteMainMessage
.LVL724:
	ret
	.cfi_endproc
.LFE108:
	.size	menu_deleteMessage, .-menu_deleteMessage
	.section	.text.menu_DisplayMainMessage_P,"ax",@progbits
.global	menu_DisplayMainMessage_P
	.type	menu_DisplayMainMessage_P, @function
menu_DisplayMainMessage_P:
.LFB109:
	.loc 1 2298 0
	.cfi_startproc
.LVL725:
	push r16
.LCFI61:
	.cfi_def_cfa_offset 4
	.cfi_offset 16, -3
	push r17
.LCFI62:
	.cfi_def_cfa_offset 5
	.cfi_offset 17, -4
	push r28
.LCFI63:
	.cfi_def_cfa_offset 6
	.cfi_offset 28, -5
	push r29
.LCFI64:
	.cfi_def_cfa_offset 7
	.cfi_offset 29, -6
/* prologue: function */
/* frame size = 0 */
/* stack size = 4 */
.L__stack_usage = 4
	movw r28,r24
	.loc 1 2299 0
	lds r17,lcd_cursorPos
.LVL726:
	.loc 1 2300 0
	call get_StrLenP
.LVL727:
	mov r16,r24
.LVL728:
	.loc 1 2301 0
	ldi r24,lo8(64)
	call lcd_goto
.LVL729:
	.loc 1 2302 0
	ldi r24,lo8(20)
	ldi r25,0
	sub r24,r16
	sbc r25,__zero_reg__
	asr r25
	ror r24
	call lcd_blank
.LVL730:
	.loc 1 2303 0
	movw r24,r28
	call lcd_puts_P
.LVL731:
	.loc 1 2304 0
	lds r25,lcd_cursorPos
	ldi r24,lo8(84)
	sub r24,r25
	call lcd_blank
.LVL732:
	.loc 1 2305 0
	mov r24,r17
	call lcd_goto
.LVL733:
.LBB110:
	.loc 1 2306 0
	in r25,__SREG__
.LVL734:
.LBB111:
.LBB112:
	.loc 2 50 0
/* #APP */
 ;  50 "c:\program files (x86)\atmel\studio\7.0\toolchain\avr8\avr8-gnu-toolchain\avr\include\util\atomic.h" 1
	cli
 ;  0 "" 2
/* #NOAPP */
.LBE112:
.LBE111:
	.loc 1 2306 0
	ldi r24,lo8(1)
	rjmp .L453
.LVL735:
.L454:
	.loc 1 2306 0 discriminator 3
	ldi r30,lo8(swTimer)
	ldi r31,hi8(swTimer)
	ldi r24,lo8(100)
.LVL736:
	std Z+14,r24
	std Z+15,__zero_reg__
.LVL737:
	.loc 1 2306 0 discriminator 3
	ldi r24,0
.LVL738:
.L453:
	.loc 1 2306 0 is_stmt 0 discriminator 1
	cpse r24,__zero_reg__
	rjmp .L454
.LVL739:
.LBB113:
.LBB114:
	.loc 2 70 0 is_stmt 1
	out __SREG__,r25
	.loc 2 71 0
.LVL740:
.LBE114:
.LBE113:
.LBE110:
	.loc 1 2307 0
	ldi r24,lo8(2)
.LVL741:
	sts displayMessageArea,r24
/* epilogue start */
	.loc 1 2308 0
	pop r29
	pop r28
.LVL742:
	pop r17
.LVL743:
	pop r16
.LVL744:
	ret
	.cfi_endproc
.LFE109:
	.size	menu_DisplayMainMessage_P, .-menu_DisplayMainMessage_P
	.section	.text.menu_DisplayMainMessage,"ax",@progbits
.global	menu_DisplayMainMessage
	.type	menu_DisplayMainMessage, @function
menu_DisplayMainMessage:
.LFB110:
	.loc 1 2310 0
	.cfi_startproc
.LVL745:
	push r16
.LCFI65:
	.cfi_def_cfa_offset 4
	.cfi_offset 16, -3
	push r17
.LCFI66:
	.cfi_def_cfa_offset 5
	.cfi_offset 17, -4
	push r28
.LCFI67:
	.cfi_def_cfa_offset 6
	.cfi_offset 28, -5
	push r29
.LCFI68:
	.cfi_def_cfa_offset 7
	.cfi_offset 29, -6
/* prologue: function */
/* frame size = 0 */
/* stack size = 4 */
.L__stack_usage = 4
	movw r28,r24
	.loc 1 2311 0
	lds r17,lcd_cursorPos
.LVL746:
	.loc 1 2312 0
	call get_StrLen
.LVL747:
	mov r16,r24
.LVL748:
	.loc 1 2313 0
	ldi r24,lo8(64)
	call lcd_goto
.LVL749:
	.loc 1 2314 0
	ldi r24,lo8(20)
	ldi r25,0
	sub r24,r16
	sbc r25,__zero_reg__
	asr r25
	ror r24
	call lcd_blank
.LVL750:
	.loc 1 2315 0
	movw r24,r28
	call lcd_puts
.LVL751:
	.loc 1 2316 0
	lds r25,lcd_cursorPos
	ldi r24,lo8(84)
	sub r24,r25
	call lcd_blank
.LVL752:
	.loc 1 2317 0
	mov r24,r17
	call lcd_goto
.LVL753:
.LBB115:
	.loc 1 2318 0
	in r25,__SREG__
.LVL754:
.LBB116:
.LBB117:
	.loc 2 50 0
/* #APP */
 ;  50 "c:\program files (x86)\atmel\studio\7.0\toolchain\avr8\avr8-gnu-toolchain\avr\include\util\atomic.h" 1
	cli
 ;  0 "" 2
/* #NOAPP */
.LBE117:
.LBE116:
	.loc 1 2318 0
	ldi r24,lo8(1)
	rjmp .L456
.LVL755:
.L457:
	.loc 1 2318 0 discriminator 3
	ldi r30,lo8(swTimer)
	ldi r31,hi8(swTimer)
	ldi r24,lo8(100)
.LVL756:
	std Z+14,r24
	std Z+15,__zero_reg__
.LVL757:
	.loc 1 2318 0 discriminator 3
	ldi r24,0
.LVL758:
.L456:
	.loc 1 2318 0 is_stmt 0 discriminator 1
	cpse r24,__zero_reg__
	rjmp .L457
.LVL759:
.LBB118:
.LBB119:
	.loc 2 70 0 is_stmt 1
	out __SREG__,r25
	.loc 2 71 0
.LVL760:
.LBE119:
.LBE118:
.LBE115:
	.loc 1 2319 0
	ldi r24,lo8(2)
.LVL761:
	sts displayMessageArea,r24
/* epilogue start */
	.loc 1 2320 0
	pop r29
	pop r28
.LVL762:
	pop r17
.LVL763:
	pop r16
.LVL764:
	ret
	.cfi_endproc
.LFE110:
	.size	menu_DisplayMainMessage, .-menu_DisplayMainMessage
	.section	.text.menuDisplaySaveMessage,"ax",@progbits
.global	menuDisplaySaveMessage
	.type	menuDisplaySaveMessage, @function
menuDisplaySaveMessage:
.LFB29:
	.loc 1 537 0
	.cfi_startproc
.LVL765:
/* prologue: function */
/* frame size = 0 */
/* stack size = 0 */
.L__stack_usage = 0
	.loc 1 539 0
	ldi r22,lo8(string_Buf)
	ldi r23,hi8(string_Buf)
	call putChar_Dec2
.LVL766:
	.loc 1 540 0
	movw r22,r24
	ldi r24,lo8(messageSaved)
	ldi r25,hi8(messageSaved)
.LVL767:
	call putString_P
.LVL768:
	.loc 1 541 0
	ldi r24,lo8(string_Buf)
	ldi r25,hi8(string_Buf)
	call menu_DisplayMainMessage
.LVL769:
	ret
	.cfi_endproc
.LFE29:
	.size	menuDisplaySaveMessage, .-menuDisplaySaveMessage
	.section	.text.menuDisplayLoadMessage,"ax",@progbits
.global	menuDisplayLoadMessage
	.type	menuDisplayLoadMessage, @function
menuDisplayLoadMessage:
.LFB30:
	.loc 1 544 0
	.cfi_startproc
.LVL770:
/* prologue: function */
/* frame size = 0 */
/* stack size = 0 */
.L__stack_usage = 0
	.loc 1 546 0
	ldi r22,lo8(string_Buf)
	ldi r23,hi8(string_Buf)
	call putChar_Dec2
.LVL771:
	.loc 1 547 0
	movw r22,r24
	ldi r24,lo8(messageLoaded)
	ldi r25,hi8(messageLoaded)
.LVL772:
	call putString_P
.LVL773:
	.loc 1 548 0
	ldi r24,lo8(string_Buf)
	ldi r25,hi8(string_Buf)
	call menu_DisplayMainMessage
.LVL774:
	ret
	.cfi_endproc
.LFE30:
	.size	menuDisplayLoadMessage, .-menuDisplayLoadMessage
	.section	.text.softKeyK1A,"ax",@progbits
.global	softKeyK1A
	.type	softKeyK1A, @function
softKeyK1A:
.LFB31:
	.loc 1 551 0
	.cfi_startproc
.LVL775:
/* prologue: function */
/* frame size = 0 */
/* stack size = 0 */
.L__stack_usage = 0
	.loc 1 552 0
	tst r24
	brge .L461
	.loc 1 554 0
	ldi r22,lo8(-1)
	ldi r24,0
.LVL776:
	call register_toProgram
.LVL777:
	call menuDisplaySaveMessage
.LVL778:
	rjmp .L462
.LVL779:
.L461:
	.loc 1 555 0
	tst r24
	breq .L462
	.loc 1 556 0
	ldi r24,0
.LVL780:
	call program_toRegister
.LVL781:
	call menuDisplayLoadMessage
.LVL782:
.L462:
	.loc 1 559 0
	ldi r24,0
	ret
	.cfi_endproc
.LFE31:
	.size	softKeyK1A, .-softKeyK1A
	.section	.text.softKeyK2A,"ax",@progbits
.global	softKeyK2A
	.type	softKeyK2A, @function
softKeyK2A:
.LFB32:
	.loc 1 561 0
	.cfi_startproc
.LVL783:
/* prologue: function */
/* frame size = 0 */
/* stack size = 0 */
.L__stack_usage = 0
	.loc 1 562 0
	tst r24
	brge .L464
	.loc 1 564 0
	ldi r22,lo8(-1)
	ldi r24,lo8(1)
.LVL784:
	call register_toProgram
.LVL785:
	call menuDisplaySaveMessage
.LVL786:
	rjmp .L465
.LVL787:
.L464:
	.loc 1 565 0
	tst r24
	breq .L465
	.loc 1 566 0
	ldi r24,lo8(1)
.LVL788:
	call program_toRegister
.LVL789:
	call menuDisplayLoadMessage
.LVL790:
.L465:
	.loc 1 569 0
	ldi r24,0
	ret
	.cfi_endproc
.LFE32:
	.size	softKeyK2A, .-softKeyK2A
	.section	.text.softKeyK3A,"ax",@progbits
.global	softKeyK3A
	.type	softKeyK3A, @function
softKeyK3A:
.LFB33:
	.loc 1 571 0
	.cfi_startproc
.LVL791:
/* prologue: function */
/* frame size = 0 */
/* stack size = 0 */
.L__stack_usage = 0
	.loc 1 572 0
	tst r24
	brge .L467
	.loc 1 574 0
	ldi r22,lo8(-1)
	ldi r24,lo8(2)
.LVL792:
	call register_toProgram
.LVL793:
	call menuDisplaySaveMessage
.LVL794:
	rjmp .L468
.LVL795:
.L467:
	.loc 1 575 0
	tst r24
	breq .L468
	.loc 1 576 0
	ldi r24,lo8(2)
.LVL796:
	call program_toRegister
.LVL797:
	call menuDisplayLoadMessage
.LVL798:
.L468:
	.loc 1 579 0
	ldi r24,0
	ret
	.cfi_endproc
.LFE33:
	.size	softKeyK3A, .-softKeyK3A
	.section	.text.softKeyK4A,"ax",@progbits
.global	softKeyK4A
	.type	softKeyK4A, @function
softKeyK4A:
.LFB34:
	.loc 1 581 0
	.cfi_startproc
.LVL799:
/* prologue: function */
/* frame size = 0 */
/* stack size = 0 */
.L__stack_usage = 0
	.loc 1 582 0
	tst r24
	brge .L470
	.loc 1 584 0
	ldi r22,lo8(-1)
	ldi r24,lo8(3)
.LVL800:
	call register_toProgram
.LVL801:
	call menuDisplaySaveMessage
.LVL802:
	rjmp .L471
.LVL803:
.L470:
	.loc 1 585 0
	tst r24
	breq .L471
	.loc 1 586 0
	ldi r24,lo8(3)
.LVL804:
	call program_toRegister
.LVL805:
	call menuDisplayLoadMessage
.LVL806:
.L471:
	.loc 1 589 0
	ldi r24,0
	ret
	.cfi_endproc
.LFE34:
	.size	softKeyK4A, .-softKeyK4A
	.section	.text.SoftKeyFunctionOK,"ax",@progbits
.global	SoftKeyFunctionOK
	.type	SoftKeyFunctionOK, @function
SoftKeyFunctionOK:
.LFB111:
	.loc 1 2326 0
	.cfi_startproc
.LVL807:
/* prologue: function */
/* frame size = 0 */
/* stack size = 0 */
.L__stack_usage = 0
	movw r20,r24
.LVL808:
.LBB120:
	.loc 1 2329 0
	ldi r25,0
	rjmp .L473
.LVL809:
.L475:
	.loc 1 2330 0
	ldi r24,lo8(20)
	mul r25,r24
	movw r30,r0
	clr __zero_reg__
	subi r30,lo8(-(menu_selFunc+16))
	sbci r31,hi8(-(menu_selFunc+16))
	lpm r18,Z+
	lpm r19,Z+
	cp r18,r20
	cpc r19,r21
	breq .L476
	.loc 1 2329 0 discriminator 2
	subi r25,lo8(-(1))
.LVL810:
.L473:
	.loc 1 2329 0 is_stmt 0 discriminator 1
	cpi r25,lo8(21)
	brlo .L475
.LBE120:
	.loc 1 2334 0 is_stmt 1
	ldi r24,0
.LBB121:
	ret
.L476:
	.loc 1 2331 0
	ldi r24,lo8(-1)
.LBE121:
	.loc 1 2335 0
	ret
	.cfi_endproc
.LFE111:
	.size	SoftKeyFunctionOK, .-SoftKeyFunctionOK
	.section	.text.getSoftKeyIndex,"ax",@progbits
.global	getSoftKeyIndex
	.type	getSoftKeyIndex, @function
getSoftKeyIndex:
.LFB112:
	.loc 1 2338 0
	.cfi_startproc
.LVL811:
/* prologue: function */
/* frame size = 0 */
/* stack size = 0 */
.L__stack_usage = 0
	.loc 1 2339 0
	ldi r18,0
.LVL812:
.L479:
	.loc 1 2341 0
	ldi r19,hi8(menu_selFunc)
	cpi r24,lo8(menu_selFunc)
	cpc r25,r19
	breq .L480
	.loc 1 2343 0
	ldi r19,hi8(menu_selFunc)
	cpi r24,lo8(menu_selFunc)
	cpc r25,r19
	brlo .L481
	.loc 1 2346 0
	sbiw r24,20
.LVL813:
	.loc 1 2347 0
	subi r18,lo8(-(1))
.LVL814:
	.loc 1 2348 0
	brne .L479
	.loc 1 2349 0
	ldi r24,0
.LVL815:
	ret
.LVL816:
.L480:
	.loc 1 2342 0
	mov r24,r18
.LVL817:
	ret
.LVL818:
.L481:
	.loc 1 2344 0
	ldi r24,0
.LVL819:
	.loc 1 2350 0
	ret
	.cfi_endproc
.LFE112:
	.size	getSoftKeyIndex, .-getSoftKeyIndex
	.section	.text.init_SoftKeys,"ax",@progbits
.global	init_SoftKeys
	.type	init_SoftKeys, @function
init_SoftKeys:
.LFB113:
	.loc 1 2352 0
	.cfi_startproc
	push r28
.LCFI69:
	.cfi_def_cfa_offset 4
	.cfi_offset 28, -3
/* prologue: function */
/* frame size = 0 */
/* stack size = 1 */
.L__stack_usage = 1
	.loc 1 2353 0
	call eeprom_ReadSoftkeys
.LVL820:
	cpi r24,lo8(-1)
	brne .L484
	rjmp .L490
.LVL821:
.L485:
.LBB122:
	.loc 1 2356 0 discriminator 3
	mov r24,r18
	ldi r25,0
	movw r30,r24
	subi r30,lo8(-(soft_KeyMenuIndex))
	sbci r31,hi8(-(soft_KeyMenuIndex))
	st Z,__zero_reg__
	.loc 1 2357 0 discriminator 3
	lsl r24
	rol r25
	movw r30,r24
	subi r30,lo8(-(soft_KeyMenu))
	sbci r31,hi8(-(soft_KeyMenu))
	std Z+1,__zero_reg__
	st Z,__zero_reg__
	.loc 1 2355 0 discriminator 3
	subi r18,lo8(-(1))
.LVL822:
	rjmp .L483
.LVL823:
.L490:
.LBE122:
	ldi r18,0
.L483:
.LVL824:
.LBB123:
	.loc 1 2355 0 is_stmt 0 discriminator 1
	cpi r18,lo8(4)
	brlo .L485
.LBE123:
	.loc 1 2360 0 is_stmt 1
	ldi r20,0
	ldi r21,0
	ldi r22,lo8(7)
	ldi r24,lo8(1)
	call log_putError
.LVL825:
.L484:
	ldi r28,0
	rjmp .L486
.LVL826:
.L489:
.LBB124:
.LBB125:
	.loc 1 2364 0
	mov r20,r28
	ldi r21,0
	movw r30,r20
	subi r30,lo8(-(soft_KeyMenuIndex))
	sbci r31,hi8(-(soft_KeyMenuIndex))
	ld r24,Z
	cpi r24,lo8(21)
	brsh .L487
.LVL827:
	.loc 1 2366 0
	ldi r18,lo8(20)
	mul r24,r18
	movw r24,r0
	clr __zero_reg__
	subi r24,lo8(-(menu_selFunc))
	sbci r25,hi8(-(menu_selFunc))
	lsl r20
	rol r21
.LVL828:
	movw r30,r20
	subi r30,lo8(-(soft_KeyMenu))
	sbci r31,hi8(-(soft_KeyMenu))
	std Z+1,r25
	st Z,r24
	rjmp .L488
.LVL829:
.L487:
	.loc 1 2368 0
	movw r30,r20
	lsl r30
	rol r31
	subi r30,lo8(-(soft_KeyMenu))
	sbci r31,hi8(-(soft_KeyMenu))
	std Z+1,__zero_reg__
	st Z,__zero_reg__
	.loc 1 2369 0
	subi r20,-1
	sbci r21,-1
.LVL830:
	ori r20,16
	ldi r22,lo8(7)
	ldi r24,lo8(1)
	call log_putError
.LVL831:
.L488:
.LBE125:
	.loc 1 2362 0 discriminator 2
	subi r28,lo8(-(1))
.LVL832:
.L486:
	.loc 1 2362 0 is_stmt 0 discriminator 1
	cpi r28,lo8(4)
	brlo .L489
/* epilogue start */
.LBE124:
	.loc 1 2372 0 is_stmt 1
	pop r28
.LVL833:
	ret
	.cfi_endproc
.LFE113:
	.size	init_SoftKeys, .-init_SoftKeys
	.section	.text.softKey_Set,"ax",@progbits
.global	softKey_Set
	.type	softKey_Set, @function
softKey_Set:
.LFB114:
	.loc 1 2374 0
	.cfi_startproc
.LVL834:
	push r28
.LCFI70:
	.cfi_def_cfa_offset 4
	.cfi_offset 28, -3
	push r29
.LCFI71:
	.cfi_def_cfa_offset 5
	.cfi_offset 29, -4
/* prologue: function */
/* frame size = 0 */
/* stack size = 2 */
.L__stack_usage = 2
	.loc 1 2375 0
	cpi r22,lo8(4)
	brsh .L491
	.loc 1 2376 0
	sbiw r24,0
	breq .L493
	.loc 1 2376 0 discriminator 1
	movw r30,r24
	lpm r18,Z
	andi r18,lo8(63)
	cpi r18,lo8(1)
	brne .L493
	.loc 1 2376 0 is_stmt 0 discriminator 2
	adiw r30,1
	lpm r18,Z
	sbrs r18,4
	rjmp .L493
	.loc 1 2377 0 is_stmt 1
	mov r28,r22
	ldi r29,0
	movw r30,r28
	lsl r30
	rol r31
	subi r30,lo8(-(soft_KeyMenu))
	sbci r31,hi8(-(soft_KeyMenu))
	std Z+1,r25
	st Z,r24
	.loc 1 2378 0
	call getSoftKeyIndex
.LVL835:
	subi r28,lo8(-(soft_KeyMenuIndex))
	sbci r29,hi8(-(soft_KeyMenuIndex))
.LVL836:
	st Y,r24
	rjmp .L491
.LVL837:
.L493:
	.loc 1 2380 0
	ldi r23,0
	movw r30,r22
	lsl r30
	rol r31
	subi r30,lo8(-(soft_KeyMenu))
	sbci r31,hi8(-(soft_KeyMenu))
	std Z+1,__zero_reg__
	st Z,__zero_reg__
	.loc 1 2381 0
	movw r30,r22
	subi r30,lo8(-(soft_KeyMenuIndex))
	sbci r31,hi8(-(soft_KeyMenuIndex))
	st Z,__zero_reg__
.LVL838:
.L491:
/* epilogue start */
	.loc 1 2384 0
	pop r29
	pop r28
	ret
	.cfi_endproc
.LFE114:
	.size	softKey_Set, .-softKey_Set
	.section	.text.menuOnExitKey,"ax",@progbits
.global	menuOnExitKey
	.type	menuOnExitKey, @function
menuOnExitKey:
.LFB55:
	.loc 1 832 0
	.cfi_startproc
.LVL839:
/* prologue: function */
/* frame size = 0 */
/* stack size = 0 */
.L__stack_usage = 0
	.loc 1 835 0
	lds r30,currentMenu
	lds r31,currentMenu+1
	adiw r30,14
	lpm r22,Z+
	lpm r23,Z+
.LVL840:
	.loc 1 836 0
	lds r24,menuVMenuSoftKey
	lds r25,menuVMenuSoftKey+1
.LVL841:
	call softKey_Set
.LVL842:
	.loc 1 837 0
	call eeprom_UpdateSoftkeys
.LVL843:
	.loc 1 839 0
	ldi r24,0
	ret
	.cfi_endproc
.LFE55:
	.size	menuOnExitKey, .-menuOnExitKey
	.section	.text.softKeys_toLCD,"ax",@progbits
.global	softKeys_toLCD
	.type	softKeys_toLCD, @function
softKeys_toLCD:
.LFB115:
	.loc 1 2386 0
	.cfi_startproc
	push r16
.LCFI72:
	.cfi_def_cfa_offset 4
	.cfi_offset 16, -3
	push r17
.LCFI73:
	.cfi_def_cfa_offset 5
	.cfi_offset 17, -4
	push r28
.LCFI74:
	.cfi_def_cfa_offset 6
	.cfi_offset 28, -5
/* prologue: function */
/* frame size = 0 */
/* stack size = 3 */
.L__stack_usage = 3
.LVL844:
.LBB126:
	.loc 1 2387 0
	ldi r28,0
	rjmp .L496
.LVL845:
.L501:
	.loc 1 2388 0
	mov r16,r28
	ldi r17,0
	movw r30,r16
	lsl r30
	rol r31
	subi r30,lo8(-(soft_KeyMenu))
	sbci r31,hi8(-(soft_KeyMenu))
	ld __tmp_reg__,Z+
	ld r31,Z
	mov r30,__tmp_reg__
	sbiw r30,0
	breq .L497
.LVL846:
	.loc 1 2388 0 discriminator 1
	adiw r30,14
	lpm r22,Z+
	lpm r23,Z+
	cp r22,__zero_reg__
	cpc r23,__zero_reg__
	brne .L498
.L497:
	.loc 1 2389 0
	mov r24,r28
	call keylabel_clr
.LVL847:
	rjmp .L499
.L498:
	.loc 1 2391 0
	mov r24,r28
	call keylabel_set
.LVL848:
	.loc 1 2392 0
	lsl r16
	rol r17
.LVL849:
	movw r30,r16
	subi r30,lo8(-(soft_KeyMenu))
	sbci r31,hi8(-(soft_KeyMenu))
	ld __tmp_reg__,Z+
	ld r31,Z
	mov r30,__tmp_reg__
	adiw r30,16
	lpm r0,Z+
	lpm r31,Z
	mov r30,r0
	sbiw r30,0
	breq .L499
	.loc 1 2394 0
	ldi r24,0
	eicall
.LVL850:
	cpi r24,lo8(-127)
	brne .L502
	ldi r22,lo8(-1)
	rjmp .L500
.L502:
	ldi r22,0
.L500:
	.loc 1 2394 0 is_stmt 0 discriminator 4
	mov r24,r28
	call keylabel_statcheck
.LVL851:
.L499:
	.loc 1 2387 0 is_stmt 1 discriminator 2
	subi r28,lo8(-(1))
.LVL852:
.L496:
	.loc 1 2387 0 is_stmt 0 discriminator 1
	cpi r28,lo8(4)
	brlo .L501
.LBE126:
	.loc 1 2398 0 is_stmt 1
	call keylabel_toLCD
.LVL853:
/* epilogue start */
	.loc 1 2399 0
	pop r28
.LVL854:
	pop r17
	pop r16
	ret
	.cfi_endproc
.LFE115:
	.size	softKeys_toLCD, .-softKeys_toLCD
	.section	.text.softKey_MessageKey_ToSoftKeyNr,"ax",@progbits
.global	softKey_MessageKey_ToSoftKeyNr
	.type	softKey_MessageKey_ToSoftKeyNr, @function
softKey_MessageKey_ToSoftKeyNr:
.LFB116:
	.loc 1 2401 0
	.cfi_startproc
.LVL855:
/* prologue: function */
/* frame size = 0 */
/* stack size = 0 */
.L__stack_usage = 0
	.loc 1 2402 0
	cpi r24,lo8(2)
	breq .L505
	brsh .L506
	cpi r24,lo8(1)
	breq .L507
	rjmp .L504
.L506:
	cpi r24,lo8(3)
	breq .L510
	cpi r24,lo8(4)
	breq .L509
	rjmp .L504
.L505:
	.loc 1 2404 0
	ldi r24,0
.LVL856:
	ret
.LVL857:
.L509:
	.loc 1 2408 0
	ldi r24,lo8(2)
.LVL858:
	ret
.LVL859:
.L507:
	.loc 1 2410 0
	ldi r24,lo8(3)
.LVL860:
	ret
.LVL861:
.L504:
	.loc 1 2412 0
	ldi r24,lo8(-1)
.LVL862:
	ret
.LVL863:
.L510:
	.loc 1 2406 0
	ldi r24,lo8(1)
.LVL864:
	.loc 1 2413 0
	ret
	.cfi_endproc
.LFE116:
	.size	softKey_MessageKey_ToSoftKeyNr, .-softKey_MessageKey_ToSoftKeyNr
	.section	.text.softKey_Execute,"ax",@progbits
.global	softKey_Execute
	.type	softKey_Execute, @function
softKey_Execute:
.LFB117:
	.loc 1 2415 0
	.cfi_startproc
.LVL865:
	push r16
.LCFI75:
	.cfi_def_cfa_offset 4
	.cfi_offset 16, -3
	push r17
.LCFI76:
	.cfi_def_cfa_offset 5
	.cfi_offset 17, -4
	push r28
.LCFI77:
	.cfi_def_cfa_offset 6
	.cfi_offset 28, -5
/* prologue: function */
/* frame size = 0 */
/* stack size = 3 */
.L__stack_usage = 3
	.loc 1 2417 0
	cpi r24,lo8(4)
	brsh .L516
.LBB127:
	.loc 1 2419 0
	mov r30,r24
	ldi r31,0
	lsl r30
	rol r31
	subi r30,lo8(-(soft_KeyMenu))
	sbci r31,hi8(-(soft_KeyMenu))
	ld r16,Z
	ldd r17,Z+1
.LVL866:
	.loc 1 2420 0
	cp r16,__zero_reg__
	cpc r17,__zero_reg__
	breq .L517
	.loc 1 2422 0
	movw r30,r16
	lpm r25,Z
	andi r25,lo8(63)
	cpi r25,lo8(1)
	brne .L518
	.loc 1 2422 0 is_stmt 0 discriminator 1
	adiw r30,1
	lpm r25,Z
	sbrs r25,4
	rjmp .L519
	mov r28,r24
.LBB128:
	.loc 1 2423 0 is_stmt 1
	adiw r30,15
	lpm r0,Z+
	lpm r31,Z
	mov r30,r0
	sbiw r30,0
	breq .L513
.LBB129:
	.loc 1 2426 0
	mov r24,r22
.LVL867:
	eicall
.LVL868:
	.loc 1 2428 0
	cpi r24,lo8(-126)
	brne .L514
	.loc 1 2429 0
	ldi r22,0
	mov r24,r28
.LVL869:
	call keylabel_statcheck
.LVL870:
	rjmp .L515
.LVL871:
.L514:
	.loc 1 2430 0
	cpi r24,lo8(-127)
	brne .L515
	.loc 1 2431 0
	ldi r22,lo8(-1)
	mov r24,r28
.LVL872:
	call keylabel_statcheck
.LVL873:
.L515:
	.loc 1 2433 0
	call keylabel_toLCD
.LVL874:
.L513:
.LBE129:
	.loc 1 2436 0
	movw r30,r16
	adiw r30,12
	lpm r24,Z+
	lpm r25,Z+
.LVL875:
	.loc 1 2437 0
	sbiw r24,0
	breq .L520
	.loc 1 2439 0
	movw r22,r16
	subi r22,-2
	sbci r23,-1
	call menu_Init
.LVL876:
	.loc 1 2440 0
	call menu_InitLCD
.LVL877:
	.loc 1 2441 0
	ldi r24,0
	rjmp .L512
.LVL878:
.L516:
.LBE128:
.LBE127:
	.loc 1 2446 0
	ldi r24,lo8(-1)
.LVL879:
	rjmp .L512
.LVL880:
.L517:
	ldi r24,lo8(-1)
.LVL881:
	rjmp .L512
.LVL882:
.L518:
	ldi r24,lo8(-1)
.LVL883:
	rjmp .L512
.LVL884:
.L519:
	ldi r24,lo8(-1)
.LVL885:
	rjmp .L512
.LVL886:
.L520:
	ldi r24,lo8(-1)
.LVL887:
.L512:
/* epilogue start */
	.loc 1 2447 0
	pop r28
	pop r17
	pop r16
	ret
	.cfi_endproc
.LFE117:
	.size	softKey_Execute, .-softKey_Execute
	.section	.text.menu_showPowerState,"ax",@progbits
.global	menu_showPowerState
	.type	menu_showPowerState, @function
menu_showPowerState:
.LFB118:
	.loc 1 2451 0
	.cfi_startproc
	push r28
.LCFI78:
	.cfi_def_cfa_offset 4
	.cfi_offset 28, -3
/* prologue: function */
/* frame size = 0 */
/* stack size = 1 */
.L__stack_usage = 1
	.loc 1 2452 0
	lds r28,lcd_cursorPos
.LVL888:
	.loc 1 2453 0
	ldi r24,lo8(12)
	call lcd_goto
.LVL889:
	.loc 1 2454 0
	lds r24,pipe_PowerStatus
	sbrs r24,4
	rjmp .L523
	ldi r24,lo8(32)
	rjmp .L522
.L523:
	ldi r24,lo8(9)
.L522:
	.loc 1 2454 0 is_stmt 0 discriminator 4
	call lcd_putc
.LVL890:
	.loc 1 2455 0 is_stmt 1 discriminator 4
	mov r24,r28
	call lcd_goto
.LVL891:
/* epilogue start */
	.loc 1 2457 0 discriminator 4
	pop r28
.LVL892:
	ret
	.cfi_endproc
.LFE118:
	.size	menu_showPowerState, .-menu_showPowerState
	.section	.text.menuOnEnterPwrOn,"ax",@progbits
.global	menuOnEnterPwrOn
	.type	menuOnEnterPwrOn, @function
menuOnEnterPwrOn:
.LFB37:
	.loc 1 607 0
	.cfi_startproc
.LVL893:
/* prologue: function */
/* frame size = 0 */
/* stack size = 0 */
.L__stack_usage = 0
	.loc 1 609 0
	in r24,0x5
.LVL894:
	ori r24,lo8(64)
	out 0x5,r24
	.loc 1 610 0
	ldi r24,lo8(19)
	sts pipe_PowerStatus,r24
	.loc 1 611 0
	call menu_showPowerState
.LVL895:
	.loc 1 613 0
	ldi r24,0
	ret
	.cfi_endproc
.LFE37:
	.size	menuOnEnterPwrOn, .-menuOnEnterPwrOn
	.section	.text.menuOnEnterPwrOff,"ax",@progbits
.global	menuOnEnterPwrOff
	.type	menuOnEnterPwrOff, @function
menuOnEnterPwrOff:
.LFB38:
	.loc 1 615 0
	.cfi_startproc
.LVL896:
/* prologue: function */
/* frame size = 0 */
/* stack size = 0 */
.L__stack_usage = 0
	.loc 1 617 0
	in r24,0x5
.LVL897:
	andi r24,lo8(-65)
	out 0x5,r24
	.loc 1 618 0
	sts pipe_PowerStatus,__zero_reg__
	.loc 1 619 0
	call menu_showPowerState
.LVL898:
	.loc 1 621 0
	ldi r24,0
	ret
	.cfi_endproc
.LFE38:
	.size	menuOnEnterPwrOff, .-menuOnEnterPwrOff
	.section	.text.menuOnEnterPwrRest,"ax",@progbits
.global	menuOnEnterPwrRest
	.type	menuOnEnterPwrRest, @function
menuOnEnterPwrRest:
.LFB39:
	.loc 1 623 0
	.cfi_startproc
.LVL899:
/* prologue: function */
/* frame size = 0 */
/* stack size = 0 */
.L__stack_usage = 0
	.loc 1 624 0
	in r24,0x5
.LVL900:
	andi r24,lo8(-65)
	out 0x5,r24
	.loc 1 626 0
	ldi r24,lo8(1)
	sts pipe_PowerStatus,r24
	.loc 1 627 0
	call menu_showPowerState
.LVL901:
.LBB130:
	.loc 1 628 0
	in r25,__SREG__
.LVL902:
.LBB131:
.LBB132:
	.loc 2 50 0
/* #APP */
 ;  50 "c:\program files (x86)\atmel\studio\7.0\toolchain\avr8\avr8-gnu-toolchain\avr\include\util\atomic.h" 1
	cli
 ;  0 "" 2
/* #NOAPP */
.LBE132:
.LBE131:
	.loc 1 628 0
	ldi r24,lo8(1)
	rjmp .L527
.LVL903:
.L528:
	.loc 1 628 0 discriminator 3
	ldi r30,lo8(swTimer)
	ldi r31,hi8(swTimer)
	ldi r24,lo8(40)
.LVL904:
	std Z+2,r24
	std Z+3,__zero_reg__
.LVL905:
	.loc 1 628 0 discriminator 3
	ldi r24,0
.LVL906:
.L527:
	.loc 1 628 0 is_stmt 0 discriminator 1
	cpse r24,__zero_reg__
	rjmp .L528
.LVL907:
.LBB133:
.LBB134:
	.loc 2 70 0 is_stmt 1
	out __SREG__,r25
	.loc 2 71 0
.LVL908:
.LBE134:
.LBE133:
.LBE130:
	.loc 1 630 0
	ret
	.cfi_endproc
.LFE39:
	.size	menuOnEnterPwrRest, .-menuOnEnterPwrRest
	.section	.bss.showText.2903,"aw",@nobits
	.type	showText.2903, @object
	.size	showText.2903, 1
showText.2903:
	.zero	1
	.section	.bss.logEntryNr.2902,"aw",@nobits
	.type	logEntryNr.2902, @object
	.size	logEntryNr.2902, 1
logEntryNr.2902:
	.zero	1
	.section	.bss.notOnOff.2861,"aw",@nobits
	.type	notOnOff.2861, @object
	.size	notOnOff.2861, 1
notOnOff.2861:
	.zero	1
	.section	.bss.maxManNote.2860,"aw",@nobits
	.type	maxManNote.2860, @object
	.size	maxManNote.2860, 1
maxManNote.2860:
	.zero	1
	.section	.bss.minManNote.2859,"aw",@nobits
	.type	minManNote.2859, @object
	.size	minManNote.2859, 1
minManNote.2859:
	.zero	1
.global	usbHWBits
	.section	.progmem.data.usbHWBits,"a",@progbits
	.type	usbHWBits, @object
	.size	usbHWBits, 7
usbHWBits:
	.string	",Bits:"
.global	usbHWmodule
	.section	.progmem.data.usbHWmodule,"a",@progbits
	.type	usbHWmodule, @object
	.size	usbHWmodule, 8
usbHWmodule:
	.string	"Module:"
.global	usbHWempty
	.section	.progmem.data.usbHWempty,"a",@progbits
	.type	usbHWempty, @object
	.size	usbHWempty, 6
usbHWempty:
	.string	"empty"
.global	usbHWRange
	.section	.progmem.data.usbHWRange,"a",@progbits
	.type	usbHWRange, @object
	.size	usbHWRange, 8
usbHWRange:
	.string	"Range: "
.global	usbHWManual
	.section	.progmem.data.usbHWManual,"a",@progbits
	.type	usbHWManual, @object
	.size	usbHWManual, 9
usbHWManual:
	.string	"Manual: "
.global	usbHWmodulCheck
	.section	.progmem.data.usbHWmodulCheck,"a",@progbits
	.type	usbHWmodulCheck, @object
	.size	usbHWmodulCheck, 18
usbHWmodulCheck:
	.string	"Modules checked: "
.global	usbHWmodulInst
	.section	.progmem.data.usbHWmodulInst,"a",@progbits
	.type	usbHWmodulInst, @object
	.size	usbHWmodulInst, 19
usbHWmodulInst:
	.string	"Modules assigned: "
.global	usbHWtitel
	.section	.progmem.data.usbHWtitel,"a",@progbits
	.type	usbHWtitel, @object
	.size	usbHWtitel, 25
usbHWtitel:
	.string	"Hardware Configuration\r\n"
.global	HelloMsg
	.section	.progmem.data.HelloMsg,"a",@progbits
	.type	HelloMsg, @object
	.size	HelloMsg, 25
HelloMsg:
	.string	"\r\nMIDI-Organ-Interface\r\n"
.global	usbLog
	.section	.progmem.data.usbLog,"a",@progbits
	.type	usbLog, @object
	.size	usbLog, 6
usbLog:
	.string	"Log\r\n"
.global	usbEmpty
	.section	.progmem.data.usbEmpty,"a",@progbits
	.type	usbEmpty, @object
	.size	usbEmpty, 8
usbEmpty:
	.string	"empty\r\n"
.global	msg_programming2
	.section	.progmem.data.msg_programming2,"a",@progbits
	.type	msg_programming2, @object
	.size	msg_programming2, 8
msg_programming2:
	.string	"ok     "
.global	msg_programming1
	.section	.progmem.data.msg_programming1,"a",@progbits
	.type	msg_programming1, @object
	.size	msg_programming1, 8
msg_programming1:
	.string	"save..."
.global	logNone
	.section	.progmem.data.logNone,"a",@progbits
	.type	logNone, @object
	.size	logNone, 7
logNone:
	.string	"<none>"
.global	stringNotAssigen
	.section	.progmem.data.stringNotAssigen,"a",@progbits
	.type	stringNotAssigen, @object
	.size	stringNotAssigen, 11
stringNotAssigen:
	.string	"unassigned"
.global	menuMessageE
	.section	.progmem.data.menuMessageE,"a",@progbits
	.type	menuMessageE, @object
	.size	menuMessageE, 3
menuMessageE:
	.string	"E:"
.global	menuMessageOK
	.section	.progmem.data.menuMessageOK,"a",@progbits
	.type	menuMessageOK, @object
	.size	menuMessageOK, 3
menuMessageOK:
	.string	"ok"
.global	menuMessageAbort
	.section	.progmem.data.menuMessageAbort,"a",@progbits
	.type	menuMessageAbort, @object
	.size	menuMessageAbort, 6
menuMessageAbort:
	.string	"abort"
.global	menuMessageMIDIpanic
	.section	.progmem.data.menuMessageMIDIpanic,"a",@progbits
	.type	menuMessageMIDIpanic, @object
	.size	menuMessageMIDIpanic, 15
menuMessageMIDIpanic:
	.string	"MIDI Noten aus"
.global	messageLoaded
	.section	.progmem.data.messageLoaded,"a",@progbits
	.type	messageLoaded, @object
	.size	messageLoaded, 14
messageLoaded:
	.string	" Reg. geladen"
.global	messageSaved
	.section	.progmem.data.messageSaved,"a",@progbits
	.type	messageSaved, @object
	.size	messageSaved, 18
messageSaved:
	.string	" Reg. gespeichert"
	.comm	soft_KeyMenu,8,1
	.comm	soft_KeyMenuIndex,4,1
	.comm	menuTestData,1,1
	.comm	menuTestModuleBit,1,1
	.comm	menuManual,1,1
	.comm	menuSection,1,1
	.comm	menuMidiChan,1,1
	.comm	menuNote,1,1
	.comm	menuModVal,4,1
	.comm	menuVSoftKey,1,1
	.comm	menuVMenuSoftKey,2,1
	.comm	displayMessageArea,1,1
	.comm	menuVRegisters,8,1
	.comm	menuVKombination,1,1
	.comm	menuVmodule,1,1
	.comm	menuVkey,1,1
	.comm	menuVmanual,1,1
	.comm	menuVsection,1,1
	.comm	menuVmidiChan,1,1
	.comm	pMenuTopTitle,2,1
	.comm	menu_TestModuleErrorList,4,1
	.comm	menu_TestModuleBitCounter,1,1
	.comm	menu_TestModulePattern,1,1
	.comm	pNibbleInfo,2,1
	.comm	dataType,1,1
	.comm	dataEntry32,4,1
	.comm	dataEntry,1,1
	.comm	DataAdressOffset,2,1
	.comm	nibble,8,1
	.comm	nibbleCount,1,1
	.comm	nibbleIndex,1,1
	.comm	menuStackIndex,1,1
	.comm	menuStack,32,1
	.comm	currentMenu,2,1
.global	MenuMIDIOutText
	.section	.progmem.data.MenuMIDIOutText,"a",@progbits
	.type	MenuMIDIOutText, @object
	.size	MenuMIDIOutText, 5
MenuMIDIOutText:
	.string	"Out:"
.global	MenuMIDIInText
	.section	.progmem.data.MenuMIDIInText,"a",@progbits
	.type	MenuMIDIInText, @object
	.size	MenuMIDIInText, 4
MenuMIDIInText:
	.string	"In:"
.global	initMenuText
	.section	.progmem.data.initMenuText,"a",@progbits
	.type	initMenuText, @object
	.size	initMenuText, 10
initMenuText:
	.string	"Men\365"
	.zero	5
.global	nibbleInfo
	.section	.progmem.data.nibbleInfo,"a",@progbits
	.type	nibbleInfo, @object
	.size	nibbleInfo, 135
nibbleInfo:
	.byte	0
	.byte	0
	.byte	0
	.byte	0
	.byte	0
	.byte	0
	.byte	0
	.byte	0
	.byte	0
	.byte	2
	.byte	0
	.byte	1
	.byte	0
	.byte	0
	.byte	0
	.byte	0
	.byte	0
	.byte	0
	.byte	1
	.byte	3
	.byte	0
	.byte	0
	.byte	0
	.byte	0
	.byte	0
	.byte	0
	.byte	0
	.byte	2
	.byte	0
	.byte	2
	.byte	0
	.byte	0
	.byte	0
	.byte	0
	.byte	0
	.byte	0
	.byte	3
	.byte	1
	.byte	3
	.byte	4
	.byte	0
	.byte	0
	.byte	0
	.byte	0
	.byte	0
	.byte	3
	.byte	0
	.byte	1
	.byte	2
	.byte	0
	.byte	0
	.byte	0
	.byte	0
	.byte	0
	.byte	1
	.byte	0
	.byte	0
	.byte	0
	.byte	0
	.byte	0
	.byte	0
	.byte	0
	.byte	0
	.byte	1
	.byte	0
	.byte	0
	.byte	0
	.byte	0
	.byte	0
	.byte	0
	.byte	0
	.byte	0
	.byte	1
	.byte	0
	.byte	0
	.byte	0
	.byte	0
	.byte	0
	.byte	0
	.byte	0
	.byte	0
	.byte	8
	.byte	0
	.byte	1
	.byte	2
	.byte	3
	.byte	4
	.byte	5
	.byte	6
	.byte	7
	.byte	8
	.byte	0
	.byte	1
	.byte	2
	.byte	3
	.byte	4
	.byte	5
	.byte	6
	.byte	7
	.byte	2
	.byte	0
	.byte	1
	.byte	0
	.byte	0
	.byte	0
	.byte	0
	.byte	0
	.byte	0
	.byte	2
	.byte	0
	.byte	1
	.byte	0
	.byte	0
	.byte	0
	.byte	0
	.byte	0
	.byte	0
	.byte	8
	.byte	0
	.byte	1
	.byte	2
	.byte	3
	.byte	4
	.byte	5
	.byte	6
	.byte	7
	.zero	9
.global	menu_selFunc
	.section	.progmem.data.menu_selFunc,"a",@progbits
	.type	menu_selFunc, @object
	.size	menu_selFunc, 420
menu_selFunc:
	.byte	-127
	.byte	16
	.string	"<none>"
	.zero	3
	.word	0
	.word	shortKeyTextNone
	.word	0
	.word	0
	.byte	1
	.byte	16
	.string	"Menu"
	.zero	5
	.word	menu_main
	.word	shortKeyTextMenu
	.word	0
	.word	0
	.byte	1
	.byte	16
	.string	"Stimmen"
	.zero	2
	.word	menu_tune
	.word	shortKeyTextStim
	.word	0
	.word	0
	.byte	1
	.byte	16
	.string	"Koppel2<3"
	.word	0
	.word	shortKeyTextCpl23
	.word	gs(softKeyCoupler2from3)
	.word	0
	.byte	1
	.byte	16
	.string	"Koppel1<3"
	.word	0
	.word	shortKeyTextCpl13
	.word	gs(softKeyCoupler1from3)
	.word	0
	.byte	1
	.byte	16
	.string	"KoppelP<3"
	.word	0
	.word	shortKeyTextCplP3
	.word	gs(softKeyCouplerPfrom3)
	.word	0
	.byte	1
	.byte	16
	.string	"Koppel1<2"
	.word	0
	.word	shortKeyTextCpl12
	.word	gs(softKeyCoupler1from2)
	.word	0
	.byte	1
	.byte	16
	.string	"KoppelP<2"
	.word	0
	.word	shortKeyTextCplP2
	.word	gs(softKeyCouplerPfrom2)
	.word	0
	.byte	1
	.byte	16
	.string	"KoppelP<1"
	.word	0
	.word	shortKeyTextCplP1
	.word	gs(softKeyCouplerPfrom1)
	.word	0
	.byte	1
	.byte	16
	.string	"Koppel3<2"
	.word	0
	.word	shortKeyTextCpl32
	.word	gs(softKeyCoupler3from2)
	.word	0
	.byte	1
	.byte	16
	.string	"Koppel3<1"
	.word	0
	.word	shortKeyTextCpl31
	.word	gs(softKeyCoupler3from1)
	.word	0
	.byte	1
	.byte	16
	.string	"Koppel3<P"
	.word	0
	.word	shortKeyTextCpl3P
	.word	gs(softKeyCoupler3fromP)
	.word	0
	.byte	1
	.byte	16
	.string	"Koppel2<1"
	.word	0
	.word	shortKeyTextCpl21
	.word	gs(softKeyCoupler2from1)
	.word	0
	.byte	1
	.byte	16
	.string	"Koppel2<P"
	.word	0
	.word	shortKeyTextCpl2P
	.word	gs(softKeyCoupler2fromP)
	.word	0
	.byte	1
	.byte	16
	.string	"Koppel1<P"
	.word	0
	.word	shortKeyTextCpl1P
	.word	gs(softKeyCoupler1fromP)
	.word	0
	.byte	1
	.byte	16
	.string	"Kombin 1A"
	.word	0
	.word	shortKeyTextK1A
	.word	gs(softKeyK1A)
	.word	0
	.byte	1
	.byte	16
	.string	"Kombin 2A"
	.word	0
	.word	shortKeyTextK2A
	.word	gs(softKeyK2A)
	.word	0
	.byte	1
	.byte	16
	.string	"Kombin 3A"
	.word	0
	.word	shortKeyTextK3A
	.word	gs(softKeyK3A)
	.word	0
	.byte	1
	.byte	16
	.string	"Kombin 4A"
	.word	0
	.word	shortKeyTextK4A
	.word	gs(softKeyK4A)
	.word	0
	.byte	1
	.byte	16
	.string	"MIDI Off"
	.zero	1
	.word	0
	.word	shortKeyTextMIDIoff
	.word	gs(menu_OnEnterMidiPanic)
	.word	0
	.byte	-63
	.byte	16
	.string	"Setup"
	.zero	4
	.word	menu_setup
	.word	shortKeyTextSetup
	.word	0
	.word	0
.global	shortKeyTextK4A
	.section	.progmem.data.shortKeyTextK4A,"a",@progbits
	.type	shortKeyTextK4A, @object
	.size	shortKeyTextK4A, 10
shortKeyTextK4A:
	.string	"Kb4A"
	.zero	5
.global	shortKeyTextK3A
	.section	.progmem.data.shortKeyTextK3A,"a",@progbits
	.type	shortKeyTextK3A, @object
	.size	shortKeyTextK3A, 10
shortKeyTextK3A:
	.string	"Kb3A"
	.zero	5
.global	shortKeyTextK2A
	.section	.progmem.data.shortKeyTextK2A,"a",@progbits
	.type	shortKeyTextK2A, @object
	.size	shortKeyTextK2A, 10
shortKeyTextK2A:
	.string	"Kb2A"
	.zero	5
.global	shortKeyTextK1A
	.section	.progmem.data.shortKeyTextK1A,"a",@progbits
	.type	shortKeyTextK1A, @object
	.size	shortKeyTextK1A, 10
shortKeyTextK1A:
	.string	"Kb1A"
	.zero	5
.global	shortKeyTextCpl1P
	.section	.progmem.data.shortKeyTextCpl1P,"a",@progbits
	.type	shortKeyTextCpl1P, @object
	.size	shortKeyTextCpl1P, 10
shortKeyTextCpl1P:
	.string	"1<P\200"
	.zero	5
.global	shortKeyTextCpl2P
	.section	.progmem.data.shortKeyTextCpl2P,"a",@progbits
	.type	shortKeyTextCpl2P, @object
	.size	shortKeyTextCpl2P, 10
shortKeyTextCpl2P:
	.string	"2<P\200"
	.zero	5
.global	shortKeyTextCpl21
	.section	.progmem.data.shortKeyTextCpl21,"a",@progbits
	.type	shortKeyTextCpl21, @object
	.size	shortKeyTextCpl21, 10
shortKeyTextCpl21:
	.string	"2<1\200"
	.zero	5
.global	shortKeyTextCpl3P
	.section	.progmem.data.shortKeyTextCpl3P,"a",@progbits
	.type	shortKeyTextCpl3P, @object
	.size	shortKeyTextCpl3P, 10
shortKeyTextCpl3P:
	.string	"3<P\200"
	.zero	5
.global	shortKeyTextCpl31
	.section	.progmem.data.shortKeyTextCpl31,"a",@progbits
	.type	shortKeyTextCpl31, @object
	.size	shortKeyTextCpl31, 10
shortKeyTextCpl31:
	.string	"3<1\200"
	.zero	5
.global	shortKeyTextCpl32
	.section	.progmem.data.shortKeyTextCpl32,"a",@progbits
	.type	shortKeyTextCpl32, @object
	.size	shortKeyTextCpl32, 10
shortKeyTextCpl32:
	.string	"3<2\200"
	.zero	5
.global	shortKeyTextCplP1
	.section	.progmem.data.shortKeyTextCplP1,"a",@progbits
	.type	shortKeyTextCplP1, @object
	.size	shortKeyTextCplP1, 10
shortKeyTextCplP1:
	.string	"P<1\200"
	.zero	5
.global	shortKeyTextCplP2
	.section	.progmem.data.shortKeyTextCplP2,"a",@progbits
	.type	shortKeyTextCplP2, @object
	.size	shortKeyTextCplP2, 10
shortKeyTextCplP2:
	.string	"P<2\200"
	.zero	5
.global	shortKeyTextCpl12
	.section	.progmem.data.shortKeyTextCpl12,"a",@progbits
	.type	shortKeyTextCpl12, @object
	.size	shortKeyTextCpl12, 10
shortKeyTextCpl12:
	.string	"1<2\200"
	.zero	5
.global	shortKeyTextCplP3
	.section	.progmem.data.shortKeyTextCplP3,"a",@progbits
	.type	shortKeyTextCplP3, @object
	.size	shortKeyTextCplP3, 10
shortKeyTextCplP3:
	.string	"P<3\200"
	.zero	5
.global	shortKeyTextCpl13
	.section	.progmem.data.shortKeyTextCpl13,"a",@progbits
	.type	shortKeyTextCpl13, @object
	.size	shortKeyTextCpl13, 10
shortKeyTextCpl13:
	.string	"1<3\200"
	.zero	5
.global	shortKeyTextCpl23
	.section	.progmem.data.shortKeyTextCpl23,"a",@progbits
	.type	shortKeyTextCpl23, @object
	.size	shortKeyTextCpl23, 10
shortKeyTextCpl23:
	.string	"2<3\200"
	.zero	5
.global	shortKeyTextMIDIoff
	.section	.progmem.data.shortKeyTextMIDIoff,"a",@progbits
	.type	shortKeyTextMIDIoff, @object
	.size	shortKeyTextMIDIoff, 10
shortKeyTextMIDIoff:
	.string	"MOff"
	.zero	5
.global	shortKeyTextSetup
	.section	.progmem.data.shortKeyTextSetup,"a",@progbits
	.type	shortKeyTextSetup, @object
	.size	shortKeyTextSetup, 10
shortKeyTextSetup:
	.string	"Setu"
	.zero	5
.global	shortKeyTextStim
	.section	.progmem.data.shortKeyTextStim,"a",@progbits
	.type	shortKeyTextStim, @object
	.size	shortKeyTextStim, 10
shortKeyTextStim:
	.string	"Stim"
	.zero	5
.global	shortKeyTextMenu
	.section	.progmem.data.shortKeyTextMenu,"a",@progbits
	.type	shortKeyTextMenu, @object
	.size	shortKeyTextMenu, 10
shortKeyTextMenu:
	.string	"Menu"
	.zero	5
.global	shortKeyTextNone
	.section	.progmem.data.shortKeyTextNone,"a",@progbits
	.type	shortKeyTextNone, @object
	.size	shortKeyTextNone, 10
shortKeyTextNone:
	.zero	10
.global	menu_main
	.section	.progmem.data.menu_main,"a",@progbits
	.type	menu_main, @object
	.size	menu_main, 120
menu_main:
	.byte	-127
	.byte	0
	.string	"Manual"
	.zero	3
	.word	menu_manual
	.word	0
	.word	0
	.word	0
	.byte	1
	.byte	0
	.string	"Register"
	.zero	1
	.word	menu_register
	.word	0
	.word	gs(menuOnUpdateRegister)
	.word	0
	.byte	1
	.byte	0
	.string	"MIDI"
	.zero	5
	.word	menu_midi
	.word	0
	.word	0
	.word	0
	.byte	1
	.byte	0
	.string	"Tasten"
	.zero	3
	.word	menu_key
	.word	0
	.word	0
	.word	gs(menuOnExitKeys)
	.byte	1
	.byte	0
	.string	"Status"
	.zero	3
	.word	menu_status
	.word	0
	.word	0
	.word	0
	.byte	-63
	.byte	0
	.string	"Setup"
	.zero	4
	.word	menu_setup
	.word	0
	.word	0
	.word	0
.global	menu_manual
	.section	.progmem.data.menu_manual,"a",@progbits
	.type	menu_manual, @object
	.size	menu_manual, 40
menu_manual:
	.byte	-127
	.byte	0
	.string	"Koppel"
	.zero	3
	.word	menu_coupler
	.word	0
	.word	0
	.word	0
	.byte	-63
	.byte	0
	.string	"Stimmen"
	.zero	2
	.word	menu_tune
	.word	0
	.word	0
	.word	0
.global	menu_register
	.section	.progmem.data.menu_register,"a",@progbits
	.type	menu_register, @object
	.size	menu_register, 220
menu_register:
	.byte	-116
	.byte	0
	.string	"Komb.lad."
	.word	0
	.word	menuVKombination
	.word	0
	.word	gs(menuOnExitLoadProgran)
	.byte	12
	.byte	0
	.string	"Komb.sp."
	.zero	1
	.word	0
	.word	menuVKombination
	.word	0
	.word	gs(menuOnExitSaveProgram)
	.byte	1
	.byte	0
	.string	"aus"
	.zero	6
	.word	0
	.word	0
	.word	gs(menuOnEnterResetReg)
	.word	0
	.byte	14
	.byte	0
	.string	"Reg.1-8"
	.zero	2
	.word	0
	.word	menuVRegisters
	.word	0
	.word	gs(menuOnExitRegisterEdit)
	.byte	14
	.byte	0
	.string	"Reg.9-16"
	.zero	1
	.word	0
	.word	menuVRegisters+1
	.word	0
	.word	gs(menuOnExitRegisterEdit)
	.byte	14
	.byte	0
	.string	"Reg.17-24"
	.word	0
	.word	menuVRegisters+2
	.word	0
	.word	gs(menuOnExitRegisterEdit)
	.byte	14
	.byte	0
	.string	"Reg.25-32"
	.word	0
	.word	menuVRegisters+3
	.word	0
	.word	gs(menuOnExitRegisterEdit)
	.byte	14
	.byte	0
	.string	"Reg.33-40"
	.word	0
	.word	menuVRegisters+4
	.word	0
	.word	gs(menuOnExitRegisterEdit)
	.byte	14
	.byte	0
	.string	"Reg.41-48"
	.word	0
	.word	menuVRegisters+5
	.word	0
	.word	gs(menuOnExitRegisterEdit)
	.byte	14
	.byte	0
	.string	"Reg.49-54"
	.word	0
	.word	menuVRegisters+6
	.word	0
	.word	gs(menuOnExitRegisterEdit)
	.byte	-54
	.byte	0
	.string	"Reg.55-64"
	.word	0
	.word	menuVRegisters+7
	.word	0
	.word	gs(menuOnExitRegisterEdit)
.global	menu_coupler
	.section	.progmem.data.menu_coupler,"a",@progbits
	.type	menu_coupler, @object
	.size	menu_coupler, 240
menu_coupler:
	.byte	-119
	.byte	0
	.string	"2<3"
	.zero	6
	.word	0
	.word	midi_Couplers
	.word	0
	.word	gs(menuOnExitCoupler)
	.byte	9
	.byte	0
	.string	"1<3"
	.zero	6
	.word	0
	.word	midi_Couplers+1
	.word	0
	.word	gs(menuOnExitCoupler)
	.byte	9
	.byte	0
	.string	"1<2"
	.zero	6
	.word	0
	.word	midi_Couplers+2
	.word	0
	.word	gs(menuOnExitCoupler)
	.byte	9
	.byte	0
	.string	"P<3"
	.zero	6
	.word	0
	.word	midi_Couplers+3
	.word	0
	.word	gs(menuOnExitCoupler)
	.byte	9
	.byte	0
	.string	"P<2"
	.zero	6
	.word	0
	.word	midi_Couplers+4
	.word	0
	.word	gs(menuOnExitCoupler)
	.byte	9
	.byte	0
	.string	"P<1"
	.zero	6
	.word	0
	.word	midi_Couplers+5
	.word	0
	.word	gs(menuOnExitCoupler)
	.byte	9
	.byte	0
	.string	"3<2"
	.zero	6
	.word	0
	.word	midi_Couplers+6
	.word	0
	.word	gs(menuOnExitCoupler)
	.byte	9
	.byte	0
	.string	"3<1"
	.zero	6
	.word	0
	.word	midi_Couplers+7
	.word	0
	.word	gs(menuOnExitCoupler)
	.byte	9
	.byte	0
	.string	"3<P"
	.zero	6
	.word	0
	.word	midi_Couplers+8
	.word	0
	.word	gs(menuOnExitCoupler)
	.byte	9
	.byte	0
	.string	"2<1"
	.zero	6
	.word	0
	.word	midi_Couplers+9
	.word	0
	.word	gs(menuOnExitCoupler)
	.byte	9
	.byte	0
	.string	"2<P"
	.zero	6
	.word	0
	.word	midi_Couplers+10
	.word	0
	.word	gs(menuOnExitCoupler)
	.byte	-55
	.byte	0
	.string	"1<P"
	.zero	6
	.word	0
	.word	midi_Couplers+11
	.word	0
	.word	gs(menuOnExitCoupler)
.global	menu_midi
	.section	.progmem.data.menu_midi,"a",@progbits
	.type	menu_midi, @object
	.size	menu_midi, 100
menu_midi:
	.byte	-127
	.byte	0
	.string	"NotesOff"
	.zero	1
	.word	0
	.word	0
	.word	gs(menu_OnEnterMidiPanic)
	.word	0
	.byte	1
	.byte	0
	.string	"MIDIin"
	.zero	3
	.word	menu_midiIn
	.word	0
	.word	0
	.word	gs(menuOnExitMidiIn)
	.byte	1
	.byte	0
	.string	"MIDIout"
	.zero	2
	.word	menu_midiOut
	.word	0
	.word	0
	.word	gs(menuOnExitMidiOut)
	.byte	9
	.byte	0
	.string	"Act.Sense"
	.word	0
	.word	midi_Setting
	.word	0
	.word	gs(menuOnExitMidiActiveSense)
	.byte	-55
	.byte	0
	.string	"Vel04Off"
	.zero	1
	.word	0
	.word	midi_Setting+1
	.word	0
	.word	gs(menuOnExitMidiActiveSense)
.global	menu_midiIn
	.section	.progmem.data.menu_midiIn,"a",@progbits
	.type	menu_midiIn, @object
	.size	menu_midiIn, 320
menu_midiIn:
	.byte	-127
	.byte	0
	.string	"Ch.1"
	.zero	5
	.word	menu_midiInSec
	.word	0
	.word	gs(menuOnEnterMidiInCh)
	.word	0
	.byte	1
	.byte	0
	.string	"Ch.2"
	.zero	5
	.word	menu_midiInSec
	.word	1
	.word	gs(menuOnEnterMidiInCh)
	.word	0
	.byte	1
	.byte	0
	.string	"Ch.3"
	.zero	5
	.word	menu_midiInSec
	.word	2
	.word	gs(menuOnEnterMidiInCh)
	.word	0
	.byte	1
	.byte	0
	.string	"Ch.4"
	.zero	5
	.word	menu_midiInSec
	.word	3
	.word	gs(menuOnEnterMidiInCh)
	.word	0
	.byte	1
	.byte	0
	.string	"Ch.5"
	.zero	5
	.word	menu_midiInSec
	.word	4
	.word	gs(menuOnEnterMidiInCh)
	.word	0
	.byte	1
	.byte	0
	.string	"Ch.6"
	.zero	5
	.word	menu_midiInSec
	.word	5
	.word	gs(menuOnEnterMidiInCh)
	.word	0
	.byte	1
	.byte	0
	.string	"Ch.7"
	.zero	5
	.word	menu_midiInSec
	.word	6
	.word	gs(menuOnEnterMidiInCh)
	.word	0
	.byte	1
	.byte	0
	.string	"Ch.8"
	.zero	5
	.word	menu_midiInSec
	.word	7
	.word	gs(menuOnEnterMidiInCh)
	.word	0
	.byte	1
	.byte	0
	.string	"Ch.9"
	.zero	5
	.word	menu_midiInSec
	.word	8
	.word	gs(menuOnEnterMidiInCh)
	.word	0
	.byte	1
	.byte	0
	.string	"Ch.10"
	.zero	4
	.word	menu_midiInSec
	.word	9
	.word	gs(menuOnEnterMidiInCh)
	.word	0
	.byte	1
	.byte	0
	.string	"Ch.11"
	.zero	4
	.word	menu_midiInSec
	.word	10
	.word	gs(menuOnEnterMidiInCh)
	.word	0
	.byte	1
	.byte	0
	.string	"Ch.12"
	.zero	4
	.word	menu_midiInSec
	.word	11
	.word	gs(menuOnEnterMidiInCh)
	.word	0
	.byte	1
	.byte	0
	.string	"Ch.13"
	.zero	4
	.word	menu_midiInSec
	.word	12
	.word	gs(menuOnEnterMidiInCh)
	.word	0
	.byte	1
	.byte	0
	.string	"Ch.14"
	.zero	4
	.word	menu_midiInSec
	.word	13
	.word	gs(menuOnEnterMidiInCh)
	.word	0
	.byte	1
	.byte	0
	.string	"Ch.15"
	.zero	4
	.word	menu_midiInSec
	.word	14
	.word	gs(menuOnEnterMidiInCh)
	.word	0
	.byte	-63
	.byte	0
	.string	"Ch.16"
	.zero	4
	.word	menu_midiInSec
	.word	15
	.word	gs(menuOnEnterMidiInCh)
	.word	0
.global	menu_midiInSec
	.section	.progmem.data.menu_midiInSec,"a",@progbits
	.type	menu_midiInSec, @object
	.size	menu_midiInSec, 80
menu_midiInSec:
	.byte	-127
	.byte	0
	.string	"Sect.1"
	.zero	3
	.word	menu_midiInVar
	.word	0
	.word	gs(menuOnEnterMidiInSec)
	.word	0
	.byte	1
	.byte	0
	.string	"Sect.2"
	.zero	3
	.word	menu_midiInVar
	.word	1
	.word	gs(menuOnEnterMidiInSec)
	.word	0
	.byte	1
	.byte	0
	.string	"Sect.3"
	.zero	3
	.word	menu_midiInVar
	.word	2
	.word	gs(menuOnEnterMidiInSec)
	.word	0
	.byte	-63
	.byte	0
	.string	"Sect.4"
	.zero	3
	.word	menu_midiInVar
	.word	3
	.word	gs(menuOnEnterMidiInSec)
	.word	0
.global	menu_midiInVar
	.section	.progmem.data.menu_midiInVar,"a",@progbits
	.type	menu_midiInVar, @object
	.size	menu_midiInVar, 80
menu_midiInVar:
	.byte	-121
	.byte	-112
	.string	"Manual"
	.zero	3
	.word	0
	.word	midiInMap
	.word	0
	.word	0
	.byte	4
	.byte	-112
	.string	"MidNote"
	.zero	2
	.word	0
	.word	midiInMap+1
	.word	0
	.word	0
	.byte	6
	.byte	-128
	.string	"Range"
	.zero	4
	.word	0
	.word	midiInMap+2
	.word	0
	.word	0
	.byte	-60
	.byte	-112
	.string	"ManNote"
	.zero	2
	.word	0
	.word	midiInMap+3
	.word	0
	.word	0
.global	menu_key
	.section	.progmem.data.menu_key,"a",@progbits
	.type	menu_key, @object
	.size	menu_key, 80
menu_key:
	.byte	-127
	.byte	8
	.string	"Taste1"
	.zero	3
	.word	menu_selFunc
	.word	0
	.word	gs(menuOnEnterKey)
	.word	gs(menuOnExitKey)
	.byte	1
	.byte	8
	.string	"Taste2"
	.zero	3
	.word	menu_selFunc
	.word	1
	.word	gs(menuOnEnterKey)
	.word	gs(menuOnExitKey)
	.byte	1
	.byte	8
	.string	"Taste3"
	.zero	3
	.word	menu_selFunc
	.word	2
	.word	gs(menuOnEnterKey)
	.word	gs(menuOnExitKey)
	.byte	-63
	.byte	8
	.string	"Taste4"
	.zero	3
	.word	menu_selFunc
	.word	3
	.word	gs(menuOnEnterKey)
	.word	gs(menuOnExitKey)
.global	menu_tune
	.section	.progmem.data.menu_tune,"a",@progbits
	.type	menu_tune, @object
	.size	menu_tune, 80
menu_tune:
	.byte	-127
	.byte	32
	.string	"Man.3"
	.zero	4
	.word	0
	.word	0
	.word	gs(menuOnEnterTune)
	.word	0
	.byte	1
	.byte	32
	.string	"Man.2"
	.zero	4
	.word	0
	.word	1
	.word	gs(menuOnEnterTune)
	.word	0
	.byte	1
	.byte	32
	.string	"Man.1"
	.zero	4
	.word	0
	.word	2
	.word	gs(menuOnEnterTune)
	.word	0
	.byte	-63
	.byte	32
	.string	"Pedal"
	.zero	4
	.word	0
	.word	3
	.word	gs(menuOnEnterTune)
	.word	0
.global	menu_midiOut
	.section	.progmem.data.menu_midiOut,"a",@progbits
	.type	menu_midiOut, @object
	.size	menu_midiOut, 80
menu_midiOut:
	.byte	-125
	.byte	16
	.string	"III"
	.zero	6
	.word	0
	.word	midiOutMap
	.word	0
	.word	0
	.byte	3
	.byte	16
	.string	"II"
	.zero	7
	.word	0
	.word	midiOutMap+1
	.word	0
	.word	0
	.byte	3
	.byte	16
	.string	"I"
	.zero	8
	.word	0
	.word	midiOutMap+2
	.word	0
	.word	0
	.byte	-61
	.byte	16
	.string	"P"
	.zero	8
	.word	0
	.word	midiOutMap+3
	.word	0
	.word	0
.global	menu_setup
	.section	.progmem.data.menu_setup,"a",@progbits
	.type	menu_setup, @object
	.size	menu_setup, 80
menu_setup:
	.byte	-127
	.byte	0
	.string	"Module"
	.zero	3
	.word	menu_module
	.word	0
	.word	0
	.word	0
	.byte	1
	.byte	0
	.string	"USB"
	.zero	6
	.word	menu_USBser
	.word	0
	.word	0
	.word	0
	.byte	1
	.byte	0
	.string	"Power"
	.zero	4
	.word	menu_Power
	.word	0
	.word	0
	.word	0
	.byte	-63
	.byte	0
	.string	"EEprom"
	.zero	3
	.word	menu_eeprom
	.word	0
	.word	0
	.word	0
.global	menu_eeprom
	.section	.progmem.data.menu_eeprom,"a",@progbits
	.type	menu_eeprom, @object
	.size	menu_eeprom, 60
menu_eeprom:
	.byte	-127
	.byte	0
	.string	"EESave"
	.zero	3
	.word	0
	.word	0
	.word	gs(menuOnEnterEEUpdate)
	.word	0
	.byte	1
	.byte	0
	.string	"EEBackup"
	.zero	1
	.word	0
	.word	0
	.word	gs(menuOnEnterEEBackup)
	.word	0
	.byte	-63
	.byte	0
	.string	"EERestore"
	.word	0
	.word	0
	.word	gs(menuOnEnterEERestore)
	.word	0
.global	menu_Power
	.section	.progmem.data.menu_Power,"a",@progbits
	.type	menu_Power, @object
	.size	menu_Power, 60
menu_Power:
	.byte	-127
	.byte	0
	.string	"PowerOn"
	.zero	2
	.word	0
	.word	0
	.word	gs(menuOnEnterPwrOn)
	.word	0
	.byte	1
	.byte	0
	.string	"PowerOff"
	.zero	1
	.word	0
	.word	0
	.word	gs(menuOnEnterPwrOff)
	.word	0
	.byte	-63
	.byte	0
	.string	"P.Restart"
	.word	0
	.word	0
	.word	gs(menuOnEnterPwrRest)
	.word	0
.global	menu_module
	.section	.progmem.data.menu_module,"a",@progbits
	.type	menu_module, @object
	.size	menu_module, 100
menu_module:
	.byte	-118
	.byte	0
	.string	"ModRead"
	.zero	2
	.word	0
	.word	pipe_ModuleAssnRead
	.word	0
	.word	gs(menuOnExitModules)
	.byte	10
	.byte	0
	.string	"ModWrite"
	.zero	1
	.word	0
	.word	pipe_ModuleAssnWrite
	.word	0
	.word	gs(menuOnExitModules)
	.byte	10
	.byte	8
	.string	"ModOK"
	.zero	4
	.word	0
	.word	pipe_ModuleTested
	.word	0
	.word	0
	.byte	1
	.byte	0
	.string	"ModTest"
	.zero	2
	.word	menu_ModeSel
	.word	0
	.word	0
	.word	0
	.byte	-63
	.byte	0
	.string	"ModAssign"
	.word	menu_modAssign
	.word	0
	.word	0
	.word	gs(menuOnExitManual)
.global	menu_ModeSel
	.section	.progmem.data.menu_ModeSel,"a",@progbits
	.type	menu_ModeSel, @object
	.size	menu_ModeSel, 160
menu_ModeSel:
	.byte	-127
	.byte	0
	.string	"Mod.0"
	.zero	4
	.word	menu_ModTestSelcted
	.word	0
	.word	gs(menuOnEnterModSel)
	.word	0
	.byte	1
	.byte	0
	.string	"Mod.1"
	.zero	4
	.word	menu_ModTestSelcted
	.word	1
	.word	gs(menuOnEnterModSel)
	.word	0
	.byte	1
	.byte	0
	.string	"Mod.2"
	.zero	4
	.word	menu_ModTestSelcted
	.word	2
	.word	gs(menuOnEnterModSel)
	.word	0
	.byte	1
	.byte	0
	.string	"Mod.3"
	.zero	4
	.word	menu_ModTestSelcted
	.word	3
	.word	gs(menuOnEnterModSel)
	.word	0
	.byte	1
	.byte	0
	.string	"Mod.4"
	.zero	4
	.word	menu_ModTestSelcted
	.word	4
	.word	gs(menuOnEnterModSel)
	.word	0
	.byte	1
	.byte	0
	.string	"Mod.5"
	.zero	4
	.word	menu_ModTestSelcted
	.word	5
	.word	gs(menuOnEnterModSel)
	.word	0
	.byte	1
	.byte	0
	.string	"Mod.6"
	.zero	4
	.word	menu_ModTestSelcted
	.word	6
	.word	gs(menuOnEnterModSel)
	.word	0
	.byte	-63
	.byte	0
	.string	"Mod.7"
	.zero	4
	.word	menu_ModTestSelcted
	.word	7
	.word	gs(menuOnEnterModSel)
	.word	0
.global	menu_ModTestSelcted
	.section	.progmem.data.menu_ModTestSelcted,"a",@progbits
	.type	menu_ModTestSelcted, @object
	.size	menu_ModTestSelcted, 80
menu_ModTestSelcted:
	.byte	-127
	.byte	0
	.string	"Read"
	.zero	5
	.word	0
	.word	0
	.word	gs(menu_readModule)
	.word	0
	.byte	11
	.byte	0
	.string	"Write"
	.zero	4
	.word	0
	.word	menuModVal
	.word	gs(menu_enterWriteModule)
	.word	gs(menu_exitWriteModule)
	.byte	1
	.byte	0
	.string	"TestPtrn"
	.zero	1
	.word	0
	.word	0
	.word	gs(menu_ModuleTestPattern)
	.word	0
	.byte	-63
	.byte	0
	.string	"LoopTst"
	.zero	2
	.word	0
	.word	0
	.word	gs(menu_testModule)
	.word	0
.global	menu_USBser
	.section	.progmem.data.menu_USBser,"a",@progbits
	.type	menu_USBser, @object
	.size	menu_USBser, 60
menu_USBser:
	.byte	-119
	.byte	0
	.string	"Active"
	.zero	3
	.word	0
	.word	serusb_Active
	.word	0
	.word	gs(menuOnExitUSBactive)
	.byte	1
	.byte	0
	.string	"SendLog"
	.zero	2
	.word	0
	.word	0
	.word	gs(menuOnEnterUSBprotokoll)
	.word	0
	.byte	-63
	.byte	0
	.string	"SndHWCfg"
	.zero	1
	.word	0
	.word	0
	.word	gs(menuOnEnterUSBsendHW)
	.word	0
.global	menu_modAssign
	.section	.progmem.data.menu_modAssign,"a",@progbits
	.type	menu_modAssign, @object
	.size	menu_modAssign, 100
menu_modAssign:
	.byte	-127
	.byte	0
	.string	"Man.3"
	.zero	4
	.word	menu_modSection
	.word	0
	.word	gs(menuOnEnterModManual)
	.word	0
	.byte	1
	.byte	0
	.string	"Man.2"
	.zero	4
	.word	menu_modSection
	.word	1
	.word	gs(menuOnEnterModManual)
	.word	0
	.byte	1
	.byte	0
	.string	"Man.1"
	.zero	4
	.word	menu_modSection
	.word	2
	.word	gs(menuOnEnterModManual)
	.word	0
	.byte	1
	.byte	0
	.string	"Pedal"
	.zero	4
	.word	menu_modSection
	.word	3
	.word	gs(menuOnEnterModManual)
	.word	0
	.byte	-63
	.byte	0
	.string	"Register"
	.zero	1
	.word	menu_modSection8
	.word	4
	.word	0
	.word	0
.global	menu_modSection8
	.section	.progmem.data.menu_modSection8,"a",@progbits
	.type	menu_modSection8, @object
	.size	menu_modSection8, 160
menu_modSection8:
	.byte	-127
	.byte	0
	.string	"Sect.1"
	.zero	3
	.word	menu_modDefineReg
	.word	0
	.word	gs(menuOnEnterModSecReg)
	.word	0
	.byte	1
	.byte	0
	.string	"Sect.2"
	.zero	3
	.word	menu_modDefineReg
	.word	1
	.word	gs(menuOnEnterModSecReg)
	.word	0
	.byte	1
	.byte	0
	.string	"Sect.3"
	.zero	3
	.word	menu_modDefineReg
	.word	2
	.word	gs(menuOnEnterModSecReg)
	.word	0
	.byte	1
	.byte	0
	.string	"Sect.4"
	.zero	3
	.word	menu_modDefineReg
	.word	3
	.word	gs(menuOnEnterModSecReg)
	.word	0
	.byte	1
	.byte	0
	.string	"Sect.5"
	.zero	3
	.word	menu_modDefineReg
	.word	4
	.word	gs(menuOnEnterModSecReg)
	.word	0
	.byte	1
	.byte	0
	.string	"Sect.6"
	.zero	3
	.word	menu_modDefineReg
	.word	5
	.word	gs(menuOnEnterModSecReg)
	.word	0
	.byte	1
	.byte	0
	.string	"Sect.7"
	.zero	3
	.word	menu_modDefineReg
	.word	6
	.word	gs(menuOnEnterModSecReg)
	.word	0
	.byte	-63
	.byte	0
	.string	"Sect.8"
	.zero	3
	.word	menu_modDefineReg
	.word	7
	.word	gs(menuOnEnterModSecReg)
	.word	0
.global	menu_modSection
	.section	.progmem.data.menu_modSection,"a",@progbits
	.type	menu_modSection, @object
	.size	menu_modSection, 80
menu_modSection:
	.byte	-127
	.byte	0
	.string	"Sect.1"
	.zero	3
	.word	menu_modDefine
	.word	0
	.word	gs(menuOnEnterModSec)
	.word	0
	.byte	1
	.byte	0
	.string	"Sect.2"
	.zero	3
	.word	menu_modDefine
	.word	1
	.word	gs(menuOnEnterModSec)
	.word	0
	.byte	1
	.byte	0
	.string	"Sect.3"
	.zero	3
	.word	menu_modDefine
	.word	2
	.word	gs(menuOnEnterModSec)
	.word	0
	.byte	-63
	.byte	0
	.string	"Sect.4"
	.zero	3
	.word	menu_modDefine
	.word	3
	.word	gs(menuOnEnterModSec)
	.word	0
.global	menu_modDefineReg
	.section	.progmem.data.menu_modDefineReg,"a",@progbits
	.type	menu_modDefineReg, @object
	.size	menu_modDefineReg, 60
menu_modDefineReg:
	.byte	-115
	.byte	-128
	.string	"RegBeg"
	.zero	3
	.word	0
	.word	registerMap
	.word	0
	.word	0
	.byte	13
	.byte	-128
	.string	"RegEnd"
	.zero	3
	.word	0
	.word	registerMap+1
	.word	0
	.word	0
	.byte	-59
	.byte	-128
	.ascii	"Module/Bit"
	.word	0
	.word	registerMap+2
	.word	0
	.word	0
.global	menu_modDefine
	.section	.progmem.data.menu_modDefine,"a",@progbits
	.type	menu_modDefine, @object
	.size	menu_modDefine, 60
menu_modDefine:
	.byte	-124
	.byte	-112
	.string	"NoteBeg"
	.zero	2
	.word	0
	.word	manualMap
	.word	0
	.word	0
	.byte	4
	.byte	-112
	.string	"NoteEnd"
	.zero	2
	.word	0
	.word	manualMap+1
	.word	0
	.word	0
	.byte	-59
	.byte	-128
	.ascii	"Module/Bit"
	.word	0
	.word	manualMap+2
	.word	0
	.word	0
.global	menu_status
	.section	.progmem.data.menu_status,"a",@progbits
	.type	menu_status, @object
	.size	menu_status, 60
menu_status:
	.byte	-127
	.byte	32
	.string	"Log"
	.zero	6
	.word	0
	.word	0
	.word	gs(menuOnEnterLogDisp)
	.word	0
	.byte	2
	.byte	64
	.string	"MIDI-In"
	.zero	2
	.word	0
	.word	0
	.word	gs(menuOnEnterStatusMidiIn)
	.word	0
	.byte	-62
	.byte	64
	.string	"MIDI-Out"
	.zero	1
	.word	0
	.word	0
	.word	gs(menuOnEnterStatusMidiOut)
	.word	0
.global	sw_version
	.section	.progmem.data.sw_version,"a",@progbits
	.type	sw_version, @object
	.size	sw_version, 6
sw_version:
	.string	"V0.58"
	.comm	lcdData,10,1
	.text
.Letext0:
	.file 3 "c:\\program files (x86)\\atmel\\studio\\7.0\\toolchain\\avr8\\avr8-gnu-toolchain\\avr\\include\\stdint.h"
	.file 4 ".././utils.h"
	.file 5 ".././hwtimer.h"
	.file 6 ".././Midi.h"
	.file 7 ".././menu.h"
	.file 8 ".././lcd_u.h"
	.file 9 ".././message.h"
	.file 10 ".././serial.h"
	.file 11 ".././ee_prom.h"
	.file 12 ".././log.h"