	.file	"serial.c"
__SP_H__ = 0x3e
__SP_L__ = 0x3d
__SREG__ = 0x3f
__RAMPZ__ = 0x3b
__tmp_reg__ = 0
__zero_reg__ = 1
	.text
.Ltext0:
	.cfi_sections	.debug_frame
	.section	.text.init_Serial1MIDI,"ax",@progbits
.global	init_Serial1MIDI
	.type	init_Serial1MIDI, @function
init_Serial1MIDI:
.LFB6:
	.file 1 ".././serial.c"
	.loc 1 47 0
	.cfi_startproc
/* prologue: function */
/* frame size = 0 */
/* stack size = 0 */
.L__stack_usage = 0
	.loc 1 49 0
	sts 205,__zero_reg__
	.loc 1 50 0
	ldi r24,lo8(31)
	sts 204,r24
	.loc 1 51 0
	ldi r30,lo8(-55)
	ldi r31,0
	ld r24,Z
	ori r24,lo8(-104)
	st Z,r24
	.loc 1 52 0
	ldi r30,lo8(-54)
	ldi r31,0
	ld r24,Z
	ori r24,lo8(6)
	st Z,r24
	.loc 1 53 0
	sts midiRxInIndex,__zero_reg__
	.loc 1 54 0
	sts midiRxOutIndex,__zero_reg__
	.loc 1 55 0
	sts midiTxInIndex,__zero_reg__
	.loc 1 56 0
	sts midiTxOutIndex,__zero_reg__
	.loc 1 57 0
	sts midiRxOvfl,__zero_reg__
	.loc 1 58 0
	sts midiTxOvfl,__zero_reg__
	.loc 1 59 0
	sts midiRxOvflCount,__zero_reg__
	.loc 1 60 0
	sts midiTxOvflCount,__zero_reg__
	ret
	.cfi_endproc
.LFE6:
	.size	init_Serial1MIDI, .-init_Serial1MIDI
	.section	.text.serial1MIDISend,"ax",@progbits
.global	serial1MIDISend
	.type	serial1MIDISend, @function
serial1MIDISend:
.LFB7:
	.loc 1 63 0
	.cfi_startproc
.LVL0:
/* prologue: function */
/* frame size = 0 */
/* stack size = 0 */
.L__stack_usage = 0
	.loc 1 64 0
	lds r25,201
	andi r25,lo8(-33)
	sts 201,r25
	.loc 1 65 0
	lds r30,midiTxInIndex
	ldi r31,0
	subi r30,lo8(-(midiTxBuffer))
	sbci r31,hi8(-(midiTxBuffer))
	st Z,r24
	.loc 1 66 0
	lds r24,midiTxInIndex
.LVL1:
	subi r24,lo8(-(1))
	andi r24,lo8(31)
	sts midiTxInIndex,r24
	.loc 1 67 0
	lds r25,midiTxInIndex
	lds r24,midiTxOutIndex
	cp r25,r24
	breq .L9
.L3:
	.loc 1 80 0
	lds r24,201
	ori r24,lo8(32)
	sts 201,r24
.LVL2:
	ret
.LVL3:
.L9:
.LBB6:
	.loc 1 68 0
	lds r24,midiTxOvflCount
.LVL4:
	.loc 1 69 0
	tst r24
	breq .L4
	.loc 1 71 0
	cpi r24,lo8(-1)
	breq .L3
	.loc 1 73 0
	subi r24,lo8(-(1))
.LVL5:
	sts midiTxOvflCount,r24
.LBE6:
	.loc 1 80 0
	lds r24,201
.LVL6:
	ori r24,lo8(32)
	sts 201,r24
.LVL7:
	ret
.LVL8:
.L4:
.LBB7:
	.loc 1 77 0
	ldi r24,lo8(1)
.LVL9:
	sts midiTxOvflCount,r24
.LBE7:
	.loc 1 80 0
	lds r24,201
	ori r24,lo8(32)
	sts 201,r24
.LVL10:
	ret
	.cfi_endproc
.LFE7:
	.size	serial1MIDISend, .-serial1MIDISend
	.section	.text.serial1MIDIReadRx,"ax",@progbits
.global	serial1MIDIReadRx
	.type	serial1MIDIReadRx, @function
serial1MIDIReadRx:
.LFB8:
	.loc 1 83 0
	.cfi_startproc
/* prologue: function */
/* frame size = 0 */
/* stack size = 0 */
.L__stack_usage = 0
	.loc 1 85 0
	lds r25,midiRxInIndex
	lds r24,midiRxOutIndex
	cp r25,r24
	breq .L12
	.loc 1 88 0
	lds r30,midiRxOutIndex
	ldi r31,0
	subi r30,lo8(-(midiRxBuffer))
	sbci r31,hi8(-(midiRxBuffer))
	ld r24,Z
.LVL11:
	.loc 1 89 0
	lds r25,midiRxOutIndex
	subi r25,lo8(-(1))
	andi r25,lo8(31)
	sts midiRxOutIndex,r25
	ret
.LVL12:
.L12:
	.loc 1 86 0
	ldi r24,lo8(-3)
.LVL13:
	.loc 1 92 0
	ret
	.cfi_endproc
.LFE8:
	.size	serial1MIDIReadRx, .-serial1MIDIReadRx
	.section	.text.__vector_36,"ax",@progbits
.global	__vector_36
	.type	__vector_36, @function
__vector_36:
.LFB9:
	.loc 1 94 0
	.cfi_startproc
	push r1
.LCFI0:
	.cfi_def_cfa_offset 4
	.cfi_offset 1, -3
	push r0
.LCFI1:
	.cfi_def_cfa_offset 5
	.cfi_offset 0, -4
	in r0,__SREG__
	push r0
	clr __zero_reg__
	in r0,__RAMPZ__
	push r0
	push r24
.LCFI2:
	.cfi_def_cfa_offset 6
	.cfi_offset 24, -5
	push r25
.LCFI3:
	.cfi_def_cfa_offset 7
	.cfi_offset 25, -6
	push r30
.LCFI4:
	.cfi_def_cfa_offset 8
	.cfi_offset 30, -7
	push r31
.LCFI5:
	.cfi_def_cfa_offset 9
	.cfi_offset 31, -8
/* prologue: Signal */
/* frame size = 0 */
/* stack size = 8 */
.L__stack_usage = 8
	.loc 1 96 0
	lds r24,206
.LVL14:
	.loc 1 98 0
	lds r30,midiRxInIndex
	ldi r31,0
	subi r30,lo8(-(midiRxBuffer))
	sbci r31,hi8(-(midiRxBuffer))
	st Z,r24
	.loc 1 99 0
	lds r24,midiRxInIndex
.LVL15:
	subi r24,lo8(-(1))
	andi r24,lo8(31)
	sts midiRxInIndex,r24
	.loc 1 100 0
	lds r25,midiRxInIndex
	lds r24,midiRxOutIndex
	cp r25,r24
	breq .L19
.L14:
	.loc 1 114 0
	lds r24,midiRxBytesCount
	lds r25,midiRxBytesCount+1
	adiw r24,1
	sts midiRxBytesCount+1,r25
	sts midiRxBytesCount,r24
/* epilogue start */
	.loc 1 115 0
	pop r31
	pop r30
.LVL16:
	pop r25
	pop r24
	pop r0
	out __RAMPZ__,r0
	pop r0
	out __SREG__,r0
	pop r0
	pop r1
	reti
.LVL17:
.L19:
.LBB8:
	.loc 1 102 0
	lds r24,midiRxOvflCount
.LVL18:
	.loc 1 103 0
	tst r24
	breq .L15
	.loc 1 105 0
	cpi r24,lo8(-1)
	breq .L14
	.loc 1 107 0
	subi r24,lo8(-(1))
.LVL19:
	sts midiRxOvflCount,r24
	rjmp .L14
.LVL20:
.L15:
	.loc 1 111 0
	ldi r24,lo8(1)
.LVL21:
	sts midiRxOvflCount,r24
	rjmp .L14
.LBE8:
	.cfi_endproc
.LFE9:
	.size	__vector_36, .-__vector_36
	.section	.text.__vector_37,"ax",@progbits
.global	__vector_37
	.type	__vector_37, @function
__vector_37:
.LFB10:
	.loc 1 117 0
	.cfi_startproc
	push r1
.LCFI6:
	.cfi_def_cfa_offset 4
	.cfi_offset 1, -3
	push r0
.LCFI7:
	.cfi_def_cfa_offset 5
	.cfi_offset 0, -4
	in r0,__SREG__
	push r0
	clr __zero_reg__
	in r0,__RAMPZ__
	push r0
	push r24
.LCFI8:
	.cfi_def_cfa_offset 6
	.cfi_offset 24, -5
	push r25
.LCFI9:
	.cfi_def_cfa_offset 7
	.cfi_offset 25, -6
	push r30
.LCFI10:
	.cfi_def_cfa_offset 8
	.cfi_offset 30, -7
	push r31
.LCFI11:
	.cfi_def_cfa_offset 9
	.cfi_offset 31, -8
/* prologue: Signal */
/* frame size = 0 */
/* stack size = 8 */
.L__stack_usage = 8
	.loc 1 118 0
	lds r25,midiTxOutIndex
	lds r24,midiTxInIndex
	cp r25,r24
	breq .L21
	.loc 1 120 0
	lds r30,midiTxOutIndex
	ldi r31,0
	subi r30,lo8(-(midiTxBuffer))
	sbci r31,hi8(-(midiTxBuffer))
	ld r24,Z
	sts 206,r24
	.loc 1 121 0
	lds r24,midiTxOutIndex
	subi r24,lo8(-(1))
	andi r24,lo8(31)
	sts midiTxOutIndex,r24
	.loc 1 122 0
	lds r24,midiTxBytesCount
	lds r25,midiTxBytesCount+1
	adiw r24,1
	sts midiTxBytesCount+1,r25
	sts midiTxBytesCount,r24
.L20:
/* epilogue start */
	.loc 1 128 0
	pop r31
	pop r30
	pop r25
	pop r24
	pop r0
	out __RAMPZ__,r0
	pop r0
	out __SREG__,r0
	pop r0
	pop r1
	reti
.L21:
	.loc 1 125 0
	lds r24,201
	andi r24,lo8(-33)
	sts 201,r24
	.loc 1 128 0
	rjmp .L20
	.cfi_endproc
.LFE10:
	.size	__vector_37, .-__vector_37
	.section	.text.init_Serial0SerUSB,"ax",@progbits
.global	init_Serial0SerUSB
	.type	init_Serial0SerUSB, @function
init_Serial0SerUSB:
.LFB11:
	.loc 1 131 0
	.cfi_startproc
/* prologue: function */
/* frame size = 0 */
/* stack size = 0 */
.L__stack_usage = 0
	.loc 1 133 0
	sts 197,__zero_reg__
	.loc 1 134 0
	ldi r24,lo8(51)
	sts 196,r24
	.loc 1 135 0
	lds r24,193
	ori r24,lo8(-104)
	sts 193,r24
	.loc 1 136 0
	lds r24,194
	ori r24,lo8(6)
	sts 194,r24
	.loc 1 137 0
	sts midiRxInIndex,__zero_reg__
	.loc 1 138 0
	sts midiRxOutIndex,__zero_reg__
	.loc 1 139 0
	sts midiTxInIndex,__zero_reg__
	.loc 1 140 0
	sts midiTxOutIndex,__zero_reg__
	.loc 1 141 0
	sts serusbOvflFlag,__zero_reg__
	.loc 1 142 0
	call eeprom_ReadUSB
.LVL22:
	cpi r24,lo8(-1)
	brne .+2
	rjmp .L63
.L24:
	.loc 1 146 0
	lds r24,serusb_Active
	cpi r24,lo8(-1)
	breq .L64
.L23:
	ret
.L64:
	ldi r30,lo8(HelloMsg)
	ldi r31,hi8(HelloMsg)
.LVL23:
.LBB33:
.LBB34:
.LBB35:
	.loc 1 157 0
/* #APP */
 ;  157 ".././serial.c" 1
	lpm r18, Z
	
 ;  0 "" 2
.LVL24:
/* #NOAPP */
.LBE35:
	.loc 1 157 0
	tst r18
	breq .L30
.LVL25:
.L66:
	.loc 1 157 0
	lds r24,serusbOvflFlag
	cpi r24,lo8(-1)
	breq .L30
.LVL26:
.LBB36:
.LBB37:
	.loc 1 176 0
	lds r24,serusbTxInIndex
.LVL27:
	.loc 1 177 0
	lds r25,193
	andi r25,lo8(-33)
	sts 193,r25
	.loc 1 178 0
	mov r26,r24
	ldi r27,0
	subi r26,lo8(-(serUsbTxBuffer))
	sbci r27,hi8(-(serUsbTxBuffer))
	st X,r18
	.loc 1 179 0
	subi r24,lo8(-(1))
.LVL28:
	.loc 1 180 0
	lds r25,serusbTxOutIndex
	cp r24,r25
	brne .+2
	rjmp .L65
	.loc 1 190 0
	sts serusbTxInIndex,r24
	.loc 1 191 0
	lds r24,193
.LVL29:
	ori r24,lo8(32)
	sts 193,r24
.LVL30:
	adiw r30,1
.LVL31:
.L72:
.LBE37:
.LBE36:
.LBB39:
	.loc 1 157 0
/* #APP */
 ;  157 ".././serial.c" 1
	lpm r18, Z
	
 ;  0 "" 2
.LVL32:
/* #NOAPP */
.LBE39:
	.loc 1 157 0
	cpse r18,__zero_reg__
	rjmp .L66
.LVL33:
.L30:
.LBE34:
.LBE33:
	.loc 1 146 0
	ldi r30,lo8(sw_version)
	ldi r31,hi8(sw_version)
.LVL34:
.LBB42:
.LBB43:
.LBB44:
	.loc 1 157 0
/* #APP */
 ;  157 ".././serial.c" 1
	lpm r18, Z
	
 ;  0 "" 2
.LVL35:
/* #NOAPP */
.LBE44:
	.loc 1 157 0
	tst r18
	breq .L36
.LVL36:
.L68:
	.loc 1 157 0
	lds r24,serusbOvflFlag
	cpi r24,lo8(-1)
	breq .L36
.LVL37:
.LBB45:
.LBB46:
	.loc 1 176 0
	lds r24,serusbTxInIndex
.LVL38:
	.loc 1 177 0
	lds r25,193
	andi r25,lo8(-33)
	sts 193,r25
	.loc 1 178 0
	mov r26,r24
	ldi r27,0
	subi r26,lo8(-(serUsbTxBuffer))
	sbci r27,hi8(-(serUsbTxBuffer))
	st X,r18
	.loc 1 179 0
	subi r24,lo8(-(1))
.LVL39:
	.loc 1 180 0
	lds r25,serusbTxOutIndex
	cp r24,r25
	brne .+2
	rjmp .L67
	.loc 1 190 0
	sts serusbTxInIndex,r24
	.loc 1 191 0
	lds r24,193
.LVL40:
	ori r24,lo8(32)
	sts 193,r24
.LVL41:
	adiw r30,1
.LVL42:
.L73:
.LBE46:
.LBE45:
.LBB48:
	.loc 1 157 0
/* #APP */
 ;  157 ".././serial.c" 1
	lpm r18, Z
	
 ;  0 "" 2
.LVL43:
/* #NOAPP */
.LBE48:
	.loc 1 157 0
	cpse r18,__zero_reg__
	rjmp .L68
.LVL44:
.L36:
.LBE43:
.LBE42:
	.loc 1 146 0
	ldi r30,lo8(cr_lf)
	ldi r31,hi8(cr_lf)
.LVL45:
.LBB51:
.LBB52:
.LBB53:
.LBB54:
.LBB55:
	.loc 1 157 0
/* #APP */
 ;  157 ".././serial.c" 1
	lpm r18, Z
	
 ;  0 "" 2
.LVL46:
/* #NOAPP */
.LBE55:
	.loc 1 157 0
	tst r18
	breq .L48
.LVL47:
.L70:
	.loc 1 157 0
	lds r24,serusbOvflFlag
	cpi r24,lo8(-1)
	breq .L48
.LVL48:
.LBB56:
.LBB57:
	.loc 1 176 0
	lds r24,serusbTxInIndex
.LVL49:
	.loc 1 177 0
	lds r25,193
	andi r25,lo8(-33)
	sts 193,r25
	.loc 1 178 0
	mov r26,r24
	ldi r27,0
	subi r26,lo8(-(serUsbTxBuffer))
	sbci r27,hi8(-(serUsbTxBuffer))
	st X,r18
	.loc 1 179 0
	subi r24,lo8(-(1))
.LVL50:
	.loc 1 180 0
	lds r25,serusbTxOutIndex
	cp r24,r25
	brne .+2
	rjmp .L69
	.loc 1 190 0
	sts serusbTxInIndex,r24
	.loc 1 191 0
	lds r24,193
.LVL51:
	ori r24,lo8(32)
	sts 193,r24
.LVL52:
	adiw r30,1
.LVL53:
.L74:
.LBE57:
.LBE56:
.LBB59:
	.loc 1 157 0
/* #APP */
 ;  157 ".././serial.c" 1
	lpm r18, Z
	
 ;  0 "" 2
.LVL54:
/* #NOAPP */
.LBE59:
	.loc 1 157 0
	cpse r18,__zero_reg__
	rjmp .L70
.LVL55:
.L48:
	ldi r30,lo8(cr_lf)
	ldi r31,hi8(cr_lf)
.LVL56:
.L62:
.LBE54:
.LBE53:
.LBE52:
.LBE51:
.LBB64:
.LBB65:
.LBB66:
.LBB67:
	.loc 1 157 0
/* #APP */
 ;  157 ".././serial.c" 1
	lpm r18, Z
	
 ;  0 "" 2
.LVL57:
/* #NOAPP */
.LBE67:
	.loc 1 157 0
	tst r18
	brne .+2
	rjmp .L23
	.loc 1 157 0
	lds r24,serusbOvflFlag
	cpi r24,lo8(-1)
	brne .+2
	rjmp .L23
.LVL58:
.LBB68:
.LBB69:
	.loc 1 176 0
	lds r24,serusbTxInIndex
.LVL59:
	.loc 1 177 0
	lds r25,193
	andi r25,lo8(-33)
	sts 193,r25
	.loc 1 178 0
	mov r26,r24
	ldi r27,0
	subi r26,lo8(-(serUsbTxBuffer))
	sbci r27,hi8(-(serUsbTxBuffer))
	st X,r18
	.loc 1 179 0
	subi r24,lo8(-(1))
.LVL60:
	.loc 1 180 0
	lds r25,serusbTxOutIndex
	cp r24,r25
	breq .L71
	.loc 1 190 0
	sts serusbTxInIndex,r24
	.loc 1 191 0
	lds r24,193
.LVL61:
	ori r24,lo8(32)
	sts 193,r24
.LVL62:
	adiw r30,1
.LVL63:
	rjmp .L62
.LVL64:
.L65:
.LBE69:
.LBE68:
.LBE66:
.LBE65:
.LBE64:
.LBB74:
.LBB41:
.LBB40:
.LBB38:
	.loc 1 185 0
	lds r25,193
	ori r25,lo8(32)
	sts 193,r25
.L28:
	.loc 1 186 0
	lds r25,serusbTxOutIndex
	cp r24,r25
	breq .L28
	.loc 1 187 0
	sts serusbTxInIndex,r24
	adiw r30,1
.LVL65:
	rjmp .L72
.LVL66:
.L67:
.LBE38:
.LBE40:
.LBE41:
.LBE74:
.LBB75:
.LBB50:
.LBB49:
.LBB47:
	.loc 1 185 0
	lds r25,193
	ori r25,lo8(32)
	sts 193,r25
.L34:
	.loc 1 186 0
	lds r25,serusbTxOutIndex
	cp r24,r25
	breq .L34
	.loc 1 187 0
	sts serusbTxInIndex,r24
	adiw r30,1
.LVL67:
	rjmp .L73
.LVL68:
.L69:
.LBE47:
.LBE49:
.LBE50:
.LBE75:
.LBB76:
.LBB63:
.LBB62:
.LBB61:
.LBB60:
.LBB58:
	.loc 1 185 0
	lds r25,193
	ori r25,lo8(32)
	sts 193,r25
.L40:
	.loc 1 186 0
	lds r25,serusbTxOutIndex
	cp r24,r25
	breq .L40
	.loc 1 187 0
	sts serusbTxInIndex,r24
	adiw r30,1
.LVL69:
	rjmp .L74
.LVL70:
.L71:
.LBE58:
.LBE60:
.LBE61:
.LBE62:
.LBE63:
.LBE76:
.LBB77:
.LBB73:
.LBB72:
.LBB71:
.LBB70:
	.loc 1 185 0
	lds r25,193
	ori r25,lo8(32)
	sts 193,r25
.L45:
	.loc 1 186 0
	lds r25,serusbTxOutIndex
	cp r24,r25
	breq .L45
	.loc 1 187 0
	sts serusbTxInIndex,r24
	adiw r30,1
.LVL71:
	rjmp .L62
.LVL72:
.L63:
.LBE70:
.LBE71:
.LBE72:
.LBE73:
.LBE77:
	.loc 1 143 0
	sts serusb_Active,__zero_reg__
	.loc 1 144 0
	ldi r20,0
	ldi r21,0
	ldi r22,lo8(4)
	ldi r24,lo8(1)
	call log_putError
.LVL73:
	rjmp .L24
	.cfi_endproc
.LFE11:
	.size	init_Serial0SerUSB, .-init_Serial0SerUSB
	.section	.text.serial0SER_USB_sendStringP,"ax",@progbits
.global	serial0SER_USB_sendStringP
	.type	serial0SER_USB_sendStringP, @function
serial0SER_USB_sendStringP:
.LFB12:
	.loc 1 155 0
	.cfi_startproc
.LVL74:
/* prologue: function */
/* frame size = 0 */
/* stack size = 0 */
.L__stack_usage = 0
	movw r30,r24
.LVL75:
.LBB82:
	.loc 1 157 0
/* #APP */
 ;  157 ".././serial.c" 1
	lpm r24, Z
	
 ;  0 "" 2
.LVL76:
/* #NOAPP */
.LBE82:
	.loc 1 157 0
	tst r24
	breq .L75
.LVL77:
.L87:
	.loc 1 157 0 discriminator 1
	lds r25,serusbOvflFlag
	cpi r25,lo8(-1)
	breq .L75
.LVL78:
.LBB83:
.LBB84:
	.loc 1 176 0
	lds r25,serusbTxInIndex
.LVL79:
	.loc 1 177 0
	lds r18,193
	andi r18,lo8(-33)
	sts 193,r18
	.loc 1 178 0
	mov r26,r25
	ldi r27,0
	subi r26,lo8(-(serUsbTxBuffer))
	sbci r27,hi8(-(serUsbTxBuffer))
	st X,r24
	.loc 1 179 0
	subi r25,lo8(-(1))
.LVL80:
	.loc 1 180 0
	lds r24,serusbTxOutIndex
.LVL81:
	cp r25,r24
	breq .L86
	.loc 1 190 0
	sts serusbTxInIndex,r25
	.loc 1 191 0
	lds r24,193
	ori r24,lo8(32)
	sts 193,r24
.LVL82:
	adiw r30,1
.LVL83:
.L88:
.LBE84:
.LBE83:
.LBB86:
	.loc 1 157 0
/* #APP */
 ;  157 ".././serial.c" 1
	lpm r24, Z
	
 ;  0 "" 2
.LVL84:
/* #NOAPP */
.LBE86:
	.loc 1 157 0
	cpse r24,__zero_reg__
	rjmp .L87
.LVL85:
.L75:
	ret
.LVL86:
.L86:
.LBB87:
.LBB85:
	.loc 1 185 0
	lds r24,193
	ori r24,lo8(32)
	sts 193,r24
.LVL87:
.L78:
	.loc 1 186 0
	lds r18,serusbTxOutIndex
	cp r25,r18
	breq .L78
	.loc 1 187 0
	sts serusbTxInIndex,r25
	adiw r30,1
.LVL88:
	rjmp .L88
.LBE85:
.LBE87:
	.cfi_endproc
.LFE12:
	.size	serial0SER_USB_sendStringP, .-serial0SER_USB_sendStringP
	.section	.text.serial0SER_USB_sendString,"ax",@progbits
.global	serial0SER_USB_sendString
	.type	serial0SER_USB_sendString, @function
serial0SER_USB_sendString:
.LFB13:
	.loc 1 163 0
	.cfi_startproc
.LVL89:
/* prologue: function */
/* frame size = 0 */
/* stack size = 0 */
.L__stack_usage = 0
	.loc 1 165 0
	movw r30,r24
	ld r19,Z
	tst r19
	breq .L89
	lds r18,serusbOvflFlag
	cpi r18,lo8(-1)
	breq .L89
	movw r26,r24
	adiw r26,1
	movw r20,r24
	subi r20,-81
	sbci r21,-1
	rjmp .L95
.LVL90:
.L92:
.LBB90:
.LBB91:
	.loc 1 190 0
	sts serusbTxInIndex,r25
	.loc 1 191 0
	lds r25,193
.LVL91:
	ori r25,lo8(32)
	sts 193,r25
.LVL92:
.LBE91:
.LBE90:
	.loc 1 165 0
	ld r19,X+
.LVL93:
	tst r19
	breq .L89
.LVL94:
.L107:
	.loc 1 165 0 is_stmt 0 discriminator 1
	lds r24,serusbOvflFlag
	cpi r24,lo8(-1)
	breq .L89
	.loc 1 165 0 discriminator 2
	cp r26,r20
	cpc r27,r21
	breq .L89
.L95:
.LVL95:
.LBB93:
.LBB92:
	.loc 1 176 0 is_stmt 1
	lds r25,serusbTxInIndex
.LVL96:
	.loc 1 177 0
	lds r18,193
	andi r18,lo8(-33)
	sts 193,r18
	.loc 1 178 0
	mov r30,r25
	ldi r31,0
	subi r30,lo8(-(serUsbTxBuffer))
	sbci r31,hi8(-(serUsbTxBuffer))
	st Z,r19
	.loc 1 179 0
	subi r25,lo8(-(1))
.LVL97:
	.loc 1 180 0
	lds r18,serusbTxOutIndex
	cpse r25,r18
	rjmp .L92
	.loc 1 185 0
	lds r24,193
	ori r24,lo8(32)
	sts 193,r24
.L93:
	.loc 1 186 0
	lds r18,serusbTxOutIndex
	cp r25,r18
	breq .L93
	.loc 1 187 0
	sts serusbTxInIndex,r25
.LVL98:
.LBE92:
.LBE93:
	.loc 1 165 0
	ld r19,X+
.LVL99:
	cpse r19,__zero_reg__
	rjmp .L107
.LVL100:
.L89:
	ret
	.cfi_endproc
.LFE13:
	.size	serial0SER_USB_sendString, .-serial0SER_USB_sendString
	.section	.text.serial0SER_USB_sendCRLF,"ax",@progbits
.global	serial0SER_USB_sendCRLF
	.type	serial0SER_USB_sendCRLF, @function
serial0SER_USB_sendCRLF:
.LFB14:
	.loc 1 171 0
	.cfi_startproc
/* prologue: function */
/* frame size = 0 */
/* stack size = 0 */
.L__stack_usage = 0
.LVL101:
	.loc 1 171 0
	ldi r30,lo8(cr_lf)
	ldi r31,hi8(cr_lf)
.LVL102:
.LBB99:
.LBB100:
.LBB101:
	.loc 1 157 0
/* #APP */
 ;  157 ".././serial.c" 1
	lpm r18, Z
	
 ;  0 "" 2
.LVL103:
/* #NOAPP */
.LBE101:
	.loc 1 157 0
	tst r18
	breq .L108
.LVL104:
.L120:
	.loc 1 157 0
	lds r24,serusbOvflFlag
	cpi r24,lo8(-1)
	breq .L108
.LVL105:
.LBB102:
.LBB103:
	.loc 1 176 0
	lds r24,serusbTxInIndex
.LVL106:
	.loc 1 177 0
	lds r25,193
	andi r25,lo8(-33)
	sts 193,r25
	.loc 1 178 0
	mov r26,r24
	ldi r27,0
	subi r26,lo8(-(serUsbTxBuffer))
	sbci r27,hi8(-(serUsbTxBuffer))
	st X,r18
	.loc 1 179 0
	subi r24,lo8(-(1))
.LVL107:
	.loc 1 180 0
	lds r25,serusbTxOutIndex
	cp r24,r25
	breq .L119
	.loc 1 190 0
	sts serusbTxInIndex,r24
	.loc 1 191 0
	lds r24,193
.LVL108:
	ori r24,lo8(32)
	sts 193,r24
.LVL109:
	adiw r30,1
.LVL110:
.L121:
.LBE103:
.LBE102:
.LBB105:
	.loc 1 157 0
/* #APP */
 ;  157 ".././serial.c" 1
	lpm r18, Z
	
 ;  0 "" 2
.LVL111:
/* #NOAPP */
.LBE105:
	.loc 1 157 0
	cpse r18,__zero_reg__
	rjmp .L120
.LVL112:
.L108:
	ret
.LVL113:
.L119:
.LBB106:
.LBB104:
	.loc 1 185 0
	lds r25,193
	ori r25,lo8(32)
	sts 193,r25
.L111:
	.loc 1 186 0
	lds r25,serusbTxOutIndex
	cp r24,r25
	breq .L111
	.loc 1 187 0
	sts serusbTxInIndex,r24
	adiw r30,1
.LVL114:
	rjmp .L121
.LBE104:
.LBE106:
.LBE100:
.LBE99:
	.cfi_endproc
.LFE14:
	.size	serial0SER_USB_sendCRLF, .-serial0SER_USB_sendCRLF
	.section	.text.serial0SER_USBSend,"ax",@progbits
.global	serial0SER_USBSend
	.type	serial0SER_USBSend, @function
serial0SER_USBSend:
.LFB15:
	.loc 1 175 0
	.cfi_startproc
.LVL115:
/* prologue: function */
/* frame size = 0 */
/* stack size = 0 */
.L__stack_usage = 0
	.loc 1 176 0
	lds r25,serusbTxInIndex
.LVL116:
	.loc 1 177 0
	lds r18,193
	andi r18,lo8(-33)
	sts 193,r18
	.loc 1 178 0
	mov r30,r25
	ldi r31,0
	subi r30,lo8(-(serUsbTxBuffer))
	sbci r31,hi8(-(serUsbTxBuffer))
	st Z,r24
	.loc 1 179 0
	ldi r24,lo8(1)
.LVL117:
	add r24,r25
.LVL118:
	.loc 1 180 0
	lds r25,serusbTxOutIndex
	cp r24,r25
	breq .L127
	.loc 1 190 0
	sts serusbTxInIndex,r24
	.loc 1 191 0
	lds r24,193
.LVL119:
	ori r24,lo8(32)
	sts 193,r24
.LVL120:
	ret
.LVL121:
.L127:
	.loc 1 185 0
	lds r25,193
	ori r25,lo8(32)
	sts 193,r25
.LVL122:
.L124:
	.loc 1 186 0 discriminator 1
	lds r25,serusbTxOutIndex
	cp r24,r25
	breq .L124
	.loc 1 187 0
	sts serusbTxInIndex,r24
	ret
	.cfi_endproc
.LFE15:
	.size	serial0SER_USBSend, .-serial0SER_USBSend
	.section	.text.serial0SER_USBReadRx,"ax",@progbits
.global	serial0SER_USBReadRx
	.type	serial0SER_USBReadRx, @function
serial0SER_USBReadRx:
.LFB16:
	.loc 1 195 0
	.cfi_startproc
/* prologue: function */
/* frame size = 0 */
/* stack size = 0 */
.L__stack_usage = 0
	.loc 1 197 0
	lds r25,serusbRxOutIndex
.LVL123:
	.loc 1 198 0
	lds r18,serusbRxInIndex
	lds r24,serusbRxOutIndex
	cp r18,r24
	breq .L130
.LVL124:
	.loc 1 201 0
	mov r30,r25
	ldi r31,0
	subi r30,lo8(-(serUsbRxBuffer))
	sbci r31,hi8(-(serUsbRxBuffer))
	ld r24,Z
.LVL125:
	.loc 1 202 0
	subi r25,lo8(-(1))
.LVL126:
	andi r25,lo8(63)
.LVL127:
	sts serusbRxOutIndex,r25
	ret
.LVL128:
.L130:
	.loc 1 199 0
	ldi r24,0
.LVL129:
	.loc 1 205 0
	ret
	.cfi_endproc
.LFE16:
	.size	serial0SER_USBReadRx, .-serial0SER_USBReadRx
	.section	.text.__vector_25,"ax",@progbits
.global	__vector_25
	.type	__vector_25, @function
__vector_25:
.LFB17:
	.loc 1 207 0
	.cfi_startproc
	push r1
.LCFI12:
	.cfi_def_cfa_offset 4
	.cfi_offset 1, -3
	push r0
.LCFI13:
	.cfi_def_cfa_offset 5
	.cfi_offset 0, -4
	in r0,__SREG__
	push r0
	clr __zero_reg__
	in r0,__RAMPZ__
	push r0
	push r24
.LCFI14:
	.cfi_def_cfa_offset 6
	.cfi_offset 24, -5
	push r25
.LCFI15:
	.cfi_def_cfa_offset 7
	.cfi_offset 25, -6
	push r30
.LCFI16:
	.cfi_def_cfa_offset 8
	.cfi_offset 30, -7
	push r31
.LCFI17:
	.cfi_def_cfa_offset 9
	.cfi_offset 31, -8
/* prologue: Signal */
/* frame size = 0 */
/* stack size = 8 */
.L__stack_usage = 8
	.loc 1 209 0
	lds r30,serusbRxInIndex
.LVL130:
	.loc 1 210 0
	lds r25,198
.LVL131:
	.loc 1 211 0
	ldi r24,lo8(1)
	add r24,r30
.LVL132:
	ldi r31,0
	subi r30,lo8(-(serUsbRxBuffer))
	sbci r31,hi8(-(serUsbRxBuffer))
	st Z,r25
	.loc 1 212 0
	andi r24,lo8(63)
.LVL133:
	.loc 1 213 0
	lds r25,serusbRxOutIndex
.LVL134:
	cp r24,r25
	breq .L134
	.loc 1 217 0
	sts serusbRxInIndex,r24
.LVL135:
.L131:
/* epilogue start */
	.loc 1 219 0
	pop r31
	pop r30
.LVL136:
	pop r25
	pop r24
	pop r0
	out __RAMPZ__,r0
	pop r0
	out __SREG__,r0
	pop r0
	pop r1
	reti
.LVL137:
.L134:
	.loc 1 215 0
	ldi r24,lo8(-1)
.LVL138:
	sts serusbOvflFlag,r24
	rjmp .L131
	.cfi_endproc
.LFE17:
	.size	__vector_25, .-__vector_25
	.section	.text.__vector_26,"ax",@progbits
.global	__vector_26
	.type	__vector_26, @function
__vector_26:
.LFB18:
	.loc 1 221 0
	.cfi_startproc
	push r1
.LCFI18:
	.cfi_def_cfa_offset 4
	.cfi_offset 1, -3
	push r0
.LCFI19:
	.cfi_def_cfa_offset 5
	.cfi_offset 0, -4
	in r0,__SREG__
	push r0
	clr __zero_reg__
	in r0,__RAMPZ__
	push r0
	push r18
.LCFI20:
	.cfi_def_cfa_offset 6
	.cfi_offset 18, -5
	push r24
.LCFI21:
	.cfi_def_cfa_offset 7
	.cfi_offset 24, -6
	push r25
.LCFI22:
	.cfi_def_cfa_offset 8
	.cfi_offset 25, -7
	push r30
.LCFI23:
	.cfi_def_cfa_offset 9
	.cfi_offset 30, -8
	push r31
.LCFI24:
	.cfi_def_cfa_offset 10
	.cfi_offset 31, -9
/* prologue: Signal */
/* frame size = 0 */
/* stack size = 9 */
.L__stack_usage = 9
	.loc 1 222 0
	lds r24,serusbTxOutIndex
.LVL139:
	.loc 1 223 0
	lds r18,serusbTxInIndex
	lds r25,serusbTxOutIndex
	cp r18,r25
	breq .L136
	.loc 1 225 0
	mov r30,r24
	ldi r31,0
	subi r30,lo8(-(serUsbTxBuffer))
	sbci r31,hi8(-(serUsbTxBuffer))
	ld r25,Z
	sts 198,r25
	.loc 1 226 0
	subi r24,lo8(-(1))
.LVL140:
	sts serusbTxOutIndex,r24
.LVL141:
.L135:
/* epilogue start */
	.loc 1 232 0
	pop r31
	pop r30
	pop r25
	pop r24
	pop r18
	pop r0
	out __RAMPZ__,r0
	pop r0
	out __SREG__,r0
	pop r0
	pop r1
	reti
.LVL142:
.L136:
	.loc 1 229 0
	lds r24,193
.LVL143:
	andi r24,lo8(-33)
	sts 193,r24
	.loc 1 232 0
	rjmp .L135
	.cfi_endproc
.LFE18:
	.size	__vector_26, .-__vector_26
	.comm	midiTxOvflCount,1,1
	.comm	midiRxOvflCount,1,1
	.comm	midiTxOvfl,1,1
	.comm	midiRxOvfl,1,1
	.comm	midiRxBytesCount,2,1
	.comm	midiTxBytesCount,2,1
	.comm	serusbOvflFlag,1,1
	.comm	serusbTxInIndex,1,1
	.comm	serusbTxOutIndex,1,1
	.comm	serusbRxOutIndex,1,1
	.comm	serusbRxInIndex,1,1
	.comm	serUsbTxBuffer,256,1
	.comm	serUsbRxBuffer,64,1
	.comm	serusb_Active,1,1
	.comm	midiTxOutIndex,1,1
	.comm	midiTxInIndex,1,1
	.comm	midiRxOutIndex,1,1
	.comm	midiRxInIndex,1,1
	.comm	midiTxBuffer,32,1
	.comm	midiRxBuffer,32,1
	.comm	lcdData,10,1
	.text
.Letext0:
	.file 2 "c:\\program files (x86)\\atmel\\studio\\7.0\\toolchain\\avr8\\avr8-gnu-toolchain\\avr\\include\\stdint.h"
	.file 3 ".././utils.h"
	.file 4 ".././menu.h"
	.file 5 ".././ee_prom.h"
	.file 6 ".././log.h"