	.file	"utils.c"
__SP_H__ = 0x3e
__SP_L__ = 0x3d
__SREG__ = 0x3f
__RAMPZ__ = 0x3b
__tmp_reg__ = 0
__zero_reg__ = 1
	.text
.Ltext0:
	.cfi_sections	.debug_frame
	.section	.text.nibbleToChr,"ax",@progbits
.global	nibbleToChr
	.type	nibbleToChr, @function
nibbleToChr:
.LFB12:
	.file 1 ".././utils.c"
	.loc 1 26 0
	.cfi_startproc
.LVL0:
/* prologue: function */
/* frame size = 0 */
/* stack size = 0 */
.L__stack_usage = 0
	.loc 1 27 0
	cpi r24,lo8(10)
	brsh .L5
	.loc 1 30 0
	subi r24,lo8(-(48))
.LVL1:
	.loc 1 32 0
	ret
.LVL2:
.L5:
	.loc 1 28 0
	subi r24,lo8(-(55))
.LVL3:
	ret
	.cfi_endproc
.LFE12:
	.size	nibbleToChr, .-nibbleToChr
	.section	.text.lcd_setCG,"ax",@progbits
.global	lcd_setCG
	.type	lcd_setCG, @function
lcd_setCG:
.LFB13:
	.loc 1 70 0
	.cfi_startproc
.LVL4:
	push r16
.LCFI0:
	.cfi_def_cfa_offset 4
	.cfi_offset 16, -3
	push r17
.LCFI1:
	.cfi_def_cfa_offset 5
	.cfi_offset 17, -4
	push r28
.LCFI2:
	.cfi_def_cfa_offset 6
	.cfi_offset 28, -5
	push r29
.LCFI3:
	.cfi_def_cfa_offset 7
	.cfi_offset 29, -6
/* prologue: function */
/* frame size = 0 */
/* stack size = 4 */
.L__stack_usage = 4
	movw r28,r22
	.loc 1 71 0
	ldi r18,lo8(8)
	mul r24,r18
	movw r24,r0
	clr __zero_reg__
.LVL5:
	ori r24,lo8(64)
	call lcd_write_command
.LVL6:
	movw r16,r28
	subi r16,-8
	sbci r17,-1
.LVL7:
.L7:
.LBB4:
.LBB5:
	.loc 1 73 0 discriminator 3
	movw r30,r28
/* #APP */
 ;  73 ".././utils.c" 1
	lpm r24, Z
	
 ;  0 "" 2
.LVL8:
/* #NOAPP */
.LBE5:
	.loc 1 73 0 discriminator 3
	call lcd_write_character
.LVL9:
	adiw r28,1
.LVL10:
	.loc 1 72 0 discriminator 3
	cp r28,r16
	cpc r29,r17
	brne .L7
/* epilogue start */
.LBE4:
	.loc 1 75 0
	pop r29
	pop r28
.LVL11:
	pop r17
	pop r16
	ret
	.cfi_endproc
.LFE13:
	.size	lcd_setCG, .-lcd_setCG
	.section	.text.lcd_initCG,"ax",@progbits
.global	lcd_initCG
	.type	lcd_initCG, @function
lcd_initCG:
.LFB14:
	.loc 1 77 0
	.cfi_startproc
	push r16
.LCFI4:
	.cfi_def_cfa_offset 4
	.cfi_offset 16, -3
	push r17
.LCFI5:
	.cfi_def_cfa_offset 5
	.cfi_offset 17, -4
	push r28
.LCFI6:
	.cfi_def_cfa_offset 6
	.cfi_offset 28, -5
	push r29
.LCFI7:
	.cfi_def_cfa_offset 7
	.cfi_offset 29, -6
/* prologue: function */
/* frame size = 0 */
/* stack size = 4 */
.L__stack_usage = 4
.LVL12:
.LBB18:
.LBB19:
	.loc 1 71 0
	ldi r24,lo8(64)
	call lcd_write_command
.LVL13:
	ldi r28,lo8(cgPattern_Up)
	ldi r29,hi8(cgPattern_Up)
.LVL14:
.L10:
.LBB20:
.LBB21:
	.loc 1 73 0
	movw r30,r28
/* #APP */
 ;  73 ".././utils.c" 1
	lpm r24, Z
	
 ;  0 "" 2
.LVL15:
/* #NOAPP */
.LBE21:
	.loc 1 73 0
	call lcd_write_character
.LVL16:
	adiw r28,1
.LVL17:
	.loc 1 72 0
	ldi r31,hi8(cgPattern_Up+8)
	cpi r28,lo8(cgPattern_Up+8)
	cpc r29,r31
	brne .L10
.LVL18:
.LBE20:
.LBE19:
.LBE18:
.LBB22:
.LBB23:
	.loc 1 71 0
	ldi r24,lo8(72)
	call lcd_write_command
.LVL19:
	ldi r16,lo8(cgPattern_Down+8)
	ldi r17,hi8(cgPattern_Down+8)
	ldi r28,lo8(cgPattern_Down)
	ldi r29,hi8(cgPattern_Down)
.LVL20:
.L11:
.LBB24:
.LBB25:
	.loc 1 73 0
	movw r30,r28
/* #APP */
 ;  73 ".././utils.c" 1
	lpm r24, Z
	
 ;  0 "" 2
.LVL21:
/* #NOAPP */
.LBE25:
	.loc 1 73 0
	call lcd_write_character
.LVL22:
	adiw r28,1
.LVL23:
	.loc 1 72 0
	cp r16,r28
	cpc r17,r29
	brne .L11
.LVL24:
.LBE24:
.LBE23:
.LBE22:
.LBB26:
.LBB27:
	.loc 1 71 0
	ldi r24,lo8(80)
	call lcd_write_command
.LVL25:
	ldi r28,lo8(cgPattern_Block)
	ldi r29,hi8(cgPattern_Block)
.LVL26:
.L12:
.LBB28:
.LBB29:
	.loc 1 73 0
	movw r30,r28
/* #APP */
 ;  73 ".././utils.c" 1
	lpm r24, Z
	
 ;  0 "" 2
.LVL27:
/* #NOAPP */
.LBE29:
	.loc 1 73 0
	call lcd_write_character
.LVL28:
	adiw r28,1
.LVL29:
	.loc 1 72 0
	ldi r31,hi8(cgPattern_Block+8)
	cpi r28,lo8(cgPattern_Block+8)
	cpc r29,r31
	brne .L12
/* epilogue start */
.LBE28:
.LBE27:
.LBE26:
	.loc 1 81 0
	pop r29
	pop r28
.LVL30:
	pop r17
	pop r16
	ret
	.cfi_endproc
.LFE14:
	.size	lcd_initCG, .-lcd_initCG
	.section	.text.lcd_hexout,"ax",@progbits
.global	lcd_hexout
	.type	lcd_hexout, @function
lcd_hexout:
.LFB15:
	.loc 1 83 0
	.cfi_startproc
.LVL31:
	push r28
.LCFI8:
	.cfi_def_cfa_offset 4
	.cfi_offset 28, -3
/* prologue: function */
/* frame size = 0 */
/* stack size = 1 */
.L__stack_usage = 1
	mov r28,r24
	.loc 1 84 0
	swap r24
.LVL32:
	andi r24,lo8(15)
.LVL33:
	.loc 1 85 0
	cpi r24,lo8(10)
	brlo .L17
	.loc 1 85 0 is_stmt 0 discriminator 1
	subi r24,lo8(-(55))
.LVL34:
	call lcd_putc
.LVL35:
	.loc 1 86 0 is_stmt 1 discriminator 1
	andi r28,lo8(15)
.LVL36:
	.loc 1 87 0 discriminator 1
	cpi r28,lo8(10)
	brsh .L21
.L19:
	.loc 1 87 0 is_stmt 0 discriminator 2
	ldi r24,lo8(48)
	add r24,r28
/* epilogue start */
	.loc 1 88 0 is_stmt 1 discriminator 2
	pop r28
.LVL37:
	.loc 1 87 0 discriminator 2
	jmp lcd_putc
.LVL38:
.L17:
	.loc 1 85 0 discriminator 2
	subi r24,lo8(-(48))
.LVL39:
	call lcd_putc
.LVL40:
	.loc 1 86 0 discriminator 2
	andi r28,lo8(15)
.LVL41:
	.loc 1 87 0 discriminator 2
	cpi r28,lo8(10)
	brlo .L19
.L21:
	.loc 1 87 0 is_stmt 0 discriminator 1
	ldi r24,lo8(55)
	add r24,r28
/* epilogue start */
	.loc 1 88 0 is_stmt 1 discriminator 1
	pop r28
.LVL42:
	.loc 1 87 0 discriminator 1
	jmp lcd_putc
.LVL43:
	.cfi_endproc
.LFE15:
	.size	lcd_hexout, .-lcd_hexout
	.section	.text.lcd_longout,"ax",@progbits
.global	lcd_longout
	.type	lcd_longout, @function
lcd_longout:
.LFB16:
	.loc 1 90 0
	.cfi_startproc
	push r16
.LCFI9:
	.cfi_def_cfa_offset 4
	.cfi_offset 16, -3
	push r17
.LCFI10:
	.cfi_def_cfa_offset 5
	.cfi_offset 17, -4
	push r28
.LCFI11:
	.cfi_def_cfa_offset 6
	.cfi_offset 28, -5
/* prologue: function */
/* frame size = 0 */
/* stack size = 3 */
.L__stack_usage = 3
.LVL44:
	ldi r16,lo8(editLong+4)
	ldi r17,hi8(editLong+4)
.LVL45:
.L27:
.LBB30:
.LBB31:
	.loc 1 94 0
	movw r30,r16
	ld r28,-Z
	movw r16,r30
.LVL46:
	.loc 1 95 0
	mov r24,r28
	swap r24
	andi r24,lo8(15)
.LVL47:
	.loc 1 96 0
	cpi r24,lo8(10)
	brlo .L23
	.loc 1 96 0 is_stmt 0 discriminator 1
	subi r24,lo8(-(55))
.LVL48:
.L24:
	.loc 1 96 0 discriminator 4
	call lcd_putc
.LVL49:
	.loc 1 97 0 is_stmt 1 discriminator 4
	andi r28,lo8(15)
.LVL50:
	.loc 1 98 0 discriminator 4
	cpi r28,lo8(10)
	brlo .L25
	.loc 1 98 0 is_stmt 0 discriminator 1
	ldi r24,lo8(55)
	add r24,r28
.L26:
	.loc 1 98 0 discriminator 4
	call lcd_putc
.LVL51:
.LBE31:
	.loc 1 93 0 is_stmt 1 discriminator 4
	ldi r31,hi8(editLong)
	cpi r16,lo8(editLong)
	cpc r17,r31
	brne .L27
/* epilogue start */
.LBE30:
	.loc 1 100 0
	pop r28
.LVL52:
	pop r17
	pop r16
.LVL53:
	ret
.LVL54:
.L25:
.LBB33:
.LBB32:
	.loc 1 98 0 discriminator 2
	ldi r24,lo8(48)
	add r24,r28
	rjmp .L26
.LVL55:
.L23:
	.loc 1 96 0 discriminator 2
	subi r24,lo8(-(48))
.LVL56:
	rjmp .L24
.LBE32:
.LBE33:
	.cfi_endproc
.LFE16:
	.size	lcd_longout, .-lcd_longout
	.section	.text.lcd_dec2out,"ax",@progbits
.global	lcd_dec2out
	.type	lcd_dec2out, @function
lcd_dec2out:
.LFB17:
	.loc 1 102 0
	.cfi_startproc
.LVL57:
	push r28
.LCFI12:
	.cfi_def_cfa_offset 4
	.cfi_offset 28, -3
/* prologue: function */
/* frame size = 0 */
/* stack size = 1 */
.L__stack_usage = 1
	mov r28,r24
	.loc 1 103 0
	cpi r24,lo8(100)
	brsh .L30
.LVL58:
.LBB34:
	.loc 1 108 0
	cpi r24,lo8(10)
	brlo .L42
	.loc 1 109 0
	ldi r24,lo8(-10)
.LVL59:
	add r24,r28
.LVL60:
	.loc 1 108 0
	cpi r24,lo8(10)
	brsh .+2
	rjmp .L34
	.loc 1 109 0
	ldi r24,lo8(-20)
.LVL61:
	add r24,r28
.LVL62:
	.loc 1 108 0
	cpi r24,lo8(10)
	brlo .L35
	.loc 1 109 0
	ldi r24,lo8(-30)
.LVL63:
	add r24,r28
.LVL64:
	.loc 1 108 0
	cpi r24,lo8(10)
	brlo .L36
	.loc 1 109 0
	ldi r24,lo8(-40)
.LVL65:
	add r24,r28
.LVL66:
	.loc 1 108 0
	cpi r24,lo8(10)
	brlo .L37
	.loc 1 109 0
	ldi r24,lo8(-50)
.LVL67:
	add r24,r28
.LVL68:
	.loc 1 108 0
	cpi r24,lo8(10)
	brlo .L38
	.loc 1 109 0
	ldi r24,lo8(-60)
.LVL69:
	add r24,r28
.LVL70:
	.loc 1 108 0
	cpi r24,lo8(10)
	brlo .L39
	.loc 1 109 0
	ldi r24,lo8(-70)
.LVL71:
	add r24,r28
.LVL72:
	.loc 1 108 0
	cpi r24,lo8(10)
	brlo .L40
	.loc 1 109 0
	ldi r24,lo8(-80)
.LVL73:
	add r24,r28
.LVL74:
	.loc 1 108 0
	cpi r24,lo8(10)
	brlo .L41
	.loc 1 109 0
	subi r28,lo8(-(-90))
.LVL75:
	.loc 1 110 0
	ldi r24,lo8(9)
.LVL76:
.L33:
	subi r24,lo8(-(48))
.L32:
	.loc 1 112 0
	call lcd_putc
.LVL77:
	.loc 1 113 0
	ldi r24,lo8(48)
	add r24,r28
/* epilogue start */
.LBE34:
	.loc 1 115 0
	pop r28
.LBB35:
	.loc 1 113 0
	jmp lcd_putc
.LVL78:
.L30:
.LBE35:
	.loc 1 104 0
	ldi r24,lo8(45)
.LVL79:
	call lcd_putc
.LVL80:
	.loc 1 105 0
	ldi r24,lo8(45)
/* epilogue start */
	.loc 1 115 0
	pop r28
.LVL81:
	.loc 1 105 0
	jmp lcd_putc
.LVL82:
.L42:
.LBB36:
	.loc 1 108 0
	ldi r24,lo8(48)
.LVL83:
	rjmp .L32
.LVL84:
.L37:
	mov r28,r24
	.loc 1 110 0
	ldi r24,lo8(4)
.LVL85:
	rjmp .L33
.LVL86:
.L38:
	.loc 1 108 0
	mov r28,r24
	.loc 1 110 0
	ldi r24,lo8(5)
.LVL87:
	rjmp .L33
.LVL88:
.L39:
	.loc 1 108 0
	mov r28,r24
	.loc 1 110 0
	ldi r24,lo8(6)
.LVL89:
	rjmp .L33
.LVL90:
.L40:
	.loc 1 108 0
	mov r28,r24
	.loc 1 110 0
	ldi r24,lo8(7)
.LVL91:
	rjmp .L33
.LVL92:
.L35:
	.loc 1 108 0
	mov r28,r24
	.loc 1 110 0
	ldi r24,lo8(2)
.LVL93:
	rjmp .L33
.LVL94:
.L36:
	.loc 1 108 0
	mov r28,r24
	.loc 1 110 0
	ldi r24,lo8(3)
.LVL95:
	rjmp .L33
.LVL96:
.L34:
	.loc 1 108 0
	mov r28,r24
	.loc 1 110 0
	ldi r24,lo8(1)
.LVL97:
	rjmp .L33
.LVL98:
.L41:
	.loc 1 108 0
	mov r28,r24
	.loc 1 110 0
	ldi r24,lo8(8)
.LVL99:
	rjmp .L33
.LBE36:
	.cfi_endproc
.LFE17:
	.size	lcd_dec2out, .-lcd_dec2out
	.section	.text.putChar_Dec2,"ax",@progbits
.global	putChar_Dec2
	.type	putChar_Dec2, @function
putChar_Dec2:
.LFB18:
	.loc 1 117 0
	.cfi_startproc
.LVL100:
/* prologue: function */
/* frame size = 0 */
/* stack size = 0 */
.L__stack_usage = 0
	.loc 1 118 0
	cpi r24,lo8(100)
	brsh .L44
.LVL101:
.LBB37:
	.loc 1 123 0
	cpi r24,lo8(10)
	brlo .L57
	.loc 1 124 0
	ldi r25,lo8(-10)
	add r25,r24
.LVL102:
	.loc 1 123 0
	cpi r25,lo8(10)
	brsh .+2
	rjmp .L49
	.loc 1 124 0
	ldi r25,lo8(-20)
.LVL103:
	add r25,r24
.LVL104:
	.loc 1 123 0
	cpi r25,lo8(10)
	brlo .L50
	.loc 1 124 0
	ldi r25,lo8(-30)
.LVL105:
	add r25,r24
.LVL106:
	.loc 1 123 0
	cpi r25,lo8(10)
	brlo .L51
	.loc 1 124 0
	ldi r25,lo8(-40)
.LVL107:
	add r25,r24
.LVL108:
	.loc 1 123 0
	cpi r25,lo8(10)
	brlo .L52
	.loc 1 124 0
	ldi r25,lo8(-50)
.LVL109:
	add r25,r24
.LVL110:
	.loc 1 123 0
	cpi r25,lo8(10)
	brlo .L53
	.loc 1 124 0
	ldi r25,lo8(-60)
.LVL111:
	add r25,r24
.LVL112:
	.loc 1 123 0
	cpi r25,lo8(10)
	brlo .L54
	.loc 1 124 0
	ldi r25,lo8(-70)
.LVL113:
	add r25,r24
.LVL114:
	.loc 1 123 0
	cpi r25,lo8(10)
	brlo .L55
	.loc 1 124 0
	ldi r25,lo8(-80)
.LVL115:
	add r25,r24
.LVL116:
	.loc 1 123 0
	cpi r25,lo8(10)
	brlo .L56
	.loc 1 124 0
	subi r24,lo8(-(-90))
.LVL117:
	.loc 1 125 0
	ldi r25,lo8(9)
.LVL118:
.L48:
	subi r25,lo8(-(48))
.L46:
.LVL119:
	.loc 1 127 0
	movw r30,r22
	st Z,r25
	.loc 1 128 0
	adiw r30,2
.LVL120:
	ldi r25,lo8(48)
	add r25,r24
	movw r26,r22
	adiw r26,1
	st X,r25
.LBE37:
	.loc 1 130 0
	st Z,__zero_reg__
	.loc 1 132 0
	movw r24,r30
	ret
.LVL121:
.L44:
	.loc 1 119 0
	ldi r24,lo8(45)
.LVL122:
	movw r26,r22
	st X,r24
	.loc 1 120 0
	movw r30,r22
	adiw r30,2
.LVL123:
	adiw r26,1
	st X,r24
	.loc 1 130 0
	st Z,__zero_reg__
	.loc 1 132 0
	movw r24,r30
	ret
.LVL124:
.L57:
.LBB38:
	.loc 1 123 0
	ldi r25,lo8(48)
	rjmp .L46
.LVL125:
.L52:
	mov r24,r25
	.loc 1 125 0
	ldi r25,lo8(4)
.LVL126:
	rjmp .L48
.LVL127:
.L53:
	.loc 1 123 0
	mov r24,r25
	.loc 1 125 0
	ldi r25,lo8(5)
.LVL128:
	rjmp .L48
.LVL129:
.L54:
	.loc 1 123 0
	mov r24,r25
	.loc 1 125 0
	ldi r25,lo8(6)
.LVL130:
	rjmp .L48
.LVL131:
.L55:
	.loc 1 123 0
	mov r24,r25
	.loc 1 125 0
	ldi r25,lo8(7)
.LVL132:
	rjmp .L48
.LVL133:
.L50:
	.loc 1 123 0
	mov r24,r25
	.loc 1 125 0
	ldi r25,lo8(2)
.LVL134:
	rjmp .L48
.LVL135:
.L51:
	.loc 1 123 0
	mov r24,r25
	.loc 1 125 0
	ldi r25,lo8(3)
.LVL136:
	rjmp .L48
.LVL137:
.L49:
	.loc 1 123 0
	mov r24,r25
	.loc 1 125 0
	ldi r25,lo8(1)
.LVL138:
	rjmp .L48
.LVL139:
.L56:
	.loc 1 123 0
	mov r24,r25
	.loc 1 125 0
	ldi r25,lo8(8)
.LVL140:
	rjmp .L48
.LBE38:
	.cfi_endproc
.LFE18:
	.size	putChar_Dec2, .-putChar_Dec2
	.section	.text.putChar_hex,"ax",@progbits
.global	putChar_hex
	.type	putChar_hex, @function
putChar_hex:
.LFB19:
	.loc 1 134 0
	.cfi_startproc
.LVL141:
/* prologue: function */
/* frame size = 0 */
/* stack size = 0 */
.L__stack_usage = 0
	movw r30,r22
	.loc 1 135 0
	mov r25,r24
	swap r25
	andi r25,lo8(15)
.LVL142:
	.loc 1 136 0
	cpi r25,lo8(10)
	brlo .L59
	.loc 1 136 0 is_stmt 0 discriminator 1
	subi r25,lo8(-(55))
.LVL143:
.L60:
	.loc 1 136 0 discriminator 4
	st Z,r25
	.loc 1 137 0 is_stmt 1 discriminator 4
	mov r25,r24
	andi r25,lo8(15)
.LVL144:
	.loc 1 138 0 discriminator 4
	movw r18,r30
	subi r18,-2
	sbci r19,-1
.LVL145:
	cpi r25,lo8(10)
	brsh .L63
	.loc 1 138 0 is_stmt 0 discriminator 2
	subi r25,lo8(-(48))
.LVL146:
	std Z+1,r25
	.loc 1 139 0 is_stmt 1 discriminator 2
	std Z+2,__zero_reg__
	.loc 1 141 0 discriminator 2
	movw r24,r18
.LVL147:
	ret
.LVL148:
.L59:
	.loc 1 136 0 discriminator 2
	subi r25,lo8(-(48))
.LVL149:
	rjmp .L60
.LVL150:
.L63:
	.loc 1 138 0 discriminator 1
	subi r25,lo8(-(55))
.LVL151:
	std Z+1,r25
	.loc 1 139 0 discriminator 1
	std Z+2,__zero_reg__
	.loc 1 141 0 discriminator 1
	movw r24,r18
.LVL152:
	ret
	.cfi_endproc
.LFE19:
	.size	putChar_hex, .-putChar_hex
	.section	.text.putChar_long,"ax",@progbits
.global	putChar_long
	.type	putChar_long, @function
putChar_long:
.LFB20:
	.loc 1 143 0
	.cfi_startproc
.LVL153:
/* prologue: function */
/* frame size = 0 */
/* stack size = 0 */
.L__stack_usage = 0
	movw r30,r22
.LVL154:
	.loc 1 145 0
	std Z+4,__zero_reg__
.LVL155:
.LBB39:
	.loc 1 148 0
	mov r18,r24
	andi r18,lo8(15)
	.loc 1 149 0
	cpi r18,lo8(10)
	brlo .L65
	subi r18,lo8(-(55))
.L66:
	std Z+3,r18
	.loc 1 150 0
	movw r18,r24
	swap r19
	swap r18
	andi r18,0x0f
	eor r18,r19
	andi r19,0x0f
	eor r18,r19
	.loc 1 148 0
	mov r24,r18
	andi r24,lo8(15)
	.loc 1 149 0
	cpi r24,lo8(10)
	brlo .L67
	subi r24,lo8(-(55))
.L68:
	std Z+2,r24
	.loc 1 150 0
	swap r19
	swap r18
	andi r18,0x0f
	eor r18,r19
	andi r19,0x0f
	eor r18,r19
	.loc 1 148 0
	mov r24,r18
	andi r24,lo8(15)
	.loc 1 149 0
	cpi r24,lo8(10)
	brlo .L69
	subi r24,lo8(-(55))
.L70:
	std Z+1,r24
	.loc 1 148 0
	swap r19
	swap r18
	andi r18,0x0f
	eor r18,r19
	andi r19,0x0f
	eor r18,r19
	.loc 1 149 0
	cpi r18,lo8(10)
	brlo .L71
	subi r18,lo8(-(55))
	st Z,r18
.LVL156:
.LBE39:
	.loc 1 153 0
	movw r24,r30
	adiw r24,4
	ret
.LVL157:
.L65:
.LBB40:
	.loc 1 149 0
	subi r18,lo8(-(48))
	rjmp .L66
.L71:
	subi r18,lo8(-(48))
	st Z,r18
.LVL158:
.LBE40:
	.loc 1 153 0
	movw r24,r30
	adiw r24,4
	ret
.LVL159:
.L69:
.LBB41:
	.loc 1 149 0
	subi r24,lo8(-(48))
	rjmp .L70
.L67:
	subi r24,lo8(-(48))
	rjmp .L68
.LBE41:
	.cfi_endproc
.LFE20:
	.size	putChar_long, .-putChar_long
	.section	.text.putChar_Note,"ax",@progbits
.global	putChar_Note
	.type	putChar_Note, @function
putChar_Note:
.LFB21:
	.loc 1 155 0
	.cfi_startproc
.LVL160:
/* prologue: function */
/* frame size = 0 */
/* stack size = 0 */
.L__stack_usage = 0
	.loc 1 159 0
	sbrc r24,7
	rjmp .L74
	.loc 1 166 0
	ldi r25,0
	cpi r24,lo8(12)
	brlo .L76
.LVL161:
.L78:
	.loc 1 167 0
	subi r24,lo8(-(-12))
.LVL162:
	.loc 1 168 0
	subi r25,lo8(-(1))
.LVL163:
	.loc 1 166 0
	cpi r24,lo8(12)
	brsh .L78
.LVL164:
.L76:
	.loc 1 171 0
	movw r30,r22
	adiw r30,1
	.loc 1 170 0
	cpi r24,lo8(11)
	breq .L90
	.loc 1 172 0
	cpi r24,lo8(5)
	brsh .L81
.LVL165:
	.loc 1 174 0
	mov r18,r24
	lsr r18
	subi r18,lo8(-(67))
	movw r26,r22
	st X,r18
	.loc 1 175 0
	sbrc r24,0
	rjmp .L89
.L87:
	.loc 1 165 0
	ldi r24,lo8(95)
.LVL166:
.L80:
	.loc 1 191 0
	st Z,r24
	.loc 1 193 0
	movw r26,r30
	adiw r26,2
	.loc 1 192 0
	tst r25
	breq .L91
.LVL167:
.L84:
	.loc 1 194 0
	cpi r25,lo8(12)
	brlo .L92
.LVL168:
	.loc 1 197 0
	ldi r24,lo8(45)
.LVL169:
	std Z+1,r24
	.loc 1 200 0
	st X,__zero_reg__
	.loc 1 202 0
	movw r24,r26
	ret
.LVL170:
.L81:
	.loc 1 180 0
	cpi r24,lo8(9)
	brsh .L93
.LVL171:
	.loc 1 185 0
	mov r18,r24
	ldi r19,0
	subi r18,5
	sbc r19,__zero_reg__
	asr r19
	ror r18
	subi r18,lo8(-(70))
	movw r26,r22
	st X,r18
.L83:
	.loc 1 187 0
	sbrc r24,0
	rjmp .L87
.L89:
	.loc 1 188 0
	ldi r24,lo8(35)
.LVL172:
	.loc 1 191 0
	st Z,r24
	.loc 1 193 0
	movw r26,r30
	adiw r26,2
	.loc 1 192 0
	cpse r25,__zero_reg__
	rjmp .L84
.LVL173:
.L91:
	.loc 1 193 0
	ldi r24,lo8(109)
.LVL174:
	std Z+1,r24
	.loc 1 200 0
	st X,__zero_reg__
	.loc 1 202 0
	movw r24,r26
	ret
.LVL175:
.L90:
	.loc 1 171 0
	ldi r24,lo8(72)
.LVL176:
	movw r26,r22
	st X,r24
	.loc 1 165 0
	ldi r24,lo8(95)
	rjmp .L80
.LVL177:
.L93:
	.loc 1 182 0
	ldi r18,lo8(65)
	movw r26,r22
	st X,r18
	rjmp .L83
.LVL178:
.L92:
	.loc 1 195 0
	subi r25,lo8(-(47))
	std Z+1,r25
	.loc 1 200 0
	st X,__zero_reg__
	.loc 1 202 0
	movw r24,r26
.LVL179:
	ret
.LVL180:
.L74:
	.loc 1 160 0
	ldi r24,lo8(45)
.LVL181:
	movw r26,r22
	st X,r24
.LVL182:
	.loc 1 161 0
	ldi r25,lo8(110)
	adiw r26,1
	st X,r25
	sbiw r26,1
.LVL183:
	.loc 1 162 0
	adiw r26,2
	st X,r24
	sbiw r26,2
	.loc 1 163 0
	adiw r26,4
.LVL184:
	movw r30,r22
	std Z+3,__zero_reg__
	.loc 1 200 0
	st X,__zero_reg__
	.loc 1 202 0
	movw r24,r26
	ret
	.cfi_endproc
.LFE21:
	.size	putChar_Note, .-putChar_Note
	.section	.text.putChar_Manual,"ax",@progbits
.global	putChar_Manual
	.type	putChar_Manual, @function
putChar_Manual:
.LFB22:
	.loc 1 204 0
	.cfi_startproc
.LVL185:
/* prologue: function */
/* frame size = 0 */
/* stack size = 0 */
.L__stack_usage = 0
	.loc 1 206 0
	movw r30,r22
	adiw r30,1
	.loc 1 205 0
	cpi r24,lo8(3)
	brlo .L98
	.loc 1 207 0
	cpi r24,lo8(3)
	breq .L99
.LVL186:
	.loc 1 210 0
	ldi r24,lo8(45)
.LVL187:
	movw r26,r22
	st X,r24
	.loc 1 212 0
	st Z,__zero_reg__
	.loc 1 214 0
	movw r24,r30
	ret
.LVL188:
.L98:
	.loc 1 206 0
	ldi r25,lo8(51)
	sub r25,r24
	movw r26,r22
	st X,r25
	.loc 1 212 0
	st Z,__zero_reg__
	.loc 1 214 0
	movw r24,r30
.LVL189:
	ret
.LVL190:
.L99:
	.loc 1 208 0
	ldi r24,lo8(80)
.LVL191:
	movw r26,r22
	st X,r24
	.loc 1 212 0
	st Z,__zero_reg__
	.loc 1 214 0
	movw r24,r30
	ret
	.cfi_endproc
.LFE22:
	.size	putChar_Manual, .-putChar_Manual
	.section	.text.lcd_decout,"ax",@progbits
.global	lcd_decout
	.type	lcd_decout, @function
lcd_decout:
.LFB23:
	.loc 1 216 0
	.cfi_startproc
.LVL192:
	push r28
.LCFI13:
	.cfi_def_cfa_offset 4
	.cfi_offset 28, -3
/* prologue: function */
/* frame size = 0 */
/* stack size = 1 */
.L__stack_usage = 1
	mov r28,r24
.LVL193:
	.loc 1 218 0
	cpi r24,lo8(100)
	brlo .L104
.LVL194:
	.loc 1 220 0
	ldi r24,lo8(-100)
.LVL195:
	add r24,r28
.LVL196:
	.loc 1 218 0
	cpi r24,lo8(100)
	brlo .L105
.LVL197:
	.loc 1 220 0
	subi r28,lo8(-(56))
.LVL198:
	ldi r24,lo8(50)
.LVL199:
.L101:
	.loc 1 222 0
	call lcd_putc
.LVL200:
	.loc 1 224 0
	cpi r28,lo8(10)
	brlo .L106
.LVL201:
	.loc 1 226 0
	ldi r24,lo8(-10)
	add r24,r28
.LVL202:
	.loc 1 224 0
	cpi r24,lo8(10)
	brsh .+2
	rjmp .L107
.LVL203:
	.loc 1 226 0
	ldi r24,lo8(-20)
.LVL204:
	add r24,r28
.LVL205:
	.loc 1 224 0
	cpi r24,lo8(10)
	brlo .L108
.LVL206:
	.loc 1 226 0
	ldi r24,lo8(-30)
.LVL207:
	add r24,r28
.LVL208:
	.loc 1 224 0
	cpi r24,lo8(10)
	brlo .L109
.LVL209:
	.loc 1 226 0
	ldi r24,lo8(-40)
.LVL210:
	add r24,r28
.LVL211:
	.loc 1 224 0
	cpi r24,lo8(10)
	brlo .L110
.LVL212:
	.loc 1 226 0
	ldi r24,lo8(-50)
.LVL213:
	add r24,r28
.LVL214:
	.loc 1 224 0
	cpi r24,lo8(10)
	brlo .L111
.LVL215:
	.loc 1 226 0
	ldi r24,lo8(-60)
.LVL216:
	add r24,r28
.LVL217:
	.loc 1 224 0
	cpi r24,lo8(10)
	brlo .L112
.LVL218:
	.loc 1 226 0
	ldi r24,lo8(-70)
.LVL219:
	add r24,r28
.LVL220:
	.loc 1 224 0
	cpi r24,lo8(10)
	brlo .L113
.LVL221:
	.loc 1 226 0
	ldi r24,lo8(-80)
.LVL222:
	add r24,r28
.LVL223:
	.loc 1 224 0
	cpi r24,lo8(10)
	brlo .L114
.LVL224:
	.loc 1 226 0
	subi r28,lo8(-(-90))
.LVL225:
	.loc 1 225 0
	ldi r24,lo8(9)
.LVL226:
.L103:
	subi r24,lo8(-(48))
.L102:
	.loc 1 228 0
	call lcd_putc
.LVL227:
	.loc 1 230 0
	ldi r24,lo8(48)
	add r24,r28
/* epilogue start */
	.loc 1 231 0
	pop r28
.LVL228:
	.loc 1 230 0
	jmp lcd_putc
.LVL229:
.L104:
	.loc 1 218 0
	ldi r24,lo8(48)
.LVL230:
	rjmp .L101
.LVL231:
.L105:
	mov r28,r24
	ldi r24,lo8(49)
.LVL232:
	rjmp .L101
.LVL233:
.L106:
	.loc 1 224 0
	ldi r24,lo8(48)
	rjmp .L102
.LVL234:
.L109:
	mov r28,r24
	.loc 1 225 0
	ldi r24,lo8(3)
.LVL235:
	rjmp .L103
.LVL236:
.L110:
	.loc 1 224 0
	mov r28,r24
	.loc 1 225 0
	ldi r24,lo8(4)
.LVL237:
	rjmp .L103
.LVL238:
.L113:
	.loc 1 224 0
	mov r28,r24
	.loc 1 225 0
	ldi r24,lo8(7)
.LVL239:
	rjmp .L103
.LVL240:
.L114:
	.loc 1 224 0
	mov r28,r24
	.loc 1 225 0
	ldi r24,lo8(8)
.LVL241:
	rjmp .L103
.LVL242:
.L111:
	.loc 1 224 0
	mov r28,r24
	.loc 1 225 0
	ldi r24,lo8(5)
.LVL243:
	rjmp .L103
.LVL244:
.L112:
	.loc 1 224 0
	mov r28,r24
	.loc 1 225 0
	ldi r24,lo8(6)
.LVL245:
	rjmp .L103
.LVL246:
.L107:
	.loc 1 224 0
	mov r28,r24
	.loc 1 225 0
	ldi r24,lo8(1)
.LVL247:
	rjmp .L103
.LVL248:
.L108:
	.loc 1 224 0
	mov r28,r24
	.loc 1 225 0
	ldi r24,lo8(2)
.LVL249:
	rjmp .L103
	.cfi_endproc
.LFE23:
	.size	lcd_decout, .-lcd_decout
	.section	.text.lcd_wordout,"ax",@progbits
.global	lcd_wordout
	.type	lcd_wordout, @function
lcd_wordout:
.LFB24:
	.loc 1 233 0
	.cfi_startproc
.LVL250:
	push r28
.LCFI14:
	.cfi_def_cfa_offset 4
	.cfi_offset 28, -3
	push r29
.LCFI15:
	.cfi_def_cfa_offset 5
	.cfi_offset 29, -4
/* prologue: function */
/* frame size = 0 */
/* stack size = 2 */
.L__stack_usage = 2
	movw r28,r24
.LVL251:
.LBB46:
.LBB47:
	.loc 1 84 0
	mov r24,r29
.LVL252:
	swap r24
	andi r24,lo8(15)
.LVL253:
	.loc 1 85 0
	cpi r24,lo8(10)
	brlo .L116
	subi r24,lo8(-(55))
.LVL254:
	call lcd_putc
.LVL255:
	.loc 1 86 0
	andi r29,lo8(15)
.LVL256:
	.loc 1 87 0
	cpi r29,lo8(10)
	brsh .L124
.L118:
	ldi r24,lo8(48)
	add r24,r29
	call lcd_putc
.LVL257:
.LBE47:
.LBE46:
.LBB49:
.LBB50:
	.loc 1 84 0
	mov r24,r28
	swap r24
	andi r24,lo8(15)
.LVL258:
	.loc 1 85 0
	cpi r24,lo8(10)
	brlo .L120
.L126:
	subi r24,lo8(-(55))
.LVL259:
	call lcd_putc
.LVL260:
	.loc 1 86 0
	andi r28,lo8(15)
.LVL261:
	.loc 1 87 0
	cpi r28,lo8(10)
	brsh .L125
.L122:
	ldi r24,lo8(48)
	add r24,r28
/* epilogue start */
.LBE50:
.LBE49:
	.loc 1 238 0
	pop r29
	pop r28
.LVL262:
.LBB54:
.LBB51:
	.loc 1 87 0
	jmp lcd_putc
.LVL263:
.L116:
.LBE51:
.LBE54:
.LBB55:
.LBB48:
	.loc 1 85 0
	subi r24,lo8(-(48))
.LVL264:
	call lcd_putc
.LVL265:
	.loc 1 86 0
	andi r29,lo8(15)
.LVL266:
	.loc 1 87 0
	cpi r29,lo8(10)
	brlo .L118
.L124:
	ldi r24,lo8(55)
	add r24,r29
	call lcd_putc
.LVL267:
.LBE48:
.LBE55:
.LBB56:
.LBB52:
	.loc 1 84 0
	mov r24,r28
	swap r24
	andi r24,lo8(15)
.LVL268:
	.loc 1 85 0
	cpi r24,lo8(10)
	brsh .L126
.L120:
	subi r24,lo8(-(48))
.LVL269:
	call lcd_putc
.LVL270:
	.loc 1 86 0
	andi r28,lo8(15)
.LVL271:
	.loc 1 87 0
	cpi r28,lo8(10)
	brlo .L122
.L125:
	ldi r24,lo8(55)
	add r24,r28
/* epilogue start */
.LBE52:
.LBE56:
	.loc 1 238 0
	pop r29
	pop r28
.LVL272:
.LBB57:
.LBB53:
	.loc 1 87 0
	jmp lcd_putc
.LVL273:
.LBE53:
.LBE57:
	.cfi_endproc
.LFE24:
	.size	lcd_wordout, .-lcd_wordout
	.section	.text.lcd_noteOut,"ax",@progbits
.global	lcd_noteOut
	.type	lcd_noteOut, @function
lcd_noteOut:
.LFB25:
	.loc 1 240 0
	.cfi_startproc
.LVL274:
	push r28
.LCFI16:
	.cfi_def_cfa_offset 4
	.cfi_offset 28, -3
	push r29
.LCFI17:
	.cfi_def_cfa_offset 5
	.cfi_offset 29, -4
/* prologue: function */
/* frame size = 0 */
/* stack size = 2 */
.L__stack_usage = 2
.LVL275:
	.loc 1 246 0
	sbrc r24,7
	rjmp .L146
	.loc 1 252 0
	cpi r24,lo8(12)
	brsh .+2
	rjmp .L129
	ldi r25,0
.LVL276:
.L130:
	.loc 1 253 0
	subi r25,lo8(-(1))
.LVL277:
	.loc 1 254 0
	subi r24,lo8(-(-12))
.LVL278:
	.loc 1 252 0
	cpi r24,lo8(12)
	brsh .L130
	.loc 1 256 0
	mov r20,r24
	ldi r21,0
	movw r30,r20
	sbiw r30,1
	cpi r30,11
	cpc r31,__zero_reg__
	brlo .L164
.LVL279:
.L131:
	.loc 1 258 0
	ldi r29,lo8(-91)
	.loc 1 260 0
	ldi r24,lo8(67)
.LVL280:
.L144:
	.loc 1 291 0
	tst r25
	breq .L165
.LVL281:
.L132:
	.loc 1 294 0
	ldi r28,lo8(47)
	add r28,r25
.LVL282:
.L128:
	.loc 1 297 0
	call lcd_putc
.LVL283:
	.loc 1 298 0
	mov r24,r29
	call lcd_putc
.LVL284:
	.loc 1 299 0
	mov r24,r28
	call lcd_putc
.LVL285:
	.loc 1 301 0
	ldi r24,lo8(3)
/* epilogue start */
	pop r29
.LVL286:
	pop r28
.LVL287:
	ret
.LVL288:
.L164:
	.loc 1 256 0
	clr r24
	subi r30,pm_lo8(-(.L133))
	sbci r31,pm_hi8(-(.L133))
	sbci r24,pm_hh8(-(.L133))
	jmp __tablejump2__
	.section	.progmem.gcc_sw_table.lcd_noteOut,"a",@progbits
	.p2align	1
.L133:
	.word gs(.L147)
	.word gs(.L134)
	.word gs(.L135)
	.word gs(.L136)
	.word gs(.L137)
	.word gs(.L138)
	.word gs(.L139)
	.word gs(.L140)
	.word gs(.L141)
	.word gs(.L142)
	.word gs(.L143)
	.section	.text.lcd_noteOut
.L147:
	.loc 1 244 0
	ldi r29,lo8(35)
	.loc 1 260 0
	ldi r24,lo8(67)
	rjmp .L132
.LVL289:
.L159:
	.loc 1 256 0
	ldi r25,0
.LVL290:
.L141:
	.loc 1 282 0
	ldi r29,lo8(-91)
	.loc 1 284 0
	ldi r24,lo8(65)
	rjmp .L144
.LVL291:
.L158:
	.loc 1 256 0
	ldi r25,0
.LVL292:
.L140:
	.loc 1 244 0
	ldi r29,lo8(35)
	.loc 1 279 0
	ldi r24,lo8(71)
	rjmp .L144
.LVL293:
.L157:
	.loc 1 256 0
	ldi r25,0
.LVL294:
.L139:
	.loc 1 277 0
	ldi r29,lo8(-91)
	.loc 1 279 0
	ldi r24,lo8(71)
	rjmp .L144
.LVL295:
.L156:
	.loc 1 256 0
	ldi r25,0
.LVL296:
.L138:
	.loc 1 244 0
	ldi r29,lo8(35)
	.loc 1 274 0
	ldi r24,lo8(70)
	rjmp .L144
.LVL297:
.L155:
	.loc 1 256 0
	ldi r25,0
.LVL298:
.L137:
	.loc 1 272 0
	ldi r29,lo8(-91)
	.loc 1 274 0
	ldi r24,lo8(70)
	rjmp .L144
.LVL299:
.L160:
	.loc 1 256 0
	ldi r25,0
.LVL300:
.L142:
	.loc 1 244 0
	ldi r29,lo8(35)
	.loc 1 284 0
	ldi r24,lo8(65)
	rjmp .L144
.LVL301:
.L154:
	.loc 1 256 0
	ldi r25,0
.LVL302:
.L136:
	.loc 1 269 0
	ldi r29,lo8(-91)
	.loc 1 268 0
	ldi r24,lo8(69)
	.loc 1 270 0
	rjmp .L144
.LVL303:
.L153:
	.loc 1 256 0
	ldi r25,0
.LVL304:
.L135:
	.loc 1 244 0
	ldi r29,lo8(35)
	.loc 1 265 0
	ldi r24,lo8(68)
	rjmp .L144
.LVL305:
.L152:
	.loc 1 256 0
	ldi r25,0
.LVL306:
.L134:
	.loc 1 263 0
	ldi r29,lo8(-91)
	.loc 1 265 0
	ldi r24,lo8(68)
	rjmp .L144
.LVL307:
.L165:
	.loc 1 292 0
	ldi r28,lo8(45)
	rjmp .L128
.LVL308:
.L146:
	.loc 1 250 0
	ldi r28,lo8(45)
	.loc 1 249 0
	ldi r29,lo8(45)
	.loc 1 248 0
	ldi r24,lo8(45)
.LVL309:
	rjmp .L128
.LVL310:
.L129:
	.loc 1 256 0
	ldi r25,0
	movw r30,r24
	sbiw r30,1
	cpi r30,11
	cpc r31,__zero_reg__
	brlo .L166
	ldi r25,0
	rjmp .L131
.LVL311:
.L149:
	ldi r25,0
.LVL312:
.L143:
	.loc 1 288 0
	ldi r29,lo8(-91)
	.loc 1 287 0
	ldi r24,lo8(72)
	.loc 1 289 0
	rjmp .L144
.LVL313:
.L166:
	.loc 1 256 0
	clr r24
	subi r30,pm_lo8(-(.L145))
	sbci r31,pm_hi8(-(.L145))
	sbci r24,pm_hh8(-(.L145))
	jmp __tablejump2__
.LVL314:
	.section	.progmem.gcc_sw_table.lcd_noteOut
	.p2align	1
.L145:
	.word gs(.L151)
	.word gs(.L152)
	.word gs(.L153)
	.word gs(.L154)
	.word gs(.L155)
	.word gs(.L156)
	.word gs(.L157)
	.word gs(.L158)
	.word gs(.L159)
	.word gs(.L160)
	.word gs(.L149)
	.section	.text.lcd_noteOut
.L151:
	.loc 1 292 0
	ldi r28,lo8(45)
	.loc 1 244 0
	ldi r29,lo8(35)
	.loc 1 260 0
	ldi r24,lo8(67)
	rjmp .L128
	.cfi_endproc
.LFE25:
	.size	lcd_noteOut, .-lcd_noteOut
	.section	.text.lcd_ModBitOut,"ax",@progbits
.global	lcd_ModBitOut
	.type	lcd_ModBitOut, @function
lcd_ModBitOut:
.LFB26:
	.loc 1 303 0
	.cfi_startproc
.LVL315:
	push r28
.LCFI18:
	.cfi_def_cfa_offset 4
	.cfi_offset 28, -3
/* prologue: function */
/* frame size = 0 */
/* stack size = 1 */
.L__stack_usage = 1
	mov r28,r24
	.loc 1 304 0
	ldi r24,lo8(77)
.LVL316:
	call lcd_putc
.LVL317:
	.loc 1 305 0
	mov r24,r28
	swap r24
	lsr r24
	andi r24,lo8(7)
	subi r24,lo8(-(48))
	call lcd_putc
.LVL318:
	.loc 1 306 0
	ldi r24,lo8(66)
	call lcd_putc
.LVL319:
	.loc 1 307 0
	andi r28,lo8(31)
.LVL320:
	.loc 1 309 0
	ldi r24,lo8(48)
	cpi r28,lo8(11)
	brlo .L168
.LVL321:
.L169:
	.loc 1 310 0
	subi r24,lo8(-(1))
.LVL322:
	.loc 1 311 0
	subi r28,lo8(-(-10))
.LVL323:
	.loc 1 309 0
	cpi r28,lo8(11)
	brsh .L169
.LVL324:
.L168:
	.loc 1 313 0
	call lcd_putc
.LVL325:
	.loc 1 314 0
	ldi r24,lo8(48)
	add r24,r28
/* epilogue start */
	.loc 1 315 0
	pop r28
.LVL326:
	.loc 1 314 0
	jmp lcd_putc
.LVL327:
	.cfi_endproc
.LFE26:
	.size	lcd_ModBitOut, .-lcd_ModBitOut
	.section	.text.lcd_ManualOut,"ax",@progbits
.global	lcd_ManualOut
	.type	lcd_ManualOut, @function
lcd_ManualOut:
.LFB27:
	.loc 1 317 0
	.cfi_startproc
.LVL328:
	push r28
.LCFI19:
	.cfi_def_cfa_offset 4
	.cfi_offset 28, -3
/* prologue: function */
/* frame size = 0 */
/* stack size = 1 */
.L__stack_usage = 1
	.loc 1 319 0
	cpi r24,lo8(4)
	brsh .L178
	.loc 1 322 0
	cpi r24,lo8(3)
	breq .L179
	mov r28,r24
	.loc 1 325 0
	ldi r24,lo8(73)
.LVL329:
	call lcd_putc
.LVL330:
	.loc 1 326 0
	cpi r28,lo8(2)
	brne .L180
.L172:
/* epilogue start */
	.loc 1 334 0
	pop r28
.LVL331:
	ret
.LVL332:
.L178:
	.loc 1 320 0
	ldi r24,lo8(45)
.LVL333:
/* epilogue start */
	.loc 1 334 0
	pop r28
	.loc 1 320 0
	jmp lcd_putc
.LVL334:
.L179:
	.loc 1 323 0
	ldi r24,lo8(80)
.LVL335:
/* epilogue start */
	.loc 1 334 0
	pop r28
	.loc 1 323 0
	jmp lcd_putc
.LVL336:
.L180:
	.loc 1 327 0
	ldi r24,lo8(73)
	call lcd_putc
.LVL337:
	.loc 1 328 0
	cpse r28,__zero_reg__
	rjmp .L172
	.loc 1 329 0
	ldi r24,lo8(73)
/* epilogue start */
	.loc 1 334 0
	pop r28
.LVL338:
	.loc 1 329 0
	jmp lcd_putc
.LVL339:
	.cfi_endproc
.LFE27:
	.size	lcd_ManualOut, .-lcd_ManualOut
	.section	.text.lcd_ChannelOut,"ax",@progbits
.global	lcd_ChannelOut
	.type	lcd_ChannelOut, @function
lcd_ChannelOut:
.LFB28:
	.loc 1 336 0
	.cfi_startproc
.LVL340:
	push r28
.LCFI20:
	.cfi_def_cfa_offset 4
	.cfi_offset 28, -3
/* prologue: function */
/* frame size = 0 */
/* stack size = 1 */
.L__stack_usage = 1
	.loc 1 337 0
	mov r28,r24
	andi r28,lo8(15)
.LVL341:
	.loc 1 338 0
	ldi r24,lo8(1)
	add r24,r28
.LVL342:
	.loc 1 339 0
	cpi r24,lo8(10)
	brlo .L182
	.loc 1 340 0
	ldi r24,lo8(49)
.LVL343:
	call lcd_putc
.LVL344:
	.loc 1 341 0
	ldi r24,lo8(-9)
	add r24,r28
.LVL345:
.L182:
	.loc 1 343 0
	subi r24,lo8(-(48))
.LVL346:
/* epilogue start */
	.loc 1 344 0
	pop r28
	.loc 1 343 0
	jmp lcd_putc
.LVL347:
	.cfi_endproc
.LFE28:
	.size	lcd_ChannelOut, .-lcd_ChannelOut
	.section	.text.lcd_ManualOutDec,"ax",@progbits
.global	lcd_ManualOutDec
	.type	lcd_ManualOutDec, @function
lcd_ManualOutDec:
.LFB29:
	.loc 1 346 0
	.cfi_startproc
.LVL348:
/* prologue: function */
/* frame size = 0 */
/* stack size = 0 */
.L__stack_usage = 0
	.loc 1 348 0
	cpi r24,lo8(4)
	brsh .L186
	.loc 1 350 0
	cpi r24,lo8(3)
	breq .L187
	.loc 1 353 0
	ldi r25,lo8(51)
	sub r25,r24
	mov r24,r25
.LVL349:
	jmp lcd_putc
.LVL350:
.L186:
	.loc 1 349 0
	ldi r24,lo8(45)
.LVL351:
	jmp lcd_putc
.LVL352:
.L187:
	.loc 1 351 0
	ldi r24,lo8(80)
.LVL353:
	jmp lcd_putc
.LVL354:
	.cfi_endproc
.LFE29:
	.size	lcd_ManualOutDec, .-lcd_ManualOutDec
	.section	.text.lcd_blank,"ax",@progbits
.global	lcd_blank
	.type	lcd_blank, @function
lcd_blank:
.LFB30:
	.loc 1 357 0
	.cfi_startproc
.LVL355:
	push r28
.LCFI21:
	.cfi_def_cfa_offset 4
	.cfi_offset 28, -3
/* prologue: function */
/* frame size = 0 */
/* stack size = 1 */
.L__stack_usage = 1
.LVL356:
	.loc 1 358 0
	tst r24
	breq .L188
	mov r28,r24
.LVL357:
.L190:
	.loc 1 359 0
	ldi r24,lo8(32)
	call lcd_putc
.LVL358:
	subi r28,lo8(-(-1))
.LVL359:
	.loc 1 358 0
	brne .L190
.LVL360:
.L188:
/* epilogue start */
	.loc 1 361 0
	pop r28
	ret
	.cfi_endproc
.LFE30:
	.size	lcd_blank, .-lcd_blank
	.section	.text.lcd_clrEol,"ax",@progbits
.global	lcd_clrEol
	.type	lcd_clrEol, @function
lcd_clrEol:
.LFB31:
	.loc 1 363 0
	.cfi_startproc
	push r28
.LCFI22:
	.cfi_def_cfa_offset 4
	.cfi_offset 28, -3
/* prologue: function */
/* frame size = 0 */
/* stack size = 1 */
.L__stack_usage = 1
.LVL361:
	.loc 1 366 0
	lds r24,lcd_cursorPos
	andi r24,lo8(-65)
	cpi r24,lo8(20)
	breq .L193
	.loc 1 367 0
	cpi r24,lo8(40)
	breq .L193
	ldi r28,lo8(20)
.LVL362:
.L196:
	.loc 1 368 0
	ldi r24,lo8(32)
	call lcd_putc
.LVL363:
	.loc 1 366 0
	lds r24,lcd_cursorPos
	andi r24,lo8(-65)
	cpi r24,lo8(20)
	breq .L193
	.loc 1 367 0
	cpi r24,lo8(40)
	breq .L193
	subi r28,lo8(-(-1))
	.loc 1 367 0 is_stmt 0 discriminator 2
	brne .L196
.L193:
/* epilogue start */
	.loc 1 370 0 is_stmt 1
	pop r28
	ret
	.cfi_endproc
.LFE31:
	.size	lcd_clrEol, .-lcd_clrEol
	.section	.text.lcd_cursosblink,"ax",@progbits
.global	lcd_cursosblink
	.type	lcd_cursosblink, @function
lcd_cursosblink:
.LFB32:
	.loc 1 372 0
	.cfi_startproc
/* prologue: function */
/* frame size = 0 */
/* stack size = 0 */
.L__stack_usage = 0
	.loc 1 373 0
	ldi r24,lo8(13)
	call lcd_write_command
.LVL364:
	.loc 1 374 0
	ldi r24,lo8(-1)
	sts lcd_cursorIsOn,r24
	ret
	.cfi_endproc
.LFE32:
	.size	lcd_cursosblink, .-lcd_cursosblink
	.section	.text.lcd_cursoroff,"ax",@progbits
.global	lcd_cursoroff
	.type	lcd_cursoroff, @function
lcd_cursoroff:
.LFB33:
	.loc 1 377 0
	.cfi_startproc
/* prologue: function */
/* frame size = 0 */
/* stack size = 0 */
.L__stack_usage = 0
	.loc 1 378 0
	ldi r24,lo8(12)
	call lcd_write_command
.LVL365:
	.loc 1 379 0
	sts lcd_cursorIsOn,__zero_reg__
	ret
	.cfi_endproc
.LFE33:
	.size	lcd_cursoroff, .-lcd_cursoroff
	.section	.text.lcd_waitSymbolOn,"ax",@progbits
.global	lcd_waitSymbolOn
	.type	lcd_waitSymbolOn, @function
lcd_waitSymbolOn:
.LFB34:
	.loc 1 589 0
	.cfi_startproc
	push r28
.LCFI23:
	.cfi_def_cfa_offset 4
	.cfi_offset 28, -3
/* prologue: function */
/* frame size = 0 */
/* stack size = 1 */
.L__stack_usage = 1
	.loc 1 590 0
	lds r28,lcd_cursorPos
.LVL366:
	.loc 1 591 0
	ldi r24,lo8(12)
	call lcd_goto
.LVL367:
	.loc 1 592 0
	ldi r24,lo8(-95)
	call lcd_putc
.LVL368:
	.loc 1 593 0
	mov r24,r28
/* epilogue start */
	.loc 1 594 0
	pop r28
.LVL369:
	.loc 1 593 0
	jmp lcd_goto
.LVL370:
	.cfi_endproc
.LFE34:
	.size	lcd_waitSymbolOn, .-lcd_waitSymbolOn
	.section	.text.lcd_waitSymbolOff,"ax",@progbits
.global	lcd_waitSymbolOff
	.type	lcd_waitSymbolOff, @function
lcd_waitSymbolOff:
.LFB35:
	.loc 1 596 0
	.cfi_startproc
	push r28
.LCFI24:
	.cfi_def_cfa_offset 4
	.cfi_offset 28, -3
/* prologue: function */
/* frame size = 0 */
/* stack size = 1 */
.L__stack_usage = 1
	.loc 1 597 0
	lds r28,lcd_cursorPos
.LVL371:
	.loc 1 598 0
	ldi r24,lo8(12)
	call lcd_goto
.LVL372:
	.loc 1 599 0
	ldi r24,lo8(32)
	call lcd_putc
.LVL373:
	.loc 1 600 0
	mov r24,r28
/* epilogue start */
	.loc 1 601 0
	pop r28
.LVL374:
	.loc 1 600 0
	jmp lcd_goto
.LVL375:
	.cfi_endproc
.LFE35:
	.size	lcd_waitSymbolOff, .-lcd_waitSymbolOff
	.section	.text.chekcDecNibbles,"ax",@progbits
.global	chekcDecNibbles
	.type	chekcDecNibbles, @function
chekcDecNibbles:
.LFB36:
	.loc 1 604 0
	.cfi_startproc
.LVL376:
/* prologue: function */
/* frame size = 0 */
/* stack size = 0 */
.L__stack_usage = 0
	movw r30,r24
	.loc 1 605 0
	ldd r18,Z+1
	ldd r24,Z+2
.LVL377:
	ld r25,Z
	ldi r20,lo8(10)
	mul r18,r20
	movw r18,r0
	clr __zero_reg__
	add r18,r25
	adc r19,__zero_reg__
	ldi r25,lo8(100)
	mul r24,r25
	add r18,r0
	adc r19,r1
	clr __zero_reg__
	ldi r24,lo8(1)
	cpi r18,-1
	cpc r19,__zero_reg__
	breq .+2
	brge .L212
	ldi r24,0
.L212:
	.loc 1 610 0
	neg r24
	ret
	.cfi_endproc
.LFE36:
	.size	chekcDecNibbles, .-chekcDecNibbles
	.section	.text.lcd_midiChout,"ax",@progbits
.global	lcd_midiChout
	.type	lcd_midiChout, @function
lcd_midiChout:
.LFB37:
	.loc 1 705 0
	.cfi_startproc
.LVL378:
	push r28
.LCFI25:
	.cfi_def_cfa_offset 4
	.cfi_offset 28, -3
	push r29
.LCFI26:
	.cfi_def_cfa_offset 5
	.cfi_offset 29, -4
/* prologue: function */
/* frame size = 0 */
/* stack size = 2 */
.L__stack_usage = 2
	movw r28,r24
	.loc 1 706 0
	ld r24,Y
.LVL379:
	cpi r24,lo8(16)
	brsh .L216
	.loc 1 711 0
	cpi r24,lo8(9)
	brsh .L217
	.loc 1 716 0
	ldi r24,lo8(32)
	call lcd_putc
.LVL380:
	.loc 1 717 0
	ld r24,Y
	subi r24,lo8(-(49))
/* epilogue start */
	.loc 1 719 0
	pop r29
	pop r28
.LVL381:
	.loc 1 717 0
	jmp lcd_putc
.LVL382:
.L217:
	.loc 1 713 0
	ldi r24,lo8(49)
	call lcd_putc
.LVL383:
	.loc 1 714 0
	ld r24,Y
	subi r24,lo8(-(39))
/* epilogue start */
	.loc 1 719 0
	pop r29
	pop r28
.LVL384:
	.loc 1 714 0
	jmp lcd_putc
.LVL385:
.L216:
	.loc 1 708 0
	ldi r24,lo8(-1)
	st Y,r24
	.loc 1 709 0
	ldi r24,lo8(32)
	call lcd_putc
.LVL386:
	.loc 1 710 0
	ldi r24,lo8(45)
/* epilogue start */
	.loc 1 719 0
	pop r29
	pop r28
.LVL387:
	.loc 1 710 0
	jmp lcd_putc
.LVL388:
	.cfi_endproc
.LFE37:
	.size	lcd_midiChout, .-lcd_midiChout
	.section	.text.mod12,"ax",@progbits
.global	mod12
	.type	mod12, @function
mod12:
.LFB38:
	.loc 1 769 0
	.cfi_startproc
.LVL389:
	rjmp .L222
/* prologue: function */
/* frame size = 0 */
/* stack size = 0 */
.L__stack_usage = 0
.L220:
	.loc 1 771 0
	subi r24,lo8(-(-12))
.LVL390:
.L222:
	.loc 1 770 0
	cpi r24,lo8(12)
	brsh .L220
	.loc 1 774 0
	ret
	.cfi_endproc
.LFE38:
	.size	mod12, .-mod12
	.section	.text.keylabel_set,"ax",@progbits
.global	keylabel_set
	.type	keylabel_set, @function
keylabel_set:
.LFB39:
	.loc 1 955 0
	.cfi_startproc
.LVL391:
	push r28
.LCFI27:
	.cfi_def_cfa_offset 4
	.cfi_offset 28, -3
	push r29
.LCFI28:
	.cfi_def_cfa_offset 5
	.cfi_offset 29, -4
/* prologue: function */
/* frame size = 0 */
/* stack size = 2 */
.L__stack_usage = 2
.LVL392:
	.loc 1 958 0
	cpi r24,lo8(4)
	brlo .+2
	rjmp .L224
.LVL393:
	.loc 1 959 0
	movw r30,r22
	lpm r20,Z
	tst r20
	brne .+2
	rjmp .L224
.LVL394:
	movw r28,r22
	adiw r28,1
	movw r30,r28
	lpm r25,Z
	tst r25
	brne .+2
	rjmp .L238
.LVL395:
	movw r18,r22
	subi r18,-2
	sbci r19,-1
	movw r30,r18
	lpm r25,Z
	tst r25
	brne .+2
	rjmp .L239
.LVL396:
	subi r18,-1
	sbci r19,-1
	movw r30,r18
	lpm r25,Z
	tst r25
	brne .+2
	rjmp .L240
.LVL397:
	subi r18,-1
	sbci r19,-1
	movw r30,r18
	lpm r25,Z
	tst r25
	brne .+2
	rjmp .L241
.LVL398:
	subi r18,-1
	sbci r19,-1
	movw r30,r18
	lpm r25,Z
	tst r25
	brne .+2
	rjmp .L251
.LVL399:
	.loc 1 963 0 discriminator 1
	ldi r19,lo8(5)
	mul r24,r19
	movw r26,r0
	clr __zero_reg__
	subi r26,lo8(-(labelBuffer))
	sbci r27,hi8(-(labelBuffer))
.LVL400:
	ldi r18,lo8(5)
.LVL401:
.L228:
	.loc 1 971 0
	st X+,r20
.LVL402:
	movw r22,r28
.LVL403:
.L230:
	.loc 1 968 0
	cpi r18,lo8(1)
	breq .L229
.LVL404:
	.loc 1 971 0
	movw r30,r22
	lpm r24,Z
	st X,r24
	subi r22,-1
	sbci r23,-1
.LVL405:
	.loc 1 968 0
	cpi r18,lo8(3)
	brsh .L232
.LVL406:
.L254:
	.loc 1 969 0
	ldi r24,lo8(32)
	adiw r26,1
	st X,r24
	sbiw r26,1
.LVL407:
	.loc 1 968 0
	cpi r18,lo8(4)
	brlo .L252
.LVL408:
.L234:
	.loc 1 971 0
	movw r30,r22
	lpm r24,Z
	adiw r26,2
	st X,r24
	sbiw r26,2
	subi r22,-1
	sbci r23,-1
.LVL409:
	.loc 1 968 0
	cpi r18,lo8(5)
	brlo .L253
.LVL410:
.L236:
	.loc 1 971 0
	movw r30,r22
	lpm r24,Z
	adiw r26,3
	st X,r24
.LVL411:
/* epilogue start */
	.loc 1 976 0
	pop r29
	pop r28
	ret
.LVL412:
.L224:
	.loc 1 963 0
	ldi r31,lo8(5)
	mul r24,r31
	movw r26,r0
	clr __zero_reg__
	subi r26,lo8(-(labelBuffer))
	sbci r27,hi8(-(labelBuffer))
.LVL413:
	ldi r18,lo8(2)
	ldi r25,lo8(2)
.L227:
	.loc 1 969 0
	ldi r24,lo8(32)
.LVL414:
	st X+,r24
.LVL415:
	.loc 1 968 0
	cpi r25,lo8(2)
	brne .L230
.L229:
	.loc 1 969 0
	ldi r24,lo8(32)
	st X,r24
.LVL416:
	.loc 1 968 0
	cpi r18,lo8(3)
	brlo .L254
.LVL417:
.L232:
	.loc 1 971 0
	movw r30,r22
	lpm r24,Z
	adiw r26,1
	st X,r24
	sbiw r26,1
	subi r22,-1
	sbci r23,-1
.LVL418:
	.loc 1 968 0
	cpi r18,lo8(4)
	brsh .L234
.LVL419:
.L252:
	.loc 1 969 0
	ldi r24,lo8(32)
	adiw r26,2
	st X,r24
	sbiw r26,2
.LVL420:
	.loc 1 968 0
	cpi r18,lo8(5)
	brsh .L236
.LVL421:
.L253:
	.loc 1 969 0
	ldi r24,lo8(32)
	adiw r26,3
	st X,r24
/* epilogue start */
	.loc 1 976 0
	pop r29
	pop r28
	ret
.LVL422:
.L238:
	.loc 1 960 0
	ldi r21,lo8(1)
.LVL423:
.L225:
	ldi r18,lo8(5)
	ldi r19,0
	sub r18,r21
	sbc r19,__zero_reg__
	asr r19
	ror r18
	mov r25,r18
	add r18,r21
	.loc 1 963 0
	ldi r31,lo8(5)
	mul r24,r31
	movw r26,r0
	clr __zero_reg__
	subi r26,lo8(-(labelBuffer))
	sbci r27,hi8(-(labelBuffer))
.LVL424:
	.loc 1 968 0
	tst r25
	brne .+2
	rjmp .L228
	rjmp .L227
.LVL425:
.L239:
	.loc 1 960 0
	ldi r21,lo8(2)
	rjmp .L225
.LVL426:
.L240:
	ldi r21,lo8(3)
	rjmp .L225
.LVL427:
.L241:
	ldi r21,lo8(4)
	rjmp .L225
.LVL428:
.L251:
	ldi r21,lo8(5)
	rjmp .L225
	.cfi_endproc
.LFE39:
	.size	keylabel_set, .-keylabel_set
	.section	.text.keylabel_clr,"ax",@progbits
.global	keylabel_clr
	.type	keylabel_clr, @function
keylabel_clr:
.LFB40:
	.loc 1 978 0
	.cfi_startproc
.LVL429:
/* prologue: function */
/* frame size = 0 */
/* stack size = 0 */
.L__stack_usage = 0
	ldi r18,lo8(5)
	mul r24,r18
	movw r24,r0
	clr __zero_reg__
.LVL430:
	ldi r20,lo8(5)
	ldi r21,0
	ldi r22,lo8(32)
	ldi r23,0
	subi r24,lo8(-(labelBuffer))
	sbci r25,hi8(-(labelBuffer))
	jmp memset
.LVL431:
	.cfi_endproc
.LFE40:
	.size	keylabel_clr, .-keylabel_clr
	.section	.text.keylabel_toLCD,"ax",@progbits
.global	keylabel_toLCD
	.type	keylabel_toLCD, @function
keylabel_toLCD:
.LFB41:
	.loc 1 985 0
	.cfi_startproc
	.loc 1 985 0
	push r15
.LCFI29:
	.cfi_def_cfa_offset 4
	.cfi_offset 15, -3
	push r16
.LCFI30:
	.cfi_def_cfa_offset 5
	.cfi_offset 16, -4
	push r17
.LCFI31:
	.cfi_def_cfa_offset 6
	.cfi_offset 17, -5
	push r28
.LCFI32:
	.cfi_def_cfa_offset 7
	.cfi_offset 28, -6
	push r29
.LCFI33:
	.cfi_def_cfa_offset 8
	.cfi_offset 29, -7
/* prologue: function */
/* frame size = 0 */
/* stack size = 5 */
.L__stack_usage = 5
	.loc 1 986 0
	lds r15,lcd_cursorPos
.LVL432:
	.loc 1 987 0
	ldi r24,lo8(84)
	call lcd_goto
.LVL433:
	ldi r28,lo8(labelBuffer)
	ldi r29,hi8(labelBuffer)
	ldi r16,lo8(labelBuffer+20)
	ldi r17,hi8(labelBuffer+20)
.LVL434:
.L257:
.LBB58:
	.loc 1 990 0 discriminator 3
	ld r24,Y+
.LVL435:
	call lcd_putc
.LVL436:
	.loc 1 989 0 discriminator 3
	cp r16,r28
	cpc r17,r29
	brne .L257
.LBE58:
	.loc 1 992 0
	mov r24,r15
/* epilogue start */
	.loc 1 993 0
	pop r29
	pop r28
.LVL437:
	pop r17
	pop r16
	pop r15
.LVL438:
	.loc 1 992 0
	jmp lcd_goto
.LVL439:
	.cfi_endproc
.LFE41:
	.size	keylabel_toLCD, .-keylabel_toLCD
	.section	.text.keylabel_statcheck,"ax",@progbits
.global	keylabel_statcheck
	.type	keylabel_statcheck, @function
keylabel_statcheck:
.LFB42:
	.loc 1 995 0
	.cfi_startproc
.LVL440:
/* prologue: function */
/* frame size = 0 */
/* stack size = 0 */
.L__stack_usage = 0
	.loc 1 997 0
	ldi r18,lo8(5)
	mul r24,r18
	movw r24,r0
	clr __zero_reg__
.LVL441:
	movw r30,r24
	subi r30,lo8(-(labelBuffer))
	sbci r31,hi8(-(labelBuffer))
.LVL442:
.LBB59:
.LBB60:
	.loc 1 1004 0
	ld r24,Z
	tst r22
	breq .L260
.LVL443:
	cpi r24,lo8(-128)
	breq .L274
.LBE60:
.LBE59:
	.loc 1 998 0
	ldi r24,0
.LVL444:
.L261:
.LBB65:
.LBB61:
	.loc 1 1004 0
	ldd r25,Z+1
	cpi r25,lo8(-128)
	breq .L275
.LVL445:
.L262:
	ldd r25,Z+2
	cpi r25,lo8(-128)
	breq .L276
.LVL446:
.L263:
	ldd r25,Z+3
	cpi r25,lo8(-128)
	breq .L277
.LVL447:
.L264:
	ldd r25,Z+4
	cpi r25,lo8(-128)
	breq .L278
.LVL448:
.L266:
.LBE61:
.LBE65:
	.loc 1 1011 0
	ret
.LVL449:
.L260:
.LBB66:
.LBB62:
	.loc 1 1001 0
	cpi r24,lo8(10)
	breq .L279
.LBE62:
.LBE66:
	.loc 1 998 0
	ldi r24,0
.LVL450:
.L267:
.LBB67:
.LBB63:
	.loc 1 1001 0
	ldd r25,Z+1
	cpi r25,lo8(10)
	breq .L280
.LVL451:
.L268:
	ldd r25,Z+2
	cpi r25,lo8(10)
	breq .L281
.LVL452:
.L269:
	ldd r25,Z+3
	cpi r25,lo8(10)
	breq .L282
.LVL453:
.L270:
	ldd r25,Z+4
	cpi r25,lo8(10)
	brne .L266
	.loc 1 1002 0
	ldi r24,lo8(-128)
.LVL454:
	std Z+4,r24
.LVL455:
	.loc 1 1003 0
	ldi r24,lo8(-1)
.LVL456:
.LBE63:
.LBE67:
	.loc 1 1011 0
	ret
.LVL457:
.L279:
.LBB68:
.LBB64:
	.loc 1 1002 0
	ldi r24,lo8(-128)
	st Z,r24
.LVL458:
	.loc 1 1003 0
	ldi r24,lo8(-1)
	rjmp .L267
.LVL459:
.L274:
	.loc 1 1005 0
	ldi r24,lo8(10)
	st Z,r24
.LVL460:
	.loc 1 1006 0
	ldi r24,lo8(-1)
	rjmp .L261
.LVL461:
.L278:
	.loc 1 1005 0
	ldi r24,lo8(10)
.LVL462:
	std Z+4,r24
.LVL463:
	.loc 1 1006 0
	ldi r24,lo8(-1)
.LVL464:
	ret
.LVL465:
.L281:
	.loc 1 1002 0
	ldi r24,lo8(-128)
.LVL466:
	std Z+2,r24
.LVL467:
	.loc 1 1003 0
	ldi r24,lo8(-1)
	rjmp .L269
.LVL468:
.L280:
	.loc 1 1002 0
	ldi r24,lo8(-128)
.LVL469:
	std Z+1,r24
.LVL470:
	.loc 1 1003 0
	ldi r24,lo8(-1)
	rjmp .L268
.LVL471:
.L282:
	.loc 1 1002 0
	ldi r24,lo8(-128)
.LVL472:
	std Z+3,r24
.LVL473:
	.loc 1 1003 0
	ldi r24,lo8(-1)
	rjmp .L270
.LVL474:
.L277:
	.loc 1 1005 0
	ldi r24,lo8(10)
.LVL475:
	std Z+3,r24
.LVL476:
	.loc 1 1006 0
	ldi r24,lo8(-1)
	rjmp .L264
.LVL477:
.L276:
	.loc 1 1005 0
	ldi r24,lo8(10)
.LVL478:
	std Z+2,r24
.LVL479:
	.loc 1 1006 0
	ldi r24,lo8(-1)
	rjmp .L263
.LVL480:
.L275:
	.loc 1 1005 0
	ldi r24,lo8(10)
.LVL481:
	std Z+1,r24
.LVL482:
	.loc 1 1006 0
	ldi r24,lo8(-1)
	rjmp .L262
.LBE64:
.LBE68:
	.cfi_endproc
.LFE42:
	.size	keylabel_statcheck, .-keylabel_statcheck
	.section	.bss.labelBuffer,"aw",@nobits
	.type	labelBuffer, @object
	.size	labelBuffer, 20
labelBuffer:
	.zero	20
.global	keylabel_text
	.section	.progmem.data.keylabel_text,"a",@progbits
	.type	keylabel_text, @object
	.size	keylabel_text, 6
keylabel_text:
	.string	"Text\200"
.global	keylabel_exit
	.section	.progmem.data.keylabel_exit,"a",@progbits
	.type	keylabel_exit, @object
	.size	keylabel_exit, 5
keylabel_exit:
	.string	"Exit"
.global	keylabel_onoff
	.section	.progmem.data.keylabel_onoff,"a",@progbits
	.type	keylabel_onoff, @object
	.size	keylabel_onoff, 5
keylabel_onoff:
	.string	"Ein\200"
.global	keylabel_minus
	.section	.progmem.data.keylabel_minus,"a",@progbits
	.type	keylabel_minus, @object
	.size	keylabel_minus, 2
keylabel_minus:
	.string	"-"
.global	keylabel_plus
	.section	.progmem.data.keylabel_plus,"a",@progbits
	.type	keylabel_plus, @object
	.size	keylabel_plus, 2
keylabel_plus:
	.string	"+"
.global	keylabel_left
	.section	.progmem.data.keylabel_left,"a",@progbits
	.type	keylabel_left, @object
	.size	keylabel_left, 2
keylabel_left:
	.string	"\177"
.global	keylabel_right
	.section	.progmem.data.keylabel_right,"a",@progbits
	.type	keylabel_right, @object
	.size	keylabel_right, 2
keylabel_right:
	.string	"~"
.global	keylabel_down
	.section	.progmem.data.keylabel_down,"a",@progbits
	.type	keylabel_down, @object
	.size	keylabel_down, 2
keylabel_down:
	.string	"\t"
.global	keylabel_up
	.section	.progmem.data.keylabel_up,"a",@progbits
	.type	keylabel_up, @object
	.size	keylabel_up, 2
keylabel_up:
	.string	"\b"
.global	cgPattern_Block
	.section	.progmem.data.cgPattern_Block,"a",@progbits
	.type	cgPattern_Block, @object
	.size	cgPattern_Block, 8
cgPattern_Block:
	.byte	0
	.byte	0
	.byte	14
	.byte	14
	.byte	14
	.byte	14
	.byte	0
	.byte	0
.global	cgPattern_Down
	.section	.progmem.data.cgPattern_Down,"a",@progbits
	.type	cgPattern_Down, @object
	.size	cgPattern_Down, 8
cgPattern_Down:
	.byte	4
	.byte	4
	.byte	4
	.byte	4
	.byte	21
	.byte	14
	.byte	4
	.byte	0
.global	cgPattern_Up
	.section	.progmem.data.cgPattern_Up,"a",@progbits
	.type	cgPattern_Up, @object
	.size	cgPattern_Up, 8
cgPattern_Up:
	.byte	4
	.byte	14
	.byte	21
	.byte	4
	.byte	4
	.byte	4
	.byte	4
	.byte	0
	.comm	lcd_cursorIsOn,1,1
	.comm	editByte,1,1
	.comm	editLong,4,1
	.comm	string_Buf,40,1
.global	cr_lf
	.section	.progmem.data.cr_lf,"a",@progbits
	.type	cr_lf, @object
	.size	cr_lf, 3
cr_lf:
	.string	"\r\n"
	.text
.Letext0:
	.file 2 "c:\\program files (x86)\\atmel\\studio\\7.0\\toolchain\\avr8\\avr8-gnu-toolchain\\avr\\include\\stdint.h"
	.file 3 ".././utils.h"
	.file 4 ".././lcd_u.h"
	.file 5 "<built-in>"